Args: llvm/build/bin/mlir-cpu-runner first.mlir -O3 -e main -entry-point-result=void -shared-libs=build/lib/libcomet_runner_utils.dylib,llvm/build/lib/libmlir_runner_utils.dylib -debug 
Load new dialect in Context builtin
ImplicitTypeIDRegistry::lookupOrInsert(mlir::ShapedType)
ImplicitTypeIDRegistry::lookupOrInsert(mlir::MemRefLayoutAttrInterface)
ImplicitTypeIDRegistry::lookupOrInsert(mlir::ElementsAttr)
ImplicitTypeIDRegistry::lookupOrInsert(mlir::TypedAttr)
ImplicitTypeIDRegistry::lookupOrInsert(mlir::SymbolOpInterface)
ImplicitTypeIDRegistry::lookupOrInsert(mlir::OpAsmOpInterface)
ImplicitTypeIDRegistry::lookupOrInsert(mlir::RegionKindInterface)
ImplicitTypeIDRegistry::lookupOrInsert(mlir::CastOpInterface)
ImplicitTypeIDRegistry::lookupOrInsert(mlir::ConditionallySpeculatable)
ImplicitTypeIDRegistry::lookupOrInsert(mlir::MemoryEffectOpInterface)
ImplicitTypeIDRegistry::lookupOrInsert(mlir::ResourceBlobManagerDialectInterface)
ImplicitTypeIDRegistry::lookupOrInsert(mlir::OpAsmDialectInterface)
ImplicitTypeIDRegistry::lookupOrInsert(mlir::BytecodeDialectInterface)
ImplicitTypeIDRegistry::lookupOrInsert(mlir::detail::AffineBinaryOpExprStorage)
ImplicitTypeIDRegistry::lookupOrInsert(mlir::detail::AffineConstantExprStorage)
ImplicitTypeIDRegistry::lookupOrInsert(mlir::detail::AffineDimExprStorage)
ImplicitTypeIDRegistry::lookupOrInsert(mlir::detail::AffineMapStorage)
ImplicitTypeIDRegistry::lookupOrInsert(mlir::detail::IntegerSetStorage)
ImplicitTypeIDRegistry::lookupOrInsert(mlir::OpTrait::ZeroOperands<Empty>)
ImplicitTypeIDRegistry::lookupOrInsert(mlir::OpTrait::OneRegion<Empty>)
ImplicitTypeIDRegistry::lookupOrInsert(mlir::OpTrait::ZeroResults<Empty>)
ImplicitTypeIDRegistry::lookupOrInsert(mlir::OpTrait::ZeroSuccessors<Empty>)
ImplicitTypeIDRegistry::lookupOrInsert(mlir::OpTrait::NoRegionArguments<Empty>)
ImplicitTypeIDRegistry::lookupOrInsert(mlir::OpTrait::NoTerminator<Empty>)
ImplicitTypeIDRegistry::lookupOrInsert(mlir::OpTrait::SingleBlock<Empty>)
ImplicitTypeIDRegistry::lookupOrInsert(mlir::OpTrait::OpInvariants<Empty>)
ImplicitTypeIDRegistry::lookupOrInsert(mlir::OpTrait::AffineScope<Empty>)
ImplicitTypeIDRegistry::lookupOrInsert(mlir::OpTrait::IsIsolatedFromAbove<Empty>)
ImplicitTypeIDRegistry::lookupOrInsert(mlir::OpTrait::SymbolTable<Empty>)
ImplicitTypeIDRegistry::lookupOrInsert(mlir::SymbolOpInterface::Trait<Empty>)
ImplicitTypeIDRegistry::lookupOrInsert(mlir::OpAsmOpInterface::Trait<Empty>)
ImplicitTypeIDRegistry::lookupOrInsert(mlir::RegionKindInterface::Trait<Empty>)
ImplicitTypeIDRegistry::lookupOrInsert(mlir::OpTrait::HasOnlyGraphRegion<Empty>)
Load new dialect in Context llvm
ImplicitTypeIDRegistry::lookupOrInsert(mlir::LLVM::LLVMVoidType)
ImplicitTypeIDRegistry::lookupOrInsert(mlir::LLVM::LLVMPPCFP128Type)
ImplicitTypeIDRegistry::lookupOrInsert(mlir::LLVM::LLVMX86MMXType)
ImplicitTypeIDRegistry::lookupOrInsert(mlir::LLVM::LLVMTokenType)
ImplicitTypeIDRegistry::lookupOrInsert(mlir::LLVM::LLVMLabelType)
ImplicitTypeIDRegistry::lookupOrInsert(mlir::LLVM::LLVMMetadataType)
ImplicitTypeIDRegistry::lookupOrInsert(mlir::LLVM::LLVMStructType)
ImplicitTypeIDRegistry::lookupOrInsert(mlir::DataLayoutTypeInterface)
ImplicitTypeIDRegistry::lookupOrInsert(mlir::InferTypeOpInterface)
ImplicitTypeIDRegistry::lookupOrInsert(mlir::SymbolUserOpInterface)
ImplicitTypeIDRegistry::lookupOrInsert(mlir::BranchOpInterface)
ImplicitTypeIDRegistry::lookupOrInsert(mlir::LLVM::FastmathFlagsInterface)
ImplicitTypeIDRegistry::lookupOrInsert(mlir::CallOpInterface)
ImplicitTypeIDRegistry::lookupOrInsert(mlir::FunctionOpInterface)
ImplicitTypeIDRegistry::lookupOrInsert(mlir::CallableOpInterface)
ImplicitTypeIDRegistry::lookupOrInsert(mlir::DialectInlinerInterface)
ImplicitTypeIDRegistry::lookupOrInsert(mlir::LLVMTranslationDialectInterface)
ImplicitTypeIDRegistry::lookupOrInsert(mlir::OpTrait::AutomaticAllocationScope<Empty>)
ImplicitTypeIDRegistry::lookupOrInsert(mlir::FunctionOpInterface::Trait<Empty>)
ImplicitTypeIDRegistry::lookupOrInsert(mlir::CallableOpInterface::Trait<Empty>)
ImplicitTypeIDRegistry::lookupOrInsert(mlir::OpTrait::ZeroRegions<Empty>)
ImplicitTypeIDRegistry::lookupOrInsert(mlir::OpTrait::OneResult<Empty>)
ImplicitTypeIDRegistry::lookupOrInsert(mlir::OpTrait::OneTypedResult<mlir::Type>::Impl<Empty>)
ImplicitTypeIDRegistry::lookupOrInsert(mlir::ConditionallySpeculatable::Trait<Empty>)
ImplicitTypeIDRegistry::lookupOrInsert(mlir::OpTrait::AlwaysSpeculatableImplTrait<Empty>)
ImplicitTypeIDRegistry::lookupOrInsert(mlir::MemoryEffectOpInterface::Trait<Empty>)
ImplicitTypeIDRegistry::lookupOrInsert(mlir::OpTrait::ConstantLike<Empty>)
ImplicitTypeIDRegistry::lookupOrInsert(mlir::OpTrait::OneTypedResult<mlir::LLVM::LLVMPointerType>::Impl<Empty>)
ImplicitTypeIDRegistry::lookupOrInsert(mlir::OpTrait::AtLeastNOperands<1>::Impl<Empty>)
ImplicitTypeIDRegistry::lookupOrInsert(mlir::OpTrait::OneOperand<Empty>)
ImplicitTypeIDRegistry::lookupOrInsert(mlir::OpTrait::VariadicResults<Empty>)
ImplicitTypeIDRegistry::lookupOrInsert(mlir::OpTrait::VariadicOperands<Empty>)
ImplicitTypeIDRegistry::lookupOrInsert(mlir::LLVM::FastmathFlagsInterface::Trait<Empty>)
ImplicitTypeIDRegistry::lookupOrInsert(mlir::CallOpInterface::Trait<Empty>)
ImplicitTypeIDRegistry::lookupOrInsert(mlir::SymbolUserOpInterface::Trait<Empty>)
ImplicitTypeIDRegistry::lookupOrInsert(mlir::OpTrait::NOperands<2>::Impl<Empty>)
ImplicitTypeIDRegistry::lookupOrInsert(mlir::InferTypeOpInterface::Trait<Empty>)
ImplicitTypeIDRegistry::lookupOrInsert(mlir::OpTrait::OneSuccessor<Empty>)
ImplicitTypeIDRegistry::lookupOrInsert(mlir::BranchOpInterface::Trait<Empty>)
ImplicitTypeIDRegistry::lookupOrInsert(mlir::OpTrait::IsTerminator<Empty>)
ImplicitTypeIDRegistry::lookupOrInsert(mlir::OpTrait::SameTypeOperands<Empty>)
ImplicitTypeIDRegistry::lookupOrInsert(mlir::OpTrait::NSuccessors<2>::Impl<Empty>)
ImplicitTypeIDRegistry::lookupOrInsert(mlir::OpTrait::AttrSizedOperandSegments<Empty>)
ImplicitTypeIDRegistry::lookupOrInsert(mlir::OpTrait::SameOperandsAndResultType<Empty>)
ImplicitTypeIDRegistry::lookupOrInsert(mlir::OpTrait::IsCommutative<Empty>)
ImplicitTypeIDRegistry::lookupOrInsert(mlir::OpTrait::ReturnLike<Empty>)
ImplicitTypeIDRegistry::lookupOrInsert(mlir::DataLayoutSpecInterface)
Preparing to create LLJIT instance...
  No explicitly set JITTargetMachineBuilder. Detecting host...
  JITTargetMachineBuilder is   {
    Triple = "x86_64-apple-darwin22.5.0"
    CPU = "skylake"
    Features = "+xsaves,+sse2,-hreset,-avx512cd,-sha,+xsaveopt,-kl,-avxvnni,-mwaitx,-clzero,+sse4.2,+bmi,-cldemote,-widekl,-avx512f,-raoint,+xsavec,+lzcnt,-serialize,-avxvnniint8,+fsgsbase,+aes,+sse,-sse4a,-rdpru,-tbm,-avx512bf16,-rtm,+fma,-waitpkg,-amx-fp16,-avx512ifma,-avx512vp2intersect,+popcnt,-vaes,-prefetchi,+f16c,+avx2,+sahf,+xsave,-uintr,+fxsr,+sgx,-pconfig,-avx512er,-avx512fp16,-gfni,+rdseed,+bmi2,-movdir64b,-avx512vl,-pku,-xop,-avx512bw,-avx512vbmi,+prfchw,-rdpid,+sse3,+cx16,-vpclmulqdq,-avx512vbmi2,-enqcmd,-amx-bf16,+64bit,-amx-int8,-avx512pf,-ptwrite,-amx-tile,-lwp,-avx512vpopcntdq,-avx512dq,-avxneconvert,+mmx,-fma4,-avx512vnni,-avxifma,+avx,+cmov,+sse4.1,+movbe,+invpcid,+adx,-clwb,-prefetchwt1,-cmpccxadd,+ssse3,+cx8,+clflushopt,-tsxldtrk,+pclmul,+crc32,+rdrnd,-avx512bitalg,-shstk,-movdiri,-wbnoinvd"
    Options = <not-printable>
    Relocation Model = unspecified (will use target default)
    Code Model = unspecified (will use target default)
    Optimization Level = Default
  }
  Pre-constructed ExecutionSession: No
  DataLayout: None (will be created by JITTargetMachineBuilder)
  Custom object-linking-layer creator: Yes
  Custom compile-function creator: Yes
  Custom platform-setup function: No
  Number of compile threads: 0 (code will be compiled on the execution thread)
ExecutorProcessControl not specified, Creating SelfExecutorProcessControl instance
Defining MU /Users/flyn908/Projects/COMET/build/lib/libcomet_runner_utils.dylib for /Users/flyn908/Projects/COMET/build/lib/libcomet_runner_utils.dylib (tracker: default)  { ("_comet_print_memref_f64", [Callable]), ("_comet_memset_i1", [Callable]), ("__ZNSt3__120__half_inplace_mergeINS_17_ClassicAlgPolicyER16CooComparatorColP8CooTupleIfES6_S6_S6_S6_EEvT1_T2_T3_T4_T5_OT0_", [Callable][Weak]), ("__ZNSt3__120__half_inplace_mergeINS_17_ClassicAlgPolicyER16CooComparatorColP8CooTupleIdES6_S6_S6_S6_EEvT1_T2_T3_T4_T5_OT0_", [Callable][Weak]), ("__ZNSt3__16__treeINS_12__value_typeIiP11Coo3DTensorIdEEENS_19__map_value_compareIiS5_NS_4lessIiEELb1EEENS_9allocatorIS5_EEE16__construct_nodeIJRKNS_21piecewise_construct_tENS_5tupleIJRKiEEENSH_IJEEEEEENS_10unique_ptrINS_11__tree_nodeIS5_PvEENS_22__tree_node_destructorINSA_ISP_EEEEEEDpOT_", [Callable][Weak]), ("__ZNSt3__120__half_inplace_mergeINS_17_ClassicAlgPolicyER16CooComparatorRowP8CooTupleIfES6_S6_S6_S6_EEvT1_T2_T3_T4_T5_OT0_", [Callable][Weak]), ("__ZNSt3__120__half_inplace_mergeINS_17_ClassicAlgPolicyER16CooComparatorRowP8CooTupleIdES6_S6_S6_S6_EEvT1_T2_T3_T4_T5_OT0_", [Callable][Weak]), ("__ZNSt3__16__treeINS_12__value_typeIiP11Coo3DTensorIdEEENS_19__map_value_compareIiS5_NS_4lessIiEELb1EEENS_9allocatorIS5_EEE25__emplace_unique_key_argsIiJRKNS_21piecewise_construct_tENS_5tupleIJRKiEEENSH_IJEEEEEENS_4pairINS_15__tree_iteratorIS5_PNS_11__tree_nodeIS5_PvEElEEbEERKT_DpOT0_", [Callable][Weak]), ("_transpose_3D_f32", [Callable]), ("_transpose_3D_f64", [Callable]), ("__ZNSt3__16__treeINS_12__value_typeIiP11Coo3DTensorIfEEENS_19__map_value_compareIiS5_NS_4lessIiEELb1EEENS_9allocatorIS5_EEE13__lower_boundIiEENS_15__tree_iteratorIS5_PNS_11__tree_nodeIS5_PvEElEERKT_SI_PNS_15__tree_end_nodeIPNS_16__tree_node_baseISG_EEEE", [Callable][Weak]), ("__ZNSt3__116__insertion_sortINS_17_ClassicAlgPolicyER21Coo3DTensorComparatorPN11Coo3DTensorIdE10Coo3DTupleEEEvT1_S8_T0_", [Callable][Weak]), ("__ZNSt3__16__treeINS_12__value_typeIiP9CooMatrixIfEEENS_19__map_value_compareIiS5_NS_4lessIiEELb1EEENS_9allocatorIS5_EEE7destroyEPNS_11__tree_nodeIS5_PvEE", [Callable][Weak]), ("__ZNSt3__16__treeINS_12__value_typeIiP9CooMatrixIfEEENS_19__map_value_compareIiS5_NS_4lessIiEELb1EEENS_9allocatorIS5_EEE14__erase_uniqueIiEEmRKT_", [Callable][Weak]), ("__ZNSt3__111__introsortINS_17_ClassicAlgPolicyERPFb5coo_tS2_EPS2_EEvT1_S7_T0_NS_15iterator_traitsIS7_E15difference_typeE", [Callable][Weak]), ("__ZNSt3__119__merge_move_assignINS_17_ClassicAlgPolicyER16CooComparatorColP8CooTupleIdES6_S6_EEvT1_S7_T2_S8_T3_T0_", [Callable][Weak]), ("__ZNSt3__116__insertion_sortINS_17_ClassicAlgPolicyER21Coo3DTensorComparatorPN11Coo3DTensorIfE10Coo3DTupleEEEvT1_S8_T0_", [Callable][Weak]), ("__ZNSt3__119__merge_move_assignINS_17_ClassicAlgPolicyER16CooComparatorColP8CooTupleIfES6_S6_EEvT1_S7_T2_S8_T3_T0_", [Callable][Weak]), ("__ZNSt3__119__merge_move_assignINS_17_ClassicAlgPolicyER16CooComparatorRowP8CooTupleIfES6_S6_EEvT1_S7_T2_S8_T3_T0_", [Callable][Weak]), ("__ZNSt3__119__merge_move_assignINS_17_ClassicAlgPolicyER16CooComparatorRowP8CooTupleIdES6_S6_EEvT1_S7_T2_S8_T3_T0_", [Callable][Weak]), ("__ZNSt3__16__treeINS_12__value_typeIiP11Coo3DTensorIdEEENS_19__map_value_compareIiS5_NS_4lessIiEELb1EEENS_9allocatorIS5_EEE7destroyEPNS_11__tree_nodeIS5_PvEE", [Callable][Weak]), ("__ZNSt3__16__treeINS_12__value_typeIiP9CooMatrixIdEEENS_19__map_value_compareIiS5_NS_4lessIiEELb1EEENS_9allocatorIS5_EEE25__emplace_unique_key_argsIiJRKNS_21piecewise_construct_tENS_5tupleIJRKiEEENSH_IJEEEEEENS_4pairINS_15__tree_iteratorIS5_PNS_11__tree_nodeIS5_PvEElEEbEERKT_DpOT0_", [Callable][Weak]), ("_print_range", [Callable]), ("__ZNSt3__16vectorIiNS_9allocatorIiEEE18__construct_at_endIPiEENS_9enable_ifIXsr27__is_cpp17_forward_iteratorIT_EE5valueEvE4typeES7_S7_m", [Callable][Weak]), ("__ZNSt3__16__treeINS_12__value_typeIiP11Coo3DTensorIfEEENS_19__map_value_compareIiS5_NS_4lessIiEELb1EEENS_9allocatorIS5_EEE14__erase_uniqueIiEEmRKT_", [Callable][Weak]), ("__ZNSt3__127__tree_balance_after_insertIPNS_16__tree_node_baseIPvEEEEvT_S5_", [Callable][Weak]), ("__ZNSt3__16__treeINS_12__value_typeIiP9CooMatrixIdEEENS_19__map_value_compareIiS5_NS_4lessIiEELb1EEENS_9allocatorIS5_EEE14__erase_uniqueIiEEmRKT_", [Callable][Weak]), ("__ZNSt3__16__treeINS_12__value_typeIiP9CooMatrixIfEEENS_19__map_value_compareIiS5_NS_4lessIiEELb1EEENS_9allocatorIS5_EEE13__lower_boundIiEENS_15__tree_iteratorIS5_PNS_11__tree_nodeIS5_PvEElEERKT_SI_PNS_15__tree_end_nodeIPNS_16__tree_node_baseISG_EEEE", [Callable][Weak]), ("__ZNSt3__16vectorI5coo_tNS_9allocatorIS1_EEE18__construct_at_endEm", [Callable][Weak]), ("__ZNSt3__127__insertion_sort_incompleteIRPFb5coo_tS1_EPS1_EEbT0_S6_T_", [Callable][Weak]), ("__ZNSt3__16__treeINS_12__value_typeIiP11Coo3DTensorIfEEENS_19__map_value_compareIiS5_NS_4lessIiEELb1EEENS_9allocatorIS5_EEE7destroyEPNS_11__tree_nodeIS5_PvEE", [Callable][Weak]), ("__Z19printMemRefMetaDataINSt3__113basic_ostreamIcNS0_11char_traitsIcEEEEdLi2EEvRT_R17StridedMemRefTypeIT0_XT1_EE", [Callable][Weak]), ("__ZNSt3__1lsINS_11char_traitsIcEEEERNS_13basic_ostreamIcT_EES6_PKc", [Callable][Weak]), ("__ZNSt3__16__treeINS_12__value_typeIiP9CooMatrixIfEEENS_19__map_value_compareIiS5_NS_4lessIiEELb1EEENS_9allocatorIS5_EEE16__construct_nodeIJRKNS_21piecewise_construct_tENS_5tupleIJRKiEEENSH_IJEEEEEENS_10unique_ptrINS_11__tree_nodeIS5_PvEENS_22__tree_node_destructorINSA_ISP_EEEEEEDpOT_", [Callable][Weak]), ("_print_space", [Callable]), ("__ZNSt3__17__sort4INS_17_ClassicAlgPolicyERPFb5coo_tS2_EPS2_EEjT1_S7_S7_S7_T0_", [Callable][Weak]), ("__ZNSt3__16__treeINS_12__value_typeIiP9CooMatrixIdEEENS_19__map_value_compareIiS5_NS_4lessIiEELb1EEENS_9allocatorIS5_EEE7destroyEPNS_11__tree_nodeIS5_PvEE", [Callable][Weak]), ("__ZNSt3__120__half_inplace_mergeINS_17_ClassicAlgPolicyER21Coo3DTensorComparatorPN11Coo3DTensorIfE10Coo3DTupleES7_S7_S7_S7_EEvT1_T2_T3_T4_T5_OT0_", [Callable][Weak]), ("__Z12radix_bucketRNSt3__16vectorI5coo_tNS_9allocatorIS1_EEEEi", [Callable]), ("__ZNSt3__16__treeINS_12__value_typeIiP11Coo3DTensorIfEEENS_19__map_value_compareIiS5_NS_4lessIiEELb1EEENS_9allocatorIS5_EEE16__construct_nodeIJRKNS_21piecewise_construct_tENS_5tupleIJRKiEEENSH_IJEEEEEENS_10unique_ptrINS_11__tree_nodeIS5_PvEENS_22__tree_node_destructorINSA_ISP_EEEEEEDpOT_", [Callable][Weak]), ("__ZNSt3__116__insertion_sortINS_17_ClassicAlgPolicyER16CooComparatorRowP8CooTupleIfEEEvT1_S7_T0_", [Callable][Weak]), ("_quick_sort", [Callable]), ("_print_f64", [Callable]), ("__Z11count_radixRNSt3__16vectorI5coo_tNS_9allocatorIS1_EEEEii", [Callable]), ("__ZNSt3__116__insertion_sortINS_17_ClassicAlgPolicyER16CooComparatorRowP8CooTupleIdEEEvT1_S7_T0_", [Callable][Weak]), ("__ZNSt3__119__merge_move_assignINS_17_ClassicAlgPolicyER21Coo3DTensorComparatorPN11Coo3DTensorIfE10Coo3DTupleES7_S7_EEvT1_S8_T2_S9_T3_T0_", [Callable][Weak]), ("__ZNSt3__16__treeINS_12__value_typeIiP9CooMatrixIdEEENS_19__map_value_compareIiS5_NS_4lessIiEELb1EEENS_9allocatorIS5_EEE5eraseENS_21__tree_const_iteratorIS5_PNS_11__tree_nodeIS5_PvEElEE", [Callable][Weak]), ("__Z10quick_sortRNSt3__16vectorI5coo_tNS_9allocatorIS1_EEEEiii", [Callable]), ("__ZNSt3__119__merge_move_assignINS_17_ClassicAlgPolicyER21Coo3DTensorComparatorPN11Coo3DTensorIdE10Coo3DTupleES7_S7_EEvT1_S8_T2_S9_T3_T0_", [Callable][Weak]), ("__ZNSt3__16vectorI6bucketNS_9allocatorIS1_EEE26__swap_out_circular_bufferERNS_14__split_bufferIS1_RS3_EE", [Callable][Weak]), ("__ZNSt3__122__merge_move_constructINS_17_ClassicAlgPolicyER16CooComparatorColP8CooTupleIfES6_EEvT1_S7_T2_S8_PNS_15iterator_traitsIS7_E10value_typeET0_", [Callable][Weak]), ("__ZNSt3__16__treeINS_12__value_typeIiP9CooMatrixIfEEENS_19__map_value_compareIiS5_NS_4lessIiEELb1EEENS_9allocatorIS5_EEE5eraseENS_21__tree_const_iteratorIS5_PNS_11__tree_nodeIS5_PvEElEE", [Callable][Weak]), ("_get_cpu_name", [Callable]), ("__ZNSt3__16__treeINS_12__value_typeIiP9CooMatrixIfEEENS_19__map_value_compareIiS5_NS_4lessIiEELb1EEENS_9allocatorIS5_EEE4findIiEENS_15__tree_iteratorIS5_PNS_11__tree_nodeIS5_PvEElEERKT_", [Callable][Weak]), ("__ZNSt3__122__merge_move_constructINS_17_ClassicAlgPolicyER16CooComparatorColP8CooTupleIdES6_EEvT1_S7_T2_S8_PNS_15iterator_traitsIS7_E10value_typeET0_", [Callable][Weak]), ("__ZNSt3__16__treeINS_12__value_typeIiP11Coo3DTensorIfEEENS_19__map_value_compareIiS5_NS_4lessIiEELb1EEENS_9allocatorIS5_EEE25__emplace_unique_key_argsIiJRKNS_21piecewise_construct_tENS_5tupleIJRKiEEENSH_IJEEEEEENS_4pairINS_15__tree_iteratorIS5_PNS_11__tree_nodeIS5_PvEElEEbEERKT_DpOT0_", [Callable][Weak]), ("__ZNSt3__124__put_character_sequenceIcNS_11char_traitsIcEEEERNS_13basic_ostreamIT_T0_EES7_PKS4_m", [Callable][Weak]), ("_vpu_count", [Callable]), ("__ZNSt3__122__merge_move_constructINS_17_ClassicAlgPolicyER16CooComparatorRowP8CooTupleIdES6_EEvT1_S7_T2_S8_PNS_15iterator_traitsIS7_E10value_typeET0_", [Callable][Weak]), ("__ZNSt3__16vectorIiNS_9allocatorIiEEE6assignIPiEENS_9enable_ifIXaasr27__is_cpp17_forward_iteratorIT_EE5valuesr16is_constructibleIiNS_15iterator_traitsIS7_E9referenceEEE5valueEvE4typeES7_S7_", [Callable][Weak]), ("__Z19printMemRefMetaDataIdNSt3__113basic_ostreamIcNS0_11char_traitsIcEEEEEvRT0_RK17DynamicMemRefTypeIT_E", [Callable][Weak]), ("__ZNSt3__16vectorIiNS_9allocatorIiEEE13__vdeallocateEv", [Callable][Weak]), ("__ZNSt3__121__insertion_sort_moveINS_17_ClassicAlgPolicyER16CooComparatorRowP8CooTupleIfEEEvT1_S7_PNS_15iterator_traitsIS7_E10value_typeET0_", [Callable][Weak]), ("_print_f32", [Callable]), ("__ZNSt3__120get_temporary_bufferI8CooTupleIfEEENS_4pairIPT_lEEl", [Callable][Weak]), ("__ZNSt3__121__insertion_sort_moveINS_17_ClassicAlgPolicyER16CooComparatorRowP8CooTupleIdEEEvT1_S7_PNS_15iterator_traitsIS7_E10value_typeET0_", [Callable][Weak]), ("__ZNSt3__16__treeINS_12__value_typeIiP9CooMatrixIdEEENS_19__map_value_compareIiS5_NS_4lessIiEELb1EEENS_9allocatorIS5_EEE13__lower_boundIiEENS_15__tree_iteratorIS5_PNS_11__tree_nodeIS5_PvEElEERKT_SI_PNS_15__tree_end_nodeIPNS_16__tree_node_baseISG_EEEE", [Callable][Weak]), ("__ZNSt3__16vectorI6bucketNS_9allocatorIS1_EEE13shrink_to_fitEv", [Callable][Weak]), ("__ZNSt3__121__insertion_sort_moveINS_17_ClassicAlgPolicyER16CooComparatorColP8CooTupleIfEEEvT1_S7_PNS_15iterator_traitsIS7_E10value_typeET0_", [Callable][Weak]), ("__ZNSt3__116__insertion_sortINS_17_ClassicAlgPolicyER16CooComparatorColP8CooTupleIfEEEvT1_S7_T0_", [Callable][Weak]), ("__ZNSt3__16__treeINS_12__value_typeIiP11Coo3DTensorIdEEENS_19__map_value_compareIiS5_NS_4lessIiEELb1EEENS_9allocatorIS5_EEE14__erase_uniqueIiEEmRKT_", [Callable][Weak]), ("__ZNSt3__16vectorIiNS_9allocatorIiEEE18__construct_at_endEm", [Callable][Weak]), ("__ZNSt3__121__insertion_sort_moveINS_17_ClassicAlgPolicyER16CooComparatorColP8CooTupleIdEEEvT1_S7_PNS_15iterator_traitsIS7_E10value_typeET0_", [Callable][Weak]), ("__ZNSt3__16__treeINS_12__value_typeIiP9CooMatrixIdEEENS_19__map_value_compareIiS5_NS_4lessIiEELb1EEENS_9allocatorIS5_EEE16__construct_nodeIJRKNS_21piecewise_construct_tENS_5tupleIJRKiEEENSH_IJEEEEEENS_10unique_ptrINS_11__tree_nodeIS5_PvEENS_22__tree_node_destructorINSA_ISP_EEEEEEDpOT_", [Callable][Weak]), ("__ZNSt3__116__insertion_sortINS_17_ClassicAlgPolicyER16CooComparatorColP8CooTupleIdEEEvT1_S7_T0_", [Callable][Weak]), ("__ZNSt3__122__merge_move_constructINS_17_ClassicAlgPolicyER16CooComparatorRowP8CooTupleIfES6_EEvT1_S7_T2_S8_PNS_15iterator_traitsIS7_E10value_typeET0_", [Callable][Weak]), ("__mlir_ciface_linalg_matmul_viewsxsxf64_viewsxsxf64_viewsxsxf64", [Callable]), ("__ZNSt3__113__stable_sortINS_17_ClassicAlgPolicyER16CooComparatorRowP8CooTupleIfEEEvT1_S7_T0_NS_15iterator_traitsIS7_E15difference_typeEPNSA_10value_typeEl", [Callable][Weak]), ("__ZNSt3__120get_temporary_bufferIN11Coo3DTensorIdE10Coo3DTupleEEENS_4pairIPT_lEEl", [Callable][Weak]), ("__ZNSt3__16__treeINS_12__value_typeIiP11Coo3DTensorIdEEENS_19__map_value_compareIiS5_NS_4lessIiEELb1EEENS_9allocatorIS5_EEE13__lower_boundIiEENS_15__tree_iteratorIS5_PNS_11__tree_nodeIS5_PvEElEERKT_SI_PNS_15__tree_end_nodeIPNS_16__tree_node_baseISG_EEEE", [Callable][Weak]), ("__ZNSt3__16__treeINS_12__value_typeIiP11Coo3DTensorIdEEENS_19__map_value_compareIiS5_NS_4lessIiEELb1EEENS_9allocatorIS5_EEE4findIiEENS_15__tree_iteratorIS5_PNS_11__tree_nodeIS5_PvEElEERKT_", [Callable][Weak]), ("__ZNSt3__120get_temporary_bufferIN11Coo3DTensorIfE10Coo3DTupleEEENS_4pairIPT_lEEl", [Callable][Weak]), ("__ZNSt3__124__buffered_inplace_mergeINS_17_ClassicAlgPolicyER16CooComparatorColP8CooTupleIdEEEvT1_S7_S7_OT0_NS_15iterator_traitsIS7_E15difference_typeESC_PNSB_10value_typeE", [Callable][Weak]), ("__Z10cometPrintIdEvRK17DynamicMemRefTypeIT_E", [Callable][Weak]), ("__ZNSt3__118__tree_left_rotateIPNS_16__tree_node_baseIPvEEEEvT_", [Callable][Weak]), ("__ZNSt3__124__buffered_inplace_mergeINS_17_ClassicAlgPolicyER16CooComparatorColP8CooTupleIfEEEvT1_S7_S7_OT0_NS_15iterator_traitsIS7_E15difference_typeESC_PNSB_10value_typeE", [Callable][Weak]), ("__ZNSt3__120get_temporary_bufferI8CooTupleIdEEENS_4pairIPT_lEEl", [Callable][Weak]), ("__ZNSt3__16__treeINS_12__value_typeIiP11Coo3DTensorIdEEENS_19__map_value_compareIiS5_NS_4lessIiEELb1EEENS_9allocatorIS5_EEE5eraseENS_21__tree_const_iteratorIS5_PNS_11__tree_nodeIS5_PvEElEE", [Callable][Weak]), ("__ZNSt3__118__stable_sort_moveINS_17_ClassicAlgPolicyER16CooComparatorColP8CooTupleIdEEEvT1_S7_T0_NS_15iterator_traitsIS7_E15difference_typeEPNSA_10value_typeE", [Callable][Weak]), ("__Z11cometMemsetIbEvR18UnrankedMemRefTypeIT_E", [Callable][Weak]), ("__ZNSt3__113__tree_removeIPNS_16__tree_node_baseIPvEEEEvT_S5_", [Callable][Weak]), ("__ZNSt3__118__stable_sort_moveINS_17_ClassicAlgPolicyER16CooComparatorColP8CooTupleIfEEEvT1_S7_T0_NS_15iterator_traitsIS7_E15difference_typeEPNSA_10value_typeE", [Callable][Weak]), ("__Z10cometPrintIxEvRK17DynamicMemRefTypeIT_E", [Callable][Weak]), ("__ZNSt3__13mapIiP11Coo3DTensorIdENS_4lessIiEENS_9allocatorINS_4pairIKiS3_EEEEEixERS8_", [Callable][Weak]), ("__ZNSt3__13mapIiP11Coo3DTensorIfENS_4lessIiEENS_9allocatorINS_4pairIKiS3_EEEEEixERS8_", [Callable][Weak]), ("_bli_cpuid_is_bulldozer", [Callable]), ("__ZNSt3__118__stable_sort_moveINS_17_ClassicAlgPolicyER16CooComparatorRowP8CooTupleIdEEEvT1_S7_T0_NS_15iterator_traitsIS7_E15difference_typeEPNSA_10value_typeE", [Callable][Weak]), ("__Z11cometMemsetIxEvR18UnrankedMemRefTypeIT_E", [Callable][Weak]), ("__ZNKSt3__16vectorI6bucketNS_9allocatorIS1_EEE8max_sizeEv", [Callable][Weak]), ("__ZNSt3__121__insertion_sort_moveINS_17_ClassicAlgPolicyER21Coo3DTensorComparatorPN11Coo3DTensorIfE10Coo3DTupleEEEvT1_S8_PNS_15iterator_traitsIS8_E10value_typeET0_", [Callable][Weak]), ("__ZNSt3__13mapIiP9CooMatrixIdENS_4lessIiEENS_9allocatorINS_4pairIKiS3_EEEEEixERS8_", [Callable][Weak]), ("__Z11cometMemsetIdEvR18UnrankedMemRefTypeIT_E", [Callable][Weak]), ("__ZNSt3__111__tree_nextIPNS_16__tree_node_baseIPvEEEET_S5_", [Callable][Weak]), ("__ZNSt3__16__treeINS_12__value_typeIiP9CooMatrixIfEEENS_19__map_value_compareIiS5_NS_4lessIiEELb1EEENS_9allocatorIS5_EEE16__insert_node_atEPNS_15__tree_end_nodeIPNS_16__tree_node_baseIPvEEEERSH_SH_", [Callable][Weak]), ("__Z14getNumNonZerosIfEiP9CooMatrixIT_Ei", [Callable][Weak]), ("__ZNSt3__16__treeINS_12__value_typeIiP11Coo3DTensorIfEEENS_19__map_value_compareIiS5_NS_4lessIiEELb1EEENS_9allocatorIS5_EEE4findIiEENS_15__tree_iteratorIS5_PNS_11__tree_nodeIS5_PvEElEERKT_", [Callable][Weak]), ("__ZNSt3__16vectorIiNS_9allocatorIiEEE13__move_assignERS3_NS_17integral_constantIbLb1EEE", [Callable][Weak]), ("__Z9partitionRNSt3__16vectorI5coo_tNS_9allocatorIS1_EEEEiii", [Callable]), ("__Z14getNumNonZerosIdEiP9CooMatrixIT_Ei", [Callable][Weak]), ("__ZNSt3__13mapIiP9CooMatrixIfENS_4lessIiEENS_9allocatorINS_4pairIKiS3_EEEEEixERS8_", [Callable][Weak]), ("__ZNSt3__16__treeINS_12__value_typeIiP11Coo3DTensorIfEEENS_19__map_value_compareIiS5_NS_4lessIiEELb1EEENS_9allocatorIS5_EEE5eraseENS_21__tree_const_iteratorIS5_PNS_11__tree_nodeIS5_PvEElEE", [Callable][Weak]), ("__Z19read_input_sizes_2DIfEviiiiiiPvi", [Callable][Weak]), ("__Z13read_input_3DIdEviiiiiPviS0_iS0_iS0_iS0_iS0_iS0_i", [Callable][Weak]), ("__ZNSt3__16__treeINS_12__value_typeIiP9CooMatrixIdEEENS_19__map_value_compareIiS5_NS_4lessIiEELb1EEENS_9allocatorIS5_EEE4findIiEENS_15__tree_iteratorIS5_PNS_11__tree_nodeIS5_PvEElEERKT_", [Callable][Weak]), ("__ZNSt3__122__merge_move_constructINS_17_ClassicAlgPolicyER21Coo3DTensorComparatorPN11Coo3DTensorIdE10Coo3DTupleES7_EEvT1_S8_T2_S9_PNS_15iterator_traitsIS8_E10value_typeET0_", [Callable][Weak]), ("__Z19read_input_sizes_2DIdEviiiiiiPvi", [Callable][Weak]), ("__ZNSt3__118__stable_sort_moveINS_17_ClassicAlgPolicyER16CooComparatorRowP8CooTupleIfEEEvT1_S7_T0_NS_15iterator_traitsIS7_E15difference_typeEPNSA_10value_typeE", [Callable][Weak]), ("__Z16cometPrintMemRefIdEvR18UnrankedMemRefTypeIT_E", [Callable][Weak]), ("__ZNSt3__122__merge_move_constructINS_17_ClassicAlgPolicyER21Coo3DTensorComparatorPN11Coo3DTensorIfE10Coo3DTupleES7_EEvT1_S8_T2_S9_PNS_15iterator_traitsIS8_E10value_typeET0_", [Callable][Weak]), ("__Z19read_input_sizes_3DIfEviiiiiPvi", [Callable][Weak]), ("__ZNSt3__120__half_inplace_mergeINS_17_ClassicAlgPolicyER21Coo3DTensorComparatorPN11Coo3DTensorIdE10Coo3DTupleES7_S7_S7_S7_EEvT1_T2_T3_T4_T5_OT0_", [Callable][Weak]), ("__Z19read_input_sizes_3DIdEviiiiiPvi", [Callable][Weak]), ("__Z13read_input_2DIdEviiiiiiPviS0_iS0_iS0_iS0_iS0_iS0_iS0_iS0_i", [Callable][Weak]), ("__ZNKSt3__16__treeINS_12__value_typeIiP11Coo3DTensorIfEEENS_19__map_value_compareIiS5_NS_4lessIiEELb1EEENS_9allocatorIS5_EEE14__count_uniqueIiEEmRKT_", [Callable][Weak]), ("__Z20sort_compare_coord_05coo_tS_", [Callable]), ("__Z12transpose_2DIfEviiiPviS0_iS0_iS0_iS0_iiiS0_iS0_iS0_iS0_iS0_iS0_", [Callable][Weak]), ("__Z19sort_compare_coords5coo_tS_", [Callable]), ("__ZNSt3__115__inplace_mergeINS_17_ClassicAlgPolicyER21Coo3DTensorComparatorPN11Coo3DTensorIfE10Coo3DTupleEEEvT1_S8_S8_OT0_NS_15iterator_traitsIS8_E15difference_typeESD_PNSC_10value_typeEl", [Callable][Weak]), ("__ZNSt3__16vectorIiNS_9allocatorIiEEE26__swap_out_circular_bufferERNS_14__split_bufferIiRS2_EE", [Callable][Weak]), ("__Z20sort_compare_coord_25coo_tS_", [Callable]), ("__ZNKSt3__16__treeINS_12__value_typeIiP9CooMatrixIdEEENS_19__map_value_compareIiS5_NS_4lessIiEELb1EEENS_9allocatorIS5_EEE14__count_uniqueIiEEmRKT_", [Callable][Weak]), ("__ZNSt3__118__stable_sort_moveINS_17_ClassicAlgPolicyER21Coo3DTensorComparatorPN11Coo3DTensorIdE10Coo3DTupleEEEvT1_S8_T0_NS_15iterator_traitsIS8_E15difference_typeEPNSB_10value_typeE", [Callable][Weak]), ("__Z14transpose_sortiRNSt3__16vectorI5coo_tNS_9allocatorIS1_EEEEiii", [Callable]), ("__Z20sort_compare_coord_15coo_tS_", [Callable]), ("__ZNSt3__16__treeINS_12__value_typeIiP9CooMatrixIfEEENS_19__map_value_compareIiS5_NS_4lessIiEELb1EEENS_9allocatorIS5_EEE25__emplace_unique_key_argsIiJRKNS_21piecewise_construct_tENS_5tupleIJRKiEEENSH_IJEEEEEENS_4pairINS_15__tree_iteratorIS5_PNS_11__tree_nodeIS5_PvEElEEbEERKT_DpOT0_", [Callable][Weak]), ("__Z9printDataIxEvRNSt3__113basic_ostreamIcNS0_11char_traitsIcEEEEPT_xxxPKxS9_", [Callable][Weak]), ("__Z8RTmemsetIbEvRK17DynamicMemRefTypeIT_E", [Callable][Weak]), ("__Z23dgemm_generic_noopt_mxnxxxPdS_S_S_S_xx", [Callable]), ("__Z9printDataIdEvRNSt3__113basic_ostreamIcNS0_11char_traitsIcEEEEPT_xxxPKxS9_", [Callable][Weak]), ("__ZNSt3__118__stable_sort_moveINS_17_ClassicAlgPolicyER21Coo3DTensorComparatorPN11Coo3DTensorIfE10Coo3DTupleEEEvT1_S8_T0_NS_15iterator_traitsIS8_E15difference_typeEPNSB_10value_typeE", [Callable][Weak]), ("_bli_arch_set_logging", [Callable]), ("__Z8RTmemsetIxEvRK17DynamicMemRefTypeIT_E", [Callable][Weak]), ("__ZNSt3__119__tree_right_rotateIPNS_16__tree_node_baseIPvEEEEvT_", [Callable][Weak]), ("_bli_arch_set_id_once", [Callable]), ("__Z8RTmemsetIdEvRK17DynamicMemRefTypeIT_E", [Callable][Weak]), ("__ZNKSt3__16__treeINS_12__value_typeIiP9CooMatrixIfEEENS_19__map_value_compareIiS5_NS_4lessIiEELb1EEENS_9allocatorIS5_EEE14__count_uniqueIiEEmRKT_", [Callable][Weak]), ("__ZNSt3__113__stable_sortINS_17_ClassicAlgPolicyER16CooComparatorColP8CooTupleIdEEEvT1_S7_T0_NS_15iterator_traitsIS7_E15difference_typeEPNSA_10value_typeEl", [Callable][Weak]), ("__mlir_ciface_comet_print_memref_f64", [Callable]), ("__ZNSt3__124__buffered_inplace_mergeINS_17_ClassicAlgPolicyER16CooComparatorRowP8CooTupleIdEEEvT1_S7_S7_OT0_NS_15iterator_traitsIS7_E15difference_typeESC_PNSB_10value_typeE", [Callable][Weak]), ("__ZNSt3__16__sortIRPFb5coo_tS1_EPS1_EEvT0_S6_T_", [Callable][Weak]), ("_bli_arch_string", [Callable]), ("_bli_cgemm_haswell_asm_3x8", [Callable]), ("__ZNSt3__124__buffered_inplace_mergeINS_17_ClassicAlgPolicyER16CooComparatorRowP8CooTupleIfEEEvT1_S7_S7_OT0_NS_15iterator_traitsIS7_E15difference_typeESC_PNSB_10value_typeE", [Callable][Weak]), ("_getTime", [Callable]), ("__ZNSt3__120__half_inplace_mergeINS_17_ClassicAlgPolicyENS_8__invertIR21Coo3DTensorComparatorEENS_16reverse_iteratorIPN11Coo3DTensorIdE10Coo3DTupleEEESB_SB_SB_SB_EEvT1_T2_T3_T4_T5_OT0_", [Callable][Weak]), ("__Z13read_input_2DIfEviiiiiiPviS0_iS0_iS0_iS0_iS0_iS0_iS0_iS0_i", [Callable][Weak]), ("__mlir_ciface_comet_print_memref_i64", [Callable]), ("__Z10count_sortRNSt3__16vectorI5coo_tNS_9allocatorIS1_EEEEii", [Callable]), ("_print_i32", [Callable]), ("__ZNSt3__120__half_inplace_mergeINS_17_ClassicAlgPolicyENS_8__invertIR21Coo3DTensorComparatorEENS_16reverse_iteratorIPN11Coo3DTensorIfE10Coo3DTupleEEESB_SB_SB_SB_EEvT1_T2_T3_T4_T5_OT0_", [Callable][Weak]), ("_bli_arch_log", [Callable]), ("__ZNSt3__113__stable_sortINS_17_ClassicAlgPolicyER16CooComparatorColP8CooTupleIfEEEvT1_S7_T0_NS_15iterator_traitsIS7_E15difference_typeEPNSA_10value_typeEl", [Callable][Weak]), ("__Z12transpose_2DIdEviiiPviS0_iS0_iS0_iS0_iiiS0_iS0_iS0_iS0_iS0_iS0_", [Callable][Weak]), ("__Z11count_quickRNSt3__16vectorI5coo_tNS_9allocatorIS1_EEEEii", [Callable]), ("__ZNSt3__113__stable_sortINS_17_ClassicAlgPolicyER16CooComparatorRowP8CooTupleIdEEEvT1_S7_T0_NS_15iterator_traitsIS7_E15difference_typeEPNSA_10value_typeEl", [Callable][Weak]), ("_bli_cpuid_is_haswell", [Callable]), ("__ZNSt3__115__inplace_mergeINS_17_ClassicAlgPolicyER16CooComparatorColP8CooTupleIfEEEvT1_S7_S7_OT0_NS_15iterator_traitsIS7_E15difference_typeESC_PNSB_10value_typeEl", [Callable][Weak]), ("_bli_cpuid_is_excavator", [Callable]), ("__ZNSt3__16__treeINS_12__value_typeIiP11Coo3DTensorIdEEENS_19__map_value_compareIiS5_NS_4lessIiEELb1EEENS_9allocatorIS5_EEE12__find_equalIiEERPNS_16__tree_node_baseIPvEERPNS_15__tree_end_nodeISH_EERKT_", [Callable][Weak]), ("_bli_cpuid_is_piledriver", [Callable]), ("_bli_cpuid_is_knl", [Callable]), ("_bli_cpuid_is_penryn", [Callable]), ("__ZNSt3__115__inplace_mergeINS_17_ClassicAlgPolicyER16CooComparatorRowP8CooTupleIdEEEvT1_S7_S7_OT0_NS_15iterator_traitsIS7_E15difference_typeESC_PNSB_10value_typeEl", [Callable][Weak]), ("_bli_cpuid_is_skx", [Callable]), ("_bli_cpuid_is_steamroller", [Callable]), ("_bli_cpuid_is_sandybridge", [Callable]), ("_bli_cpuid_is_zen2", [Callable]), ("__ZNSt3__113__stable_sortINS_17_ClassicAlgPolicyER21Coo3DTensorComparatorPN11Coo3DTensorIdE10Coo3DTupleEEEvT1_S8_T0_NS_15iterator_traitsIS8_E15difference_typeEPNSB_10value_typeEl", [Callable][Weak]), ("__ZNSt3__16__treeINS_12__value_typeIiP11Coo3DTensorIdEEENS_19__map_value_compareIiS5_NS_4lessIiEELb1EEENS_9allocatorIS5_EEE16__insert_node_atEPNS_15__tree_end_nodeIPNS_16__tree_node_baseIPvEEEERSH_SH_", [Callable][Weak]), ("__ZNKSt3__16vectorIiNS_9allocatorIiEEE8max_sizeEv", [Callable][Weak]), ("__ZNSt3__115__inplace_mergeINS_17_ClassicAlgPolicyER16CooComparatorRowP8CooTupleIfEEEvT1_S7_S7_OT0_NS_15iterator_traitsIS7_E15difference_typeESC_PNSB_10value_typeEl", [Callable][Weak]), ("_bli_cpuid_is_zen", [Callable]), ("_bli_arch_query_id", [Callable]), ("_bli_arch_get_logging", [Callable]), ("_bli_arch_set_id", [Callable]), ("__mlir_ciface_comet_memset_i1", [Callable]), ("__ZNSt3__113__stable_sortINS_17_ClassicAlgPolicyER21Coo3DTensorComparatorPN11Coo3DTensorIfE10Coo3DTupleEEEvT1_S8_T0_NS_15iterator_traitsIS8_E15difference_typeEPNSB_10value_typeEl", [Callable][Weak]), ("__ZNSt3__124__buffered_inplace_mergeINS_17_ClassicAlgPolicyER21Coo3DTensorComparatorPN11Coo3DTensorIdE10Coo3DTupleEEEvT1_S8_S8_OT0_NS_15iterator_traitsIS8_E15difference_typeESD_PNSC_10value_typeE", [Callable][Weak]), ("__mlir_ciface_comet_memset_i64", [Callable]), ("__Z10qsort_compPKvS0_", [Callable]), ("__mlir_ciface_comet_memset_f64", [Callable]), ("__ZNSt3__115__inplace_mergeINS_17_ClassicAlgPolicyER21Coo3DTensorComparatorPN11Coo3DTensorIdE10Coo3DTupleEEEvT1_S8_S8_OT0_NS_15iterator_traitsIS8_E15difference_typeESD_PNSC_10value_typeEl", [Callable][Weak]), ("__Z19getMatrixReadOptioni", [Callable]), ("__Z4swapP5coo_tS0_", [Callable]), ("__ZNSt3__115__inplace_mergeINS_17_ClassicAlgPolicyER16CooComparatorColP8CooTupleIdEEEvT1_S7_S7_OT0_NS_15iterator_traitsIS7_E15difference_typeESC_PNSB_10value_typeEl", [Callable][Weak]), ("__ZNKSt3__16__treeINS_12__value_typeIiP11Coo3DTensorIdEEENS_19__map_value_compareIiS5_NS_4lessIiEELb1EEENS_9allocatorIS5_EEE14__count_uniqueIiEEmRKT_", [Callable][Weak]), ("__Z20qsort_compare_coordsPKvS0_", [Callable]), ("__Z16cometPrintMemRefIxEvR18UnrankedMemRefTypeIT_E", [Callable][Weak]), ("__Z11getSortTypeRi", [Callable]), ("__ZNSt3__124__buffered_inplace_mergeINS_17_ClassicAlgPolicyER21Coo3DTensorComparatorPN11Coo3DTensorIfE10Coo3DTupleEEEvT1_S8_S8_OT0_NS_15iterator_traitsIS8_E15difference_typeESD_PNSC_10value_typeE", [Callable][Weak]), ("_read_input_2D_f64", [Callable]), ("__ZNSt3__16__treeINS_12__value_typeIiP9CooMatrixIdEEENS_19__map_value_compareIiS5_NS_4lessIiEELb1EEENS_9allocatorIS5_EEE12__find_equalIiEERPNS_16__tree_node_baseIPvEERPNS_15__tree_end_nodeISH_EERKT_", [Callable][Weak]), ("__ZNSt3__120__half_inplace_mergeINS_17_ClassicAlgPolicyENS_8__invertIR16CooComparatorRowEENS_16reverse_iteratorIP8CooTupleIdEEESA_SA_SA_SA_EEvT1_T2_T3_T4_T5_OT0_", [Callable][Weak]), ("_read_input_2D_f32", [Callable]), ("_printElapsedTime", [Callable]), ("_read_input_3D_f64", [Callable]), ("_read_input_3D_f32", [Callable]), ("__ZNSt3__120__half_inplace_mergeINS_17_ClassicAlgPolicyENS_8__invertIR16CooComparatorRowEENS_16reverse_iteratorIP8CooTupleIfEEESA_SA_SA_SA_EEvT1_T2_T3_T4_T5_OT0_", [Callable][Weak]), ("_read_input_sizes_3D_f32", [Callable]), ("__ZNSt3__16__treeINS_12__value_typeIiP9CooMatrixIdEEENS_19__map_value_compareIiS5_NS_4lessIiEELb1EEENS_9allocatorIS5_EEE16__insert_node_atEPNS_15__tree_end_nodeIPNS_16__tree_node_baseIPvEEEERSH_SH_", [Callable][Weak]), ("_read_input_sizes_2D_f64", [Callable]), ("_read_input_sizes_2D_f32", [Callable]), ("_transpose_2D_f64", [Callable]), ("__Z12transpose_3DIdEviiiiiiPviS0_iS0_iS0_iS0_iS0_iS0_iiiiS0_iS0_iS0_iS0_iS0_iS0_iS0_iS0_", [Callable][Weak]), ("__ZNSt3__121__insertion_sort_moveINS_17_ClassicAlgPolicyER21Coo3DTensorComparatorPN11Coo3DTensorIdE10Coo3DTupleEEEvT1_S8_PNS_15iterator_traitsIS8_E10value_typeET0_", [Callable][Weak]), ("_transpose_2D_f32", [Callable]), ("__ZNSt3__16__treeINS_12__value_typeIiP9CooMatrixIfEEENS_19__map_value_compareIiS5_NS_4lessIiEELb1EEENS_9allocatorIS5_EEE12__find_equalIiEERPNS_16__tree_node_baseIPvEERPNS_15__tree_end_nodeISH_EERKT_", [Callable][Weak]), ("_read_input_sizes_3D_f64", [Callable]), ("_bli_cpuid_query_id", [Callable]), ("__Z12transpose_3DIfEviiiiiiPviS0_iS0_iS0_iS0_iS0_iS0_iiiiS0_iS0_iS0_iS0_iS0_iS0_iS0_iS0_", [Callable][Weak]), ("__ZNSt3__16__treeINS_12__value_typeIiP11Coo3DTensorIfEEENS_19__map_value_compareIiS5_NS_4lessIiEELb1EEENS_9allocatorIS5_EEE12__find_equalIiEERPNS_16__tree_node_baseIPvEERPNS_15__tree_end_nodeISH_EERKT_", [Callable][Weak]), ("_bli_cpuid_query", [Callable]), ("_bli_cpuid_is_zen3", [Callable]), ("_bli_zgemm_haswell_asm_3x4", [Callable]), ("__Z16generate_bucketsRNSt3__16vectorI5coo_tNS_9allocatorIS1_EEEEiRNS0_I6bucketNS2_IS6_EEEE", [Callable]), ("__ZNSt3__120__half_inplace_mergeINS_17_ClassicAlgPolicyENS_8__invertIR16CooComparatorColEENS_16reverse_iteratorIP8CooTupleIdEEESA_SA_SA_SA_EEvT1_T2_T3_T4_T5_OT0_", [Callable][Weak]), ("_bli_sgemm_haswell_asm_6x16", [Callable]), ("_bli_dgemm_haswell_asm_6x8", [Callable]), ("__ZNSt3__114__partial_sortINS_17_ClassicAlgPolicyERPFb5coo_tS2_EPS2_S6_EET1_S7_S7_T2_RT0_", [Callable][Weak]), ("__ZNSt3__118__insertion_sort_3INS_17_ClassicAlgPolicyERPFb5coo_tS2_EPS2_EEvT1_S7_T0_", [Callable][Weak]), ("_comet_memset_f64", [Callable]), ("__ZNSt3__16__treeINS_12__value_typeIiP11Coo3DTensorIfEEENS_19__map_value_compareIiS5_NS_4lessIiEELb1EEENS_9allocatorIS5_EEE16__insert_node_atEPNS_15__tree_end_nodeIPNS_16__tree_node_baseIPvEEEERSH_SH_", [Callable][Weak]), ("__Z13read_input_3DIfEviiiiiPviS0_iS0_iS0_iS0_iS0_iS0_i", [Callable][Weak]), ("_comet_print_memref_i64", [Callable]), ("__ZNSt3__120__half_inplace_mergeINS_17_ClassicAlgPolicyENS_8__invertIR16CooComparatorColEENS_16reverse_iteratorIP8CooTupleIfEEESA_SA_SA_SA_EEvT1_T2_T3_T4_T5_OT0_", [Callable][Weak]), ("__ZNSt3__119__partial_sort_implINS_17_ClassicAlgPolicyERPFb5coo_tS2_EPS2_S6_EET1_S7_S7_T2_OT0_", [Callable][Weak]), ("__ZNKSt3__16vectorI5coo_tNS_9allocatorIS1_EEE8max_sizeEv", [Callable][Weak]), ("_comet_memset_i64", [Callable]) }
Defining MU /Users/flyn908/Projects/COMET/llvm/build/lib/libmlir_runner_utils.dylib for /Users/flyn908/Projects/COMET/llvm/build/lib/libmlir_runner_utils.dylib (tracker: default)  { ("__mlir_ciface_nanoTime", [Callable]), ("__ZN4impl12verifyMemRefIiEExRK17DynamicMemRefTypeIT_ES5_", [Callable][Weak]), ("__ZN4impl17MemRefDataPrinterIyE9printLastERNSt3__113basic_ostreamIcNS2_11char_traitsIcEEEEPyxxxPKxSA_", [Callable][Weak]), ("__mlir_ciface_printMemref0dF32", [Callable]), ("__mlir_ciface_printMemref1dC64", [Callable]), ("__ZN4impl12verifyMemRefIiEExR18UnrankedMemRefTypeIT_ES4_", [Callable][Weak]), ("__mlir_ciface_printMemref1dF32", [Callable]), ("__ZN4impl17VectorDataPrinterIfLi4EJEE5printERNSt3__113basic_ostreamIcNS2_11char_traitsIcEEEERK6VectorIfLi4EJEE", [Callable][Weak]), ("__ZN4impl12verifyMemRefIfEExRK17DynamicMemRefTypeIT_ES5_", [Callable][Weak]), ("__mlir_ciface_printMemref1dC32", [Callable]), ("__mlir_ciface_printMemrefF32", [Callable]), ("__mlir_ciface_printMemrefF64", [Callable]), ("__ZN4impl17MemRefDataPrinterIyE10printFirstERNSt3__113basic_ostreamIcNS2_11char_traitsIcEEEEPyxxxPKxSA_", [Callable][Weak]), ("__ZN4impl18MemRefDataVerifierIdE25verifyRelErrorSmallerThanEddd", [Callable][Weak]), ("__mlir_ciface_printMemrefI32", [Callable]), ("__ZN4impl12verifyMemRefIyEExRK17DynamicMemRefTypeIT_ES5_", [Callable][Weak]), ("__ZN4impl17MemRefDataPrinterIyE5printERNSt3__113basic_ostreamIcNS2_11char_traitsIcEEEEPyxxxPKxSA_", [Callable][Weak]), ("__mlir_ciface_printMemrefC32", [Callable]), ("__mlir_ciface_printMemrefC64", [Callable]), ("__mlir_ciface_printMemref1dF64", [Callable]), ("__ZN4impl12verifyMemRefIyEExR18UnrankedMemRefTypeIT_ES4_", [Callable][Weak]), ("__Z19printMemRefMetaDataINSt3__17complexIdEENS0_13basic_ostreamIcNS0_11char_traitsIcEEEEEvRT0_RK17DynamicMemRefTypeIT_E", [Callable][Weak]), ("__ZN4impl17MemRefDataPrinterIxE5printERNSt3__113basic_ostreamIcNS2_11char_traitsIcEEEEPxxxxPKxSA_", [Callable][Weak]), ("__mlir_ciface_printMemref4dF32", [Callable]), ("_printMemrefI64", [Callable]), ("__mlir_ciface_printMemref3dF32", [Callable]), ("__Z19printMemRefMetaDataI6VectorIfLi4EJLi4EEENSt3__113basic_ostreamIcNS2_11char_traitsIcEEEEEvRT0_RK17DynamicMemRefTypeIT_E", [Callable][Weak]), ("__ZN4impl17MemRefDataPrinterIxE9printLastERNSt3__113basic_ostreamIcNS2_11char_traitsIcEEEEPxxxxPKxSA_", [Callable][Weak]), ("__ZN4impl18MemRefDataVerifierIfE25verifyRelErrorSmallerThanEfff", [Callable][Weak]), ("__ZN4impl17MemRefDataPrinterIiE9printLastERNSt3__113basic_ostreamIcNS2_11char_traitsIcEEEEPixxxPKxSA_", [Callable][Weak]), ("__mlir_ciface_printMemref1dI64", [Callable]), ("__mlir_ciface_printMemref1dI32", [Callable]), ("__Z19printMemRefMetaDataINSt3__17complexIfEENS0_13basic_ostreamIcNS0_11char_traitsIcEEEEEvRT0_RK17DynamicMemRefTypeIT_E", [Callable][Weak]), ("__ZNSt3__1lsIdcNS_11char_traitsIcEEEERNS_13basic_ostreamIT0_T1_EES7_RKNS_7complexIT_EE", [Callable][Weak]), ("__mlir_ciface_printMemref2dF32", [Callable]), ("__ZN4impl17MemRefDataPrinterIxE10printFirstERNSt3__113basic_ostreamIcNS2_11char_traitsIcEEEEPxxxxPKxSA_", [Callable][Weak]), ("__mlir_ciface_printMemref1dInd", [Callable]), ("_printMemrefC32", [Callable]), ("__mlir_ciface_printMemref1dI8", [Callable]), ("_verifyMemRefInd", [Callable]), ("__ZN4impl17MemRefDataPrinterIiE10printFirstERNSt3__113basic_ostreamIcNS2_11char_traitsIcEEEEPixxxPKxSA_", [Callable][Weak]), ("__ZNSt3__1lsIfcNS_11char_traitsIcEEEERNS_13basic_ostreamIT0_T1_EES7_RKNS_7complexIT_EE", [Callable][Weak]), ("_verifyMemRefI32", [Callable]), ("__ZN4impl11printMemRefIiEEvRK17DynamicMemRefTypeIT_E", [Callable][Weak]), ("__ZN4impl17MemRefDataPrinterIiE5printERNSt3__113basic_ostreamIcNS2_11char_traitsIcEEEEPixxxPKxSA_", [Callable][Weak]), ("__ZN4impl11printMemRefIiEEvR18UnrankedMemRefTypeIT_E", [Callable][Weak]), ("_verifyMemRefF32", [Callable]), ("__ZN4impl11printMemRefIfLi4EEEvR17StridedMemRefTypeIT_XT0_EE", [Callable][Weak]), ("_verifyMemRefF64", [Callable]), ("__ZN4impl17MemRefDataPrinterIfE5printERNSt3__113basic_ostreamIcNS2_11char_traitsIcEEEEPfxxxPKxSA_", [Callable][Weak]), ("__ZN4impl11printMemRefIxLi1EEEvR17StridedMemRefTypeIT_XT0_EE", [Callable][Weak]), ("__ZN4impl11printMemRefIxEEvRK17DynamicMemRefTypeIT_E", [Callable][Weak]), ("__ZN4impl11printMemRefIxEEvR18UnrankedMemRefTypeIT_E", [Callable][Weak]), ("__ZN4impl17MemRefDataPrinterIfE9printLastERNSt3__113basic_ostreamIcNS2_11char_traitsIcEEEEPfxxxPKxSA_", [Callable][Weak]), ("__ZN4impl11printMemRefIiLi1EEEvR17StridedMemRefTypeIT_XT0_EE", [Callable][Weak]), ("__ZN4impl17MemRefDataPrinterIdE9printLastERNSt3__113basic_ostreamIcNS2_11char_traitsIcEEEEPdxxxPKxSA_", [Callable][Weak]), ("__mlir_ciface_verifyMemRefC32", [Callable]), ("__ZN4impl11printMemRefIyLi1EEEvR17StridedMemRefTypeIT_XT0_EE", [Callable][Weak]), ("__ZN4impl11printMemRefIyEEvRK17DynamicMemRefTypeIT_E", [Callable][Weak]), ("__mlir_ciface_verifyMemRefC64", [Callable]), ("__ZN4impl17MemRefDataPrinterIfE10printFirstERNSt3__113basic_ostreamIcNS2_11char_traitsIcEEEEPfxxxPKxSA_", [Callable][Weak]), ("__ZN4impl11printMemRefIyEEvR18UnrankedMemRefTypeIT_E", [Callable][Weak]), ("__mlir_ciface_printMemrefI64", [Callable]), ("__mlir_ciface_printMemrefInd", [Callable]), ("__mlir_ciface_printMemrefI8", [Callable]), ("__ZN4impl12verifyMemRefIfEExR18UnrankedMemRefTypeIT_ES4_", [Callable][Weak]), ("__ZN4impl17MemRefDataPrinterIdE10printFirstERNSt3__113basic_ostreamIcNS2_11char_traitsIcEEEEPdxxxPKxSA_", [Callable][Weak]), ("__mlir_ciface_verifyMemRefInd", [Callable]), ("__ZN4impl12verifyMemRefIdEExRK17DynamicMemRefTypeIT_ES5_", [Callable][Weak]), ("_verifyMemRefC32", [Callable]), ("__ZN4impl17MemRefDataPrinterIdE5printERNSt3__113basic_ostreamIcNS2_11char_traitsIcEEEEPdxxxPKxSA_", [Callable][Weak]), ("__mlir_ciface_verifyMemRefF64", [Callable]), ("__mlir_ciface_verifyMemRefF32", [Callable]), ("__ZN4impl18MemRefDataVerifierIyE10verifyElemEyy", [Callable][Weak]), ("__mlir_ciface_verifyMemRefI32", [Callable]), ("__ZN4impl12verifyMemRefIdEExR18UnrankedMemRefTypeIT_ES4_", [Callable][Weak]), ("__ZN4impl18MemRefDataVerifierIiE10verifyElemEii", [Callable][Weak]), ("__ZN4impl11printMemRefIaEEvRK17DynamicMemRefTypeIT_E", [Callable][Weak]), ("__ZN4impl17VectorDataPrinterIfLi4EJLi4EEE5printERNSt3__113basic_ostreamIcNS2_11char_traitsIcEEEERK6VectorIfLi4EJLi4EEE", [Callable][Weak]), ("__mlir_ciface_printMemrefShapeF32", [Callable]), ("__mlir_ciface_printMemrefShapeF64", [Callable]), ("__ZN4impl11printMemRefINSt3__17complexIdEEEEvR18UnrankedMemRefTypeIT_E", [Callable][Weak]), ("__ZN4impl11printMemRefIaLi1EEEvR17StridedMemRefTypeIT_XT0_EE", [Callable][Weak]), ("__ZN4impl17MemRefDataPrinterIaE10printFirstERNSt3__113basic_ostreamIcNS2_11char_traitsIcEEEEPaxxxPKxSA_", [Callable][Weak]), ("__mlir_ciface_printMemrefShapeC32", [Callable]), ("__ZN4impl11printMemRefI6VectorIfLi4EJLi4EEEEEvRK17DynamicMemRefTypeIT_E", [Callable][Weak]), ("__ZN4impl18MemRefDataVerifierINSt3__17complexIdEEE6verifyERNS1_13basic_ostreamIcNS1_11char_traitsIcEEEEPS3_SA_xxPKxSC_Rx", [Callable][Weak]), ("__mlir_ciface_printMemrefShapeC64", [Callable]), ("__Z19printMemRefMetaDataIyNSt3__113basic_ostreamIcNS0_11char_traitsIcEEEEEvRT0_RK17DynamicMemRefTypeIT_E", [Callable][Weak]), ("__ZN4impl11printMemRefI6VectorIfLi4EJLi4EEELi2EEEvR17StridedMemRefTypeIT_XT0_EE", [Callable][Weak]), ("__ZN4impl11printMemRefINSt3__17complexIdEELi1EEEvR17StridedMemRefTypeIT_XT0_EE", [Callable][Weak]), ("__ZN4impl11printMemRefIaEEvR18UnrankedMemRefTypeIT_E", [Callable][Weak]), ("__ZN4impl11printMemRefIdEEvRK17DynamicMemRefTypeIT_E", [Callable][Weak]), ("__ZN4impl11printMemRefIdLi1EEEvR17StridedMemRefTypeIT_XT0_EE", [Callable][Weak]), ("__ZN4impl17MemRefDataPrinterINSt3__17complexIfEEE5printERNS1_13basic_ostreamIcNS1_11char_traitsIcEEEEPS3_xxxPKxSC_", [Callable][Weak]), ("__mlir_ciface_printMemrefShapeI8", [Callable]), ("__ZN4impl11printMemRefINSt3__17complexIfEEEEvR18UnrankedMemRefTypeIT_E", [Callable][Weak]), ("__ZN4impl17MemRefDataPrinterIaE9printLastERNSt3__113basic_ostreamIcNS2_11char_traitsIcEEEEPaxxxPKxSA_", [Callable][Weak]), ("__mlir_ciface_printMemrefShapeI32", [Callable]), ("__mlir_ciface_printMemrefShapeInd", [Callable]), ("__ZN4impl11printMemRefINSt3__17complexIdEEEEvRK17DynamicMemRefTypeIT_E", [Callable][Weak]), ("__ZN4impl17MemRefDataPrinterINSt3__17complexIfEEE9printLastERNS1_13basic_ostreamIcNS1_11char_traitsIcEEEEPS3_xxxPKxSC_", [Callable][Weak]), ("__mlir_ciface_printMemrefShapeI64", [Callable]), ("__ZN4impl11printMemRefIdEEvR18UnrankedMemRefTypeIT_E", [Callable][Weak]), ("__ZN4impl17MemRefDataPrinterIaE5printERNSt3__113basic_ostreamIcNS2_11char_traitsIcEEEEPaxxxPKxSA_", [Callable][Weak]), ("_printCString", [Callable]), ("_printMemrefInd", [Callable]), ("__ZN4impl11printMemRefIfEEvRK17DynamicMemRefTypeIT_E", [Callable][Weak]), ("_printMemrefF32", [Callable]), ("__Z19printMemRefMetaDataIfNSt3__113basic_ostreamIcNS0_11char_traitsIcEEEEEvRT0_RK17DynamicMemRefTypeIT_E", [Callable][Weak]), ("__ZN4impl11printMemRefIfLi0EEEvR17StridedMemRefTypeIT_XT0_EE", [Callable][Weak]), ("__ZN4impl11printMemRefIfEEvR18UnrankedMemRefTypeIT_E", [Callable][Weak]), ("__mlir_ciface_printMemrefVector4x4xf32", [Callable]), ("_verifyMemRefC64", [Callable]), ("__Z19printMemRefMetaDataIaNSt3__113basic_ostreamIcNS0_11char_traitsIcEEEEEvRT0_RK17DynamicMemRefTypeIT_E", [Callable][Weak]), ("__ZNSt3__1lsINS_11char_traitsIcEEEERNS_13basic_ostreamIcT_EES6_PKc", [Callable][Weak]), ("__Z19printMemRefMetaDataIxNSt3__113basic_ostreamIcNS0_11char_traitsIcEEEEEvRT0_RK17DynamicMemRefTypeIT_E", [Callable][Weak]), ("__ZN4impl11printMemRefIfLi3EEEvR17StridedMemRefTypeIT_XT0_EE", [Callable][Weak]), ("__ZN4impl18MemRefDataVerifierINSt3__17complexIfEEE6verifyERNS1_13basic_ostreamIcNS1_11char_traitsIcEEEEPS3_SA_xxPKxSC_Rx", [Callable][Weak]), ("__ZN4impl11printMemRefIfLi1EEEvR17StridedMemRefTypeIT_XT0_EE", [Callable][Weak]), ("__ZN4impl11printMemRefIfLi2EEEvR17StridedMemRefTypeIT_XT0_EE", [Callable][Weak]), ("__Z19printMemRefMetaDataIiNSt3__113basic_ostreamIcNS0_11char_traitsIcEEEEEvRT0_RK17DynamicMemRefTypeIT_E", [Callable][Weak]), ("__ZNSt3__1lsIcNS_11char_traitsIcEENS_9allocatorIcEEEERNS_13basic_ostreamIT_T0_EES9_RKNS_12basic_stringIS6_S7_T1_EE", [Callable][Weak]), ("_printMemrefC64", [Callable]), ("__ZN4impl17MemRefDataPrinterI6VectorIfLi4EJLi4EEEE9printLastERNSt3__113basic_ostreamIcNS4_11char_traitsIcEEEEPS2_xxxPKxSC_", [Callable][Weak]), ("__ZN4impl18MemRefDataVerifierINSt3__17complexIdEEE10verifyElemES3_S3_", [Callable][Weak]), ("__ZN4impl18MemRefDataVerifierINSt3__17complexIfEEE10verifyElemES3_S3_", [Callable][Weak]), ("__ZN4impl12verifyMemRefINSt3__17complexIfEEEExRK17DynamicMemRefTypeIT_ES8_", [Callable][Weak]), ("__ZN4impl17MemRefDataPrinterINSt3__17complexIdEEE10printFirstERNS1_13basic_ostreamIcNS1_11char_traitsIcEEEEPS3_xxxPKxSC_", [Callable][Weak]), ("__ZN4impl17MemRefDataPrinterI6VectorIfLi4EJLi4EEEE10printFirstERNSt3__113basic_ostreamIcNS4_11char_traitsIcEEEEPS2_xxxPKxSC_", [Callable][Weak]), ("__ZNSt3__1lsINS_11char_traitsIcEEEERNS_13basic_ostreamIcT_EES6_c", [Callable][Weak]), ("__ZN4impllsIfLi4EJEEERNSt3__113basic_ostreamIcNS1_11char_traitsIcEEEES6_RK6VectorIT_XT0_EJXspT1_EEE", [Callable][Weak]), ("__ZN4impl17MemRefDataPrinterI6VectorIfLi4EJLi4EEEE5printERNSt3__113basic_ostreamIcNS4_11char_traitsIcEEEEPS2_xxxPKxSC_", [Callable][Weak]), ("_printMemrefF64", [Callable]), ("__ZN4impllsIfLi4EJLi4EEEERNSt3__113basic_ostreamIcNS1_11char_traitsIcEEEES6_RK6VectorIT_XT0_EJXspT1_EEE", [Callable][Weak]), ("__ZNSt3__124__put_character_sequenceIcNS_11char_traitsIcEEEERNS_13basic_ostreamIT_T0_EES7_PKS4_m", [Callable][Weak]), ("__ZNSt3__1lsINS_11char_traitsIcEEEERNS_13basic_ostreamIcT_EES6_a", [Callable][Weak]), ("__ZN4impl11printMemRefINSt3__17complexIfEELi1EEEvR17StridedMemRefTypeIT_XT0_EE", [Callable][Weak]), ("__Z19printMemRefMetaDataIdNSt3__113basic_ostreamIcNS0_11char_traitsIcEEEEEvRT0_RK17DynamicMemRefTypeIT_E", [Callable][Weak]), ("__ZN4impl18MemRefDataVerifierIiE6verifyERNSt3__113basic_ostreamIcNS2_11char_traitsIcEEEEPiS8_xxPKxSA_Rx", [Callable][Weak]), ("__ZN4impl17MemRefDataPrinterINSt3__17complexIfEEE10printFirstERNS1_13basic_ostreamIcNS1_11char_traitsIcEEEEPS3_xxxPKxSC_", [Callable][Weak]), ("__ZN4impl18MemRefDataVerifierIyE6verifyERNSt3__113basic_ostreamIcNS2_11char_traitsIcEEEEPyS8_xxPKxSA_Rx", [Callable][Weak]), ("__ZN4impl11printMemRefINSt3__17complexIfEEEEvRK17DynamicMemRefTypeIT_E", [Callable][Weak]), ("__ZN4impl17MemRefDataPrinterINSt3__17complexIdEEE5printERNS1_13basic_ostreamIcNS1_11char_traitsIcEEEEPS3_xxxPKxSC_", [Callable][Weak]), ("__ZN4impl18MemRefDataVerifierIdE6verifyERNSt3__113basic_ostreamIcNS2_11char_traitsIcEEEEPdS8_xxPKxSA_Rx", [Callable][Weak]), ("__ZN4impl12verifyMemRefINSt3__17complexIfEEEExR18UnrankedMemRefTypeIT_ES7_", [Callable][Weak]), ("_printMemrefI32", [Callable]), ("__ZN4impl12verifyMemRefINSt3__17complexIdEEEExR18UnrankedMemRefTypeIT_ES7_", [Callable][Weak]), ("__ZN4impl12verifyMemRefINSt3__17complexIdEEEExRK17DynamicMemRefTypeIT_ES8_", [Callable][Weak]), ("__ZN4impl18MemRefDataVerifierIfE6verifyERNSt3__113basic_ostreamIcNS2_11char_traitsIcEEEEPfS8_xxPKxSA_Rx", [Callable][Weak]), ("__ZN4impl17MemRefDataPrinterINSt3__17complexIdEEE9printLastERNS1_13basic_ostreamIcNS1_11char_traitsIcEEEEPS3_xxxPKxSC_", [Callable][Weak]) }
Setting up GenericLLVMIRPlatform support for LLJIT
Defining MU <Absolute Symbols> for main (tracker: 0x0, default will be used)
  { ("___lljit.cxa_atexit_helper", [Data][Hidden]), ("___lljit.platform_support_instance", [Data]) }
Defining MU <Absolute Symbols> for main (tracker: 0x0, default will be used)
  { ("___lljit.atexit_helper", [Data][Hidden]), ("___lljit.run_atexits_helper", [Data][Hidden]) }
Defining MU __standard_lib for main (tracker: default)  { ("___lljit_run_atexits", [Callable][Hidden]), ("_atexit", [Callable][Hidden]), ("___dso_handle", [Data]) }
Defining MU __standard_lib for main (tracker: default)  { ("___cxa_atexit", [Callable]) }

Features:+64bit-mode,-32bit-mode,-16bit-mode,+sse2,+xsaves,+sse2,-hreset,-avx512cd,-sha,+xsaveopt,-kl,-avxvnni,-mwaitx,-clzero,+sse4.2,+bmi,-cldemote,-widekl,-avx512f,-raoint,+xsavec,+lzcnt,-serialize,-avxvnniint8,+fsgsbase,+aes,+sse,-sse4a,-rdpru,-tbm,-avx512bf16,-rtm,+fma,-waitpkg,-amx-fp16,-avx512ifma,-avx512vp2intersect,+popcnt,-vaes,-prefetchi,+f16c,+avx2,+sahf,+xsave,-uintr,+fxsr,+sgx,-pconfig,-avx512er,-avx512fp16,-gfni,+rdseed,+bmi2,-movdir64b,-avx512vl,-pku,-xop,-avx512bw,-avx512vbmi,+prfchw,-rdpid,+sse3,+cx16,-vpclmulqdq,-avx512vbmi2,-enqcmd,-amx-bf16,+64bit,-amx-int8,-avx512pf,-ptwrite,-amx-tile,-lwp,-avx512vpopcntdq,-avx512dq,-avxneconvert,+mmx,-fma4,-avx512vnni,-avxifma,+avx,+cmov,+sse4.1,+movbe,+invpcid,+adx,-clwb,-prefetchwt1,-cmpccxadd,+ssse3,+cx8,+clflushopt,-tsxldtrk,+pclmul,+crc32,+rdrnd,-avx512bitalg,-shstk,-movdiri,-wbnoinvd
CPU:skylake
TuneCPU:skylake

Subtarget features: SSELevel 8, 3DNowLevel 1, 64bit 1
G_ADD (opcode 46): 1 type index, 0 imm indices
.. type index coverage check SKIPPED: no rules defined
.. imm index coverage check SKIPPED: no rules defined
G_SUB (opcode 47): 1 type index, 0 imm indices
.. type index coverage check SKIPPED: no rules defined
.. imm index coverage check SKIPPED: no rules defined
G_MUL (opcode 48): 1 type index, 0 imm indices
.. type index coverage check SKIPPED: no rules defined
.. imm index coverage check SKIPPED: no rules defined
G_SDIV (opcode 49): 1 type index, 0 imm indices
.. the first uncovered type index: 1, OK
.. the first uncovered imm index: 0, OK
G_UDIV (opcode 50): 1 type index, 0 imm indices
.. opcode 50 is aliased to 49
.. the first uncovered type index: 1, OK
.. the first uncovered imm index: 0, OK
G_SREM (opcode 51): 1 type index, 0 imm indices
.. opcode 51 is aliased to 49
.. the first uncovered type index: 1, OK
.. the first uncovered imm index: 0, OK
G_UREM (opcode 52): 1 type index, 0 imm indices
.. opcode 52 is aliased to 49
.. the first uncovered type index: 1, OK
.. the first uncovered imm index: 0, OK
G_SDIVREM (opcode 53): 1 type index, 0 imm indices
.. type index coverage check SKIPPED: no rules defined
.. imm index coverage check SKIPPED: no rules defined
G_UDIVREM (opcode 54): 1 type index, 0 imm indices
.. type index coverage check SKIPPED: no rules defined
.. imm index coverage check SKIPPED: no rules defined
G_AND (opcode 55): 1 type index, 0 imm indices
.. type index coverage check SKIPPED: no rules defined
.. imm index coverage check SKIPPED: no rules defined
G_OR (opcode 56): 1 type index, 0 imm indices
.. type index coverage check SKIPPED: no rules defined
.. imm index coverage check SKIPPED: no rules defined
G_XOR (opcode 57): 1 type index, 0 imm indices
.. type index coverage check SKIPPED: no rules defined
.. imm index coverage check SKIPPED: no rules defined
G_IMPLICIT_DEF (opcode 58): 1 type index, 0 imm indices
.. type index coverage check SKIPPED: no rules defined
.. imm index coverage check SKIPPED: no rules defined
G_PHI (opcode 59): 1 type index, 0 imm indices
.. type index coverage check SKIPPED: no rules defined
.. imm index coverage check SKIPPED: no rules defined
G_FRAME_INDEX (opcode 60): 1 type index, 0 imm indices
.. type index coverage check SKIPPED: no rules defined
.. imm index coverage check SKIPPED: no rules defined
G_GLOBAL_VALUE (opcode 61): 1 type index, 0 imm indices
.. type index coverage check SKIPPED: no rules defined
.. imm index coverage check SKIPPED: no rules defined
G_CONSTANT_POOL (opcode 62): 1 type index, 0 imm indices
.. type index coverage check SKIPPED: no rules defined
.. imm index coverage check SKIPPED: no rules defined
G_EXTRACT (opcode 63): 2 type indices, 1 imm index
.. type index coverage check SKIPPED: no rules defined
.. imm index coverage check SKIPPED: no rules defined
G_UNMERGE_VALUES (opcode 64): 2 type indices, 0 imm indices
.. type index coverage check SKIPPED: no rules defined
.. imm index coverage check SKIPPED: no rules defined
G_INSERT (opcode 65): 2 type indices, 1 imm index
.. type index coverage check SKIPPED: no rules defined
.. imm index coverage check SKIPPED: no rules defined
G_MERGE_VALUES (opcode 66): 2 type indices, 0 imm indices
.. type index coverage check SKIPPED: no rules defined
.. imm index coverage check SKIPPED: no rules defined
G_BUILD_VECTOR (opcode 67): 2 type indices, 0 imm indices
.. type index coverage check SKIPPED: no rules defined
.. imm index coverage check SKIPPED: no rules defined
G_BUILD_VECTOR_TRUNC (opcode 68): 2 type indices, 0 imm indices
.. type index coverage check SKIPPED: no rules defined
.. imm index coverage check SKIPPED: no rules defined
G_CONCAT_VECTORS (opcode 69): 2 type indices, 0 imm indices
.. type index coverage check SKIPPED: no rules defined
.. imm index coverage check SKIPPED: no rules defined
G_PTRTOINT (opcode 70): 2 type indices, 0 imm indices
.. the first uncovered type index: 2, OK
.. the first uncovered imm index: 0, OK
G_INTTOPTR (opcode 71): 2 type indices, 0 imm indices
.. the first uncovered type index: 2, OK
.. the first uncovered imm index: 0, OK
G_BITCAST (opcode 72): 2 type indices, 0 imm indices
.. type index coverage check SKIPPED: no rules defined
.. imm index coverage check SKIPPED: no rules defined
G_FREEZE (opcode 73): 1 type index, 0 imm indices
.. type index coverage check SKIPPED: no rules defined
.. imm index coverage check SKIPPED: no rules defined
G_INTRINSIC_FPTRUNC_ROUND (opcode 74): 2 type indices, 0 imm indices
.. type index coverage check SKIPPED: no rules defined
.. imm index coverage check SKIPPED: no rules defined
G_INTRINSIC_TRUNC (opcode 75): 1 type index, 0 imm indices
.. type index coverage check SKIPPED: no rules defined
.. imm index coverage check SKIPPED: no rules defined
G_INTRINSIC_ROUND (opcode 76): 1 type index, 0 imm indices
.. type index coverage check SKIPPED: no rules defined
.. imm index coverage check SKIPPED: no rules defined
G_INTRINSIC_LRINT (opcode 77): 2 type indices, 0 imm indices
.. type index coverage check SKIPPED: no rules defined
.. imm index coverage check SKIPPED: no rules defined
G_INTRINSIC_ROUNDEVEN (opcode 78): 1 type index, 0 imm indices
.. type index coverage check SKIPPED: user-defined predicate detected
.. imm index coverage check SKIPPED: user-defined predicate detected
G_READCYCLECOUNTER (opcode 79): 1 type index, 0 imm indices
.. type index coverage check SKIPPED: no rules defined
.. imm index coverage check SKIPPED: no rules defined
G_LOAD (opcode 80): 2 type indices, 0 imm indices
.. type index coverage check SKIPPED: no rules defined
.. imm index coverage check SKIPPED: no rules defined
G_SEXTLOAD (opcode 81): 2 type indices, 0 imm indices
.. type index coverage check SKIPPED: no rules defined
.. imm index coverage check SKIPPED: no rules defined
G_ZEXTLOAD (opcode 82): 2 type indices, 0 imm indices
.. type index coverage check SKIPPED: no rules defined
.. imm index coverage check SKIPPED: no rules defined
G_INDEXED_LOAD (opcode 83): 3 type indices, 0 imm indices
.. type index coverage check SKIPPED: no rules defined
.. imm index coverage check SKIPPED: no rules defined
G_INDEXED_SEXTLOAD (opcode 84): 3 type indices, 0 imm indices
.. type index coverage check SKIPPED: no rules defined
.. imm index coverage check SKIPPED: no rules defined
G_INDEXED_ZEXTLOAD (opcode 85): 3 type indices, 0 imm indices
.. type index coverage check SKIPPED: no rules defined
.. imm index coverage check SKIPPED: no rules defined
G_STORE (opcode 86): 2 type indices, 0 imm indices
.. type index coverage check SKIPPED: no rules defined
.. imm index coverage check SKIPPED: no rules defined
G_INDEXED_STORE (opcode 87): 3 type indices, 0 imm indices
.. type index coverage check SKIPPED: no rules defined
.. imm index coverage check SKIPPED: no rules defined
G_ATOMIC_CMPXCHG_WITH_SUCCESS (opcode 88): 3 type indices, 0 imm indices
.. type index coverage check SKIPPED: no rules defined
.. imm index coverage check SKIPPED: no rules defined
G_ATOMIC_CMPXCHG (opcode 89): 2 type indices, 0 imm indices
.. type index coverage check SKIPPED: no rules defined
.. imm index coverage check SKIPPED: no rules defined
G_ATOMICRMW_XCHG (opcode 90): 2 type indices, 0 imm indices
.. type index coverage check SKIPPED: no rules defined
.. imm index coverage check SKIPPED: no rules defined
G_ATOMICRMW_ADD (opcode 91): 2 type indices, 0 imm indices
.. type index coverage check SKIPPED: no rules defined
.. imm index coverage check SKIPPED: no rules defined
G_ATOMICRMW_SUB (opcode 92): 2 type indices, 0 imm indices
.. type index coverage check SKIPPED: no rules defined
.. imm index coverage check SKIPPED: no rules defined
G_ATOMICRMW_AND (opcode 93): 2 type indices, 0 imm indices
.. type index coverage check SKIPPED: no rules defined
.. imm index coverage check SKIPPED: no rules defined
G_ATOMICRMW_NAND (opcode 94): 2 type indices, 0 imm indices
.. type index coverage check SKIPPED: no rules defined
.. imm index coverage check SKIPPED: no rules defined
G_ATOMICRMW_OR (opcode 95): 2 type indices, 0 imm indices
.. type index coverage check SKIPPED: no rules defined
.. imm index coverage check SKIPPED: no rules defined
G_ATOMICRMW_XOR (opcode 96): 2 type indices, 0 imm indices
.. type index coverage check SKIPPED: no rules defined
.. imm index coverage check SKIPPED: no rules defined
G_ATOMICRMW_MAX (opcode 97): 2 type indices, 0 imm indices
.. type index coverage check SKIPPED: no rules defined
.. imm index coverage check SKIPPED: no rules defined
G_ATOMICRMW_MIN (opcode 98): 2 type indices, 0 imm indices
.. type index coverage check SKIPPED: no rules defined
.. imm index coverage check SKIPPED: no rules defined
G_ATOMICRMW_UMAX (opcode 99): 2 type indices, 0 imm indices
.. type index coverage check SKIPPED: no rules defined
.. imm index coverage check SKIPPED: no rules defined
G_ATOMICRMW_UMIN (opcode 100): 2 type indices, 0 imm indices
.. type index coverage check SKIPPED: no rules defined
.. imm index coverage check SKIPPED: no rules defined
G_ATOMICRMW_FADD (opcode 101): 2 type indices, 0 imm indices
.. type index coverage check SKIPPED: no rules defined
.. imm index coverage check SKIPPED: no rules defined
G_ATOMICRMW_FSUB (opcode 102): 2 type indices, 0 imm indices
.. type index coverage check SKIPPED: no rules defined
.. imm index coverage check SKIPPED: no rules defined
G_ATOMICRMW_FMAX (opcode 103): 2 type indices, 0 imm indices
.. type index coverage check SKIPPED: no rules defined
.. imm index coverage check SKIPPED: no rules defined
G_ATOMICRMW_FMIN (opcode 104): 2 type indices, 0 imm indices
.. type index coverage check SKIPPED: no rules defined
.. imm index coverage check SKIPPED: no rules defined
G_ATOMICRMW_UINC_WRAP (opcode 105): 2 type indices, 0 imm indices
.. type index coverage check SKIPPED: no rules defined
.. imm index coverage check SKIPPED: no rules defined
G_ATOMICRMW_UDEC_WRAP (opcode 106): 2 type indices, 0 imm indices
.. type index coverage check SKIPPED: no rules defined
.. imm index coverage check SKIPPED: no rules defined
G_FENCE (opcode 107): 0 type indices, 0 imm indices
.. type index coverage check SKIPPED: no rules defined
.. imm index coverage check SKIPPED: no rules defined
G_BRCOND (opcode 108): 1 type index, 0 imm indices
.. type index coverage check SKIPPED: no rules defined
.. imm index coverage check SKIPPED: no rules defined
G_BRINDIRECT (opcode 109): 1 type index, 0 imm indices
.. type index coverage check SKIPPED: no rules defined
.. imm index coverage check SKIPPED: no rules defined
G_INVOKE_REGION_START (opcode 110): 0 type indices, 0 imm indices
.. type index coverage check SKIPPED: no rules defined
.. imm index coverage check SKIPPED: no rules defined
G_INTRINSIC (opcode 111): 0 type indices, 0 imm indices
.. type index coverage check SKIPPED: no rules defined
.. imm index coverage check SKIPPED: no rules defined
G_INTRINSIC_W_SIDE_EFFECTS (opcode 112): 0 type indices, 0 imm indices
.. type index coverage check SKIPPED: no rules defined
.. imm index coverage check SKIPPED: no rules defined
G_ANYEXT (opcode 113): 2 type indices, 0 imm indices
.. type index coverage check SKIPPED: no rules defined
.. imm index coverage check SKIPPED: no rules defined
G_TRUNC (opcode 114): 2 type indices, 0 imm indices
.. type index coverage check SKIPPED: no rules defined
.. imm index coverage check SKIPPED: no rules defined
G_CONSTANT (opcode 115): 1 type index, 0 imm indices
.. type index coverage check SKIPPED: no rules defined
.. imm index coverage check SKIPPED: no rules defined
G_FCONSTANT (opcode 116): 1 type index, 0 imm indices
.. type index coverage check SKIPPED: no rules defined
.. imm index coverage check SKIPPED: no rules defined
G_VASTART (opcode 117): 1 type index, 0 imm indices
.. type index coverage check SKIPPED: no rules defined
.. imm index coverage check SKIPPED: no rules defined
G_VAARG (opcode 118): 2 type indices, 0 imm indices
.. type index coverage check SKIPPED: no rules defined
.. imm index coverage check SKIPPED: no rules defined
G_SEXT (opcode 119): 2 type indices, 0 imm indices
.. type index coverage check SKIPPED: no rules defined
.. imm index coverage check SKIPPED: no rules defined
G_SEXT_INREG (opcode 120): 1 type index, 1 imm index
.. type index coverage check SKIPPED: user-defined predicate detected
.. imm index coverage check SKIPPED: user-defined predicate detected
G_ZEXT (opcode 121): 2 type indices, 0 imm indices
.. type index coverage check SKIPPED: no rules defined
.. imm index coverage check SKIPPED: no rules defined
G_SHL (opcode 122): 2 type indices, 0 imm indices
.. the first uncovered type index: 2, OK
.. the first uncovered imm index: 0, OK
G_LSHR (opcode 123): 2 type indices, 0 imm indices
.. opcode 123 is aliased to 122
.. the first uncovered type index: 2, OK
.. the first uncovered imm index: 0, OK
G_ASHR (opcode 124): 2 type indices, 0 imm indices
.. opcode 124 is aliased to 122
.. the first uncovered type index: 2, OK
.. the first uncovered imm index: 0, OK
G_FSHL (opcode 125): 2 type indices, 0 imm indices
.. type index coverage check SKIPPED: no rules defined
.. imm index coverage check SKIPPED: no rules defined
G_FSHR (opcode 126): 2 type indices, 0 imm indices
.. type index coverage check SKIPPED: no rules defined
.. imm index coverage check SKIPPED: no rules defined
G_ROTR (opcode 127): 2 type indices, 0 imm indices
.. type index coverage check SKIPPED: no rules defined
.. imm index coverage check SKIPPED: no rules defined
G_ROTL (opcode 128): 2 type indices, 0 imm indices
.. type index coverage check SKIPPED: no rules defined
.. imm index coverage check SKIPPED: no rules defined
G_ICMP (opcode 129): 2 type indices, 0 imm indices
.. the first uncovered type index: 2, OK
.. the first uncovered imm index: 0, OK
G_FCMP (opcode 130): 2 type indices, 0 imm indices
.. the first uncovered type index: 2, OK
.. the first uncovered imm index: 0, OK
G_SELECT (opcode 131): 2 type indices, 0 imm indices
.. type index coverage check SKIPPED: no rules defined
.. imm index coverage check SKIPPED: no rules defined
G_UADDO (opcode 132): 2 type indices, 0 imm indices
.. type index coverage check SKIPPED: no rules defined
.. imm index coverage check SKIPPED: no rules defined
G_UADDE (opcode 133): 2 type indices, 0 imm indices
.. type index coverage check SKIPPED: no rules defined
.. imm index coverage check SKIPPED: no rules defined
G_USUBO (opcode 134): 2 type indices, 0 imm indices
.. type index coverage check SKIPPED: no rules defined
.. imm index coverage check SKIPPED: no rules defined
G_USUBE (opcode 135): 2 type indices, 0 imm indices
.. type index coverage check SKIPPED: no rules defined
.. imm index coverage check SKIPPED: no rules defined
G_SADDO (opcode 136): 2 type indices, 0 imm indices
.. type index coverage check SKIPPED: no rules defined
.. imm index coverage check SKIPPED: no rules defined
G_SADDE (opcode 137): 2 type indices, 0 imm indices
.. type index coverage check SKIPPED: no rules defined
.. imm index coverage check SKIPPED: no rules defined
G_SSUBO (opcode 138): 2 type indices, 0 imm indices
.. type index coverage check SKIPPED: no rules defined
.. imm index coverage check SKIPPED: no rules defined
G_SSUBE (opcode 139): 2 type indices, 0 imm indices
.. type index coverage check SKIPPED: no rules defined
.. imm index coverage check SKIPPED: no rules defined
G_UMULO (opcode 140): 2 type indices, 0 imm indices
.. type index coverage check SKIPPED: no rules defined
.. imm index coverage check SKIPPED: no rules defined
G_SMULO (opcode 141): 2 type indices, 0 imm indices
.. type index coverage check SKIPPED: no rules defined
.. imm index coverage check SKIPPED: no rules defined
G_UMULH (opcode 142): 1 type index, 0 imm indices
.. type index coverage check SKIPPED: no rules defined
.. imm index coverage check SKIPPED: no rules defined
G_SMULH (opcode 143): 1 type index, 0 imm indices
.. type index coverage check SKIPPED: no rules defined
.. imm index coverage check SKIPPED: no rules defined
G_UADDSAT (opcode 144): 1 type index, 0 imm indices
.. type index coverage check SKIPPED: no rules defined
.. imm index coverage check SKIPPED: no rules defined
G_SADDSAT (opcode 145): 1 type index, 0 imm indices
.. type index coverage check SKIPPED: no rules defined
.. imm index coverage check SKIPPED: no rules defined
G_USUBSAT (opcode 146): 1 type index, 0 imm indices
.. type index coverage check SKIPPED: no rules defined
.. imm index coverage check SKIPPED: no rules defined
G_SSUBSAT (opcode 147): 1 type index, 0 imm indices
.. type index coverage check SKIPPED: no rules defined
.. imm index coverage check SKIPPED: no rules defined
G_USHLSAT (opcode 148): 2 type indices, 0 imm indices
.. type index coverage check SKIPPED: no rules defined
.. imm index coverage check SKIPPED: no rules defined
G_SSHLSAT (opcode 149): 2 type indices, 0 imm indices
.. type index coverage check SKIPPED: no rules defined
.. imm index coverage check SKIPPED: no rules defined
G_SMULFIX (opcode 150): 1 type index, 1 imm index
.. type index coverage check SKIPPED: no rules defined
.. imm index coverage check SKIPPED: no rules defined
G_UMULFIX (opcode 151): 1 type index, 1 imm index
.. type index coverage check SKIPPED: no rules defined
.. imm index coverage check SKIPPED: no rules defined
G_SMULFIXSAT (opcode 152): 1 type index, 1 imm index
.. type index coverage check SKIPPED: no rules defined
.. imm index coverage check SKIPPED: no rules defined
G_UMULFIXSAT (opcode 153): 1 type index, 1 imm index
.. type index coverage check SKIPPED: no rules defined
.. imm index coverage check SKIPPED: no rules defined
G_SDIVFIX (opcode 154): 1 type index, 1 imm index
.. type index coverage check SKIPPED: no rules defined
.. imm index coverage check SKIPPED: no rules defined
G_UDIVFIX (opcode 155): 1 type index, 1 imm index
.. type index coverage check SKIPPED: no rules defined
.. imm index coverage check SKIPPED: no rules defined
G_SDIVFIXSAT (opcode 156): 1 type index, 1 imm index
.. type index coverage check SKIPPED: no rules defined
.. imm index coverage check SKIPPED: no rules defined
G_UDIVFIXSAT (opcode 157): 1 type index, 1 imm index
.. type index coverage check SKIPPED: no rules defined
.. imm index coverage check SKIPPED: no rules defined
G_FADD (opcode 158): 1 type index, 0 imm indices
.. type index coverage check SKIPPED: no rules defined
.. imm index coverage check SKIPPED: no rules defined
G_FSUB (opcode 159): 1 type index, 0 imm indices
.. type index coverage check SKIPPED: no rules defined
.. imm index coverage check SKIPPED: no rules defined
G_FMUL (opcode 160): 1 type index, 0 imm indices
.. type index coverage check SKIPPED: no rules defined
.. imm index coverage check SKIPPED: no rules defined
G_FMA (opcode 161): 1 type index, 0 imm indices
.. type index coverage check SKIPPED: no rules defined
.. imm index coverage check SKIPPED: no rules defined
G_FMAD (opcode 162): 1 type index, 0 imm indices
.. type index coverage check SKIPPED: no rules defined
.. imm index coverage check SKIPPED: no rules defined
G_FDIV (opcode 163): 1 type index, 0 imm indices
.. type index coverage check SKIPPED: no rules defined
.. imm index coverage check SKIPPED: no rules defined
G_FREM (opcode 164): 1 type index, 0 imm indices
.. type index coverage check SKIPPED: no rules defined
.. imm index coverage check SKIPPED: no rules defined
G_FPOW (opcode 165): 1 type index, 0 imm indices
.. type index coverage check SKIPPED: no rules defined
.. imm index coverage check SKIPPED: no rules defined
G_FPOWI (opcode 166): 2 type indices, 0 imm indices
.. type index coverage check SKIPPED: no rules defined
.. imm index coverage check SKIPPED: no rules defined
G_FEXP (opcode 167): 1 type index, 0 imm indices
.. type index coverage check SKIPPED: no rules defined
.. imm index coverage check SKIPPED: no rules defined
G_FEXP2 (opcode 168): 1 type index, 0 imm indices
.. type index coverage check SKIPPED: no rules defined
.. imm index coverage check SKIPPED: no rules defined
G_FLOG (opcode 169): 1 type index, 0 imm indices
.. type index coverage check SKIPPED: no rules defined
.. imm index coverage check SKIPPED: no rules defined
G_FLOG2 (opcode 170): 1 type index, 0 imm indices
.. type index coverage check SKIPPED: no rules defined
.. imm index coverage check SKIPPED: no rules defined
G_FLOG10 (opcode 171): 1 type index, 0 imm indices
.. type index coverage check SKIPPED: no rules defined
.. imm index coverage check SKIPPED: no rules defined
G_FNEG (opcode 172): 1 type index, 0 imm indices
.. type index coverage check SKIPPED: no rules defined
.. imm index coverage check SKIPPED: no rules defined
G_FPEXT (opcode 173): 2 type indices, 0 imm indices
.. type index coverage check SKIPPED: no rules defined
.. imm index coverage check SKIPPED: no rules defined
G_FPTRUNC (opcode 174): 2 type indices, 0 imm indices
.. type index coverage check SKIPPED: no rules defined
.. imm index coverage check SKIPPED: no rules defined
G_FPTOSI (opcode 175): 2 type indices, 0 imm indices
.. the first uncovered type index: 2, OK
.. the first uncovered imm index: 0, OK
G_FPTOUI (opcode 176): 2 type indices, 0 imm indices
.. type index coverage check SKIPPED: no rules defined
.. imm index coverage check SKIPPED: no rules defined
G_SITOFP (opcode 177): 2 type indices, 0 imm indices
.. the first uncovered type index: 2, OK
.. the first uncovered imm index: 0, OK
G_UITOFP (opcode 178): 2 type indices, 0 imm indices
.. type index coverage check SKIPPED: no rules defined
.. imm index coverage check SKIPPED: no rules defined
G_FABS (opcode 179): 1 type index, 0 imm indices
.. type index coverage check SKIPPED: no rules defined
.. imm index coverage check SKIPPED: no rules defined
G_FCOPYSIGN (opcode 180): 2 type indices, 0 imm indices
.. type index coverage check SKIPPED: no rules defined
.. imm index coverage check SKIPPED: no rules defined
G_IS_FPCLASS (opcode 181): 2 type indices, 0 imm indices
.. type index coverage check SKIPPED: no rules defined
.. imm index coverage check SKIPPED: no rules defined
G_FCANONICALIZE (opcode 182): 1 type index, 0 imm indices
.. type index coverage check SKIPPED: no rules defined
.. imm index coverage check SKIPPED: no rules defined
G_FMINNUM (opcode 183): 1 type index, 0 imm indices
.. type index coverage check SKIPPED: no rules defined
.. imm index coverage check SKIPPED: no rules defined
G_FMAXNUM (opcode 184): 1 type index, 0 imm indices
.. type index coverage check SKIPPED: no rules defined
.. imm index coverage check SKIPPED: no rules defined
G_FMINNUM_IEEE (opcode 185): 1 type index, 0 imm indices
.. type index coverage check SKIPPED: no rules defined
.. imm index coverage check SKIPPED: no rules defined
G_FMAXNUM_IEEE (opcode 186): 1 type index, 0 imm indices
.. type index coverage check SKIPPED: no rules defined
.. imm index coverage check SKIPPED: no rules defined
G_FMINIMUM (opcode 187): 1 type index, 0 imm indices
.. type index coverage check SKIPPED: no rules defined
.. imm index coverage check SKIPPED: no rules defined
G_FMAXIMUM (opcode 188): 1 type index, 0 imm indices
.. type index coverage check SKIPPED: no rules defined
.. imm index coverage check SKIPPED: no rules defined
G_PTR_ADD (opcode 189): 2 type indices, 0 imm indices
.. type index coverage check SKIPPED: no rules defined
.. imm index coverage check SKIPPED: no rules defined
G_PTRMASK (opcode 190): 2 type indices, 0 imm indices
.. type index coverage check SKIPPED: no rules defined
.. imm index coverage check SKIPPED: no rules defined
G_SMIN (opcode 191): 1 type index, 0 imm indices
.. type index coverage check SKIPPED: no rules defined
.. imm index coverage check SKIPPED: no rules defined
G_SMAX (opcode 192): 1 type index, 0 imm indices
.. type index coverage check SKIPPED: no rules defined
.. imm index coverage check SKIPPED: no rules defined
G_UMIN (opcode 193): 1 type index, 0 imm indices
.. type index coverage check SKIPPED: no rules defined
.. imm index coverage check SKIPPED: no rules defined
G_UMAX (opcode 194): 1 type index, 0 imm indices
.. type index coverage check SKIPPED: no rules defined
.. imm index coverage check SKIPPED: no rules defined
G_ABS (opcode 195): 1 type index, 0 imm indices
.. type index coverage check SKIPPED: no rules defined
.. imm index coverage check SKIPPED: no rules defined
G_LROUND (opcode 196): 2 type indices, 0 imm indices
.. type index coverage check SKIPPED: no rules defined
.. imm index coverage check SKIPPED: no rules defined
G_LLROUND (opcode 197): 2 type indices, 0 imm indices
.. type index coverage check SKIPPED: no rules defined
.. imm index coverage check SKIPPED: no rules defined
G_BR (opcode 198): 0 type indices, 0 imm indices
.. type index coverage check SKIPPED: no rules defined
.. imm index coverage check SKIPPED: no rules defined
G_BRJT (opcode 199): 2 type indices, 0 imm indices
.. type index coverage check SKIPPED: no rules defined
.. imm index coverage check SKIPPED: no rules defined
G_INSERT_VECTOR_ELT (opcode 200): 3 type indices, 0 imm indices
.. type index coverage check SKIPPED: no rules defined
.. imm index coverage check SKIPPED: no rules defined
G_EXTRACT_VECTOR_ELT (opcode 201): 3 type indices, 0 imm indices
.. type index coverage check SKIPPED: no rules defined
.. imm index coverage check SKIPPED: no rules defined
G_SHUFFLE_VECTOR (opcode 202): 2 type indices, 0 imm indices
.. type index coverage check SKIPPED: no rules defined
.. imm index coverage check SKIPPED: no rules defined
G_CTTZ (opcode 203): 2 type indices, 0 imm indices
.. type index coverage check SKIPPED: no rules defined
.. imm index coverage check SKIPPED: no rules defined
G_CTTZ_ZERO_UNDEF (opcode 204): 2 type indices, 0 imm indices
.. type index coverage check SKIPPED: no rules defined
.. imm index coverage check SKIPPED: no rules defined
G_CTLZ (opcode 205): 2 type indices, 0 imm indices
.. type index coverage check SKIPPED: no rules defined
.. imm index coverage check SKIPPED: no rules defined
G_CTLZ_ZERO_UNDEF (opcode 206): 2 type indices, 0 imm indices
.. type index coverage check SKIPPED: no rules defined
.. imm index coverage check SKIPPED: no rules defined
G_CTPOP (opcode 207): 2 type indices, 0 imm indices
.. type index coverage check SKIPPED: no rules defined
.. imm index coverage check SKIPPED: no rules defined
G_BSWAP (opcode 208): 1 type index, 0 imm indices
.. type index coverage check SKIPPED: no rules defined
.. imm index coverage check SKIPPED: no rules defined
G_BITREVERSE (opcode 209): 1 type index, 0 imm indices
.. type index coverage check SKIPPED: no rules defined
.. imm index coverage check SKIPPED: no rules defined
G_FCEIL (opcode 210): 1 type index, 0 imm indices
.. type index coverage check SKIPPED: no rules defined
.. imm index coverage check SKIPPED: no rules defined
G_FCOS (opcode 211): 1 type index, 0 imm indices
.. type index coverage check SKIPPED: no rules defined
.. imm index coverage check SKIPPED: no rules defined
G_FSIN (opcode 212): 1 type index, 0 imm indices
.. type index coverage check SKIPPED: no rules defined
.. imm index coverage check SKIPPED: no rules defined
G_FSQRT (opcode 213): 1 type index, 0 imm indices
.. type index coverage check SKIPPED: no rules defined
.. imm index coverage check SKIPPED: no rules defined
G_FFLOOR (opcode 214): 1 type index, 0 imm indices
.. type index coverage check SKIPPED: no rules defined
.. imm index coverage check SKIPPED: no rules defined
G_FRINT (opcode 215): 1 type index, 0 imm indices
.. type index coverage check SKIPPED: no rules defined
.. imm index coverage check SKIPPED: no rules defined
G_FNEARBYINT (opcode 216): 1 type index, 0 imm indices
.. type index coverage check SKIPPED: no rules defined
.. imm index coverage check SKIPPED: no rules defined
G_ADDRSPACE_CAST (opcode 217): 2 type indices, 0 imm indices
.. type index coverage check SKIPPED: no rules defined
.. imm index coverage check SKIPPED: no rules defined
G_BLOCK_ADDR (opcode 218): 1 type index, 0 imm indices
.. type index coverage check SKIPPED: no rules defined
.. imm index coverage check SKIPPED: no rules defined
G_JUMP_TABLE (opcode 219): 1 type index, 0 imm indices
.. type index coverage check SKIPPED: no rules defined
.. imm index coverage check SKIPPED: no rules defined
G_DYN_STACKALLOC (opcode 220): 2 type indices, 0 imm indices
.. type index coverage check SKIPPED: no rules defined
.. imm index coverage check SKIPPED: no rules defined
G_STRICT_FADD (opcode 221): 1 type index, 0 imm indices
.. type index coverage check SKIPPED: no rules defined
.. imm index coverage check SKIPPED: no rules defined
G_STRICT_FSUB (opcode 222): 1 type index, 0 imm indices
.. type index coverage check SKIPPED: no rules defined
.. imm index coverage check SKIPPED: no rules defined
G_STRICT_FMUL (opcode 223): 1 type index, 0 imm indices
.. type index coverage check SKIPPED: no rules defined
.. imm index coverage check SKIPPED: no rules defined
G_STRICT_FDIV (opcode 224): 1 type index, 0 imm indices
.. type index coverage check SKIPPED: no rules defined
.. imm index coverage check SKIPPED: no rules defined
G_STRICT_FREM (opcode 225): 1 type index, 0 imm indices
.. type index coverage check SKIPPED: no rules defined
.. imm index coverage check SKIPPED: no rules defined
G_STRICT_FMA (opcode 226): 1 type index, 0 imm indices
.. type index coverage check SKIPPED: no rules defined
.. imm index coverage check SKIPPED: no rules defined
G_STRICT_FSQRT (opcode 227): 1 type index, 0 imm indices
.. type index coverage check SKIPPED: no rules defined
.. imm index coverage check SKIPPED: no rules defined
G_READ_REGISTER (opcode 228): 1 type index, 0 imm indices
.. type index coverage check SKIPPED: no rules defined
.. imm index coverage check SKIPPED: no rules defined
G_WRITE_REGISTER (opcode 229): 1 type index, 0 imm indices
.. type index coverage check SKIPPED: no rules defined
.. imm index coverage check SKIPPED: no rules defined
G_MEMCPY (opcode 230): 3 type indices, 1 imm index
.. type index coverage check SKIPPED: user-defined predicate detected
.. imm index coverage check SKIPPED: user-defined predicate detected
G_MEMCPY_INLINE (opcode 231): 3 type indices, 0 imm indices
.. type index coverage check SKIPPED: no rules defined
.. imm index coverage check SKIPPED: no rules defined
G_MEMMOVE (opcode 232): 3 type indices, 1 imm index
.. opcode 232 is aliased to 230
.. type index coverage check SKIPPED: user-defined predicate detected
.. imm index coverage check SKIPPED: user-defined predicate detected
G_MEMSET (opcode 233): 3 type indices, 1 imm index
.. opcode 233 is aliased to 230
.. type index coverage check SKIPPED: user-defined predicate detected
.. imm index coverage check SKIPPED: user-defined predicate detected
G_BZERO (opcode 234): 2 type indices, 1 imm index
.. type index coverage check SKIPPED: no rules defined
.. imm index coverage check SKIPPED: no rules defined
G_VECREDUCE_SEQ_FADD (opcode 235): 3 type indices, 0 imm indices
.. type index coverage check SKIPPED: no rules defined
.. imm index coverage check SKIPPED: no rules defined
G_VECREDUCE_SEQ_FMUL (opcode 236): 3 type indices, 0 imm indices
.. type index coverage check SKIPPED: no rules defined
.. imm index coverage check SKIPPED: no rules defined
G_VECREDUCE_FADD (opcode 237): 2 type indices, 0 imm indices
.. type index coverage check SKIPPED: no rules defined
.. imm index coverage check SKIPPED: no rules defined
G_VECREDUCE_FMUL (opcode 238): 2 type indices, 0 imm indices
.. type index coverage check SKIPPED: no rules defined
.. imm index coverage check SKIPPED: no rules defined
G_VECREDUCE_FMAX (opcode 239): 2 type indices, 0 imm indices
.. type index coverage check SKIPPED: no rules defined
.. imm index coverage check SKIPPED: no rules defined
G_VECREDUCE_FMIN (opcode 240): 2 type indices, 0 imm indices
.. type index coverage check SKIPPED: no rules defined
.. imm index coverage check SKIPPED: no rules defined
G_VECREDUCE_ADD (opcode 241): 2 type indices, 0 imm indices
.. type index coverage check SKIPPED: no rules defined
.. imm index coverage check SKIPPED: no rules defined
G_VECREDUCE_MUL (opcode 242): 2 type indices, 0 imm indices
.. type index coverage check SKIPPED: no rules defined
.. imm index coverage check SKIPPED: no rules defined
G_VECREDUCE_AND (opcode 243): 2 type indices, 0 imm indices
.. type index coverage check SKIPPED: no rules defined
.. imm index coverage check SKIPPED: no rules defined
G_VECREDUCE_OR (opcode 244): 2 type indices, 0 imm indices
.. type index coverage check SKIPPED: no rules defined
.. imm index coverage check SKIPPED: no rules defined
G_VECREDUCE_XOR (opcode 245): 2 type indices, 0 imm indices
.. type index coverage check SKIPPED: no rules defined
.. imm index coverage check SKIPPED: no rules defined
G_VECREDUCE_SMAX (opcode 246): 2 type indices, 0 imm indices
.. type index coverage check SKIPPED: no rules defined
.. imm index coverage check SKIPPED: no rules defined
G_VECREDUCE_SMIN (opcode 247): 2 type indices, 0 imm indices
.. type index coverage check SKIPPED: no rules defined
.. imm index coverage check SKIPPED: no rules defined
G_VECREDUCE_UMAX (opcode 248): 2 type indices, 0 imm indices
.. type index coverage check SKIPPED: no rules defined
.. imm index coverage check SKIPPED: no rules defined
G_VECREDUCE_UMIN (opcode 249): 2 type indices, 0 imm indices
.. type index coverage check SKIPPED: no rules defined
.. imm index coverage check SKIPPED: no rules defined
G_SBFX (opcode 250): 2 type indices, 0 imm indices
.. type index coverage check SKIPPED: no rules defined
.. imm index coverage check SKIPPED: no rules defined
G_UBFX (opcode 251): 2 type indices, 0 imm indices
.. type index coverage check SKIPPED: no rules defined
.. imm index coverage check SKIPPED: no rules defined
SROA function: main
SROA alloca:   %7 = alloca { ptr, ptr, i64, [1 x i64], [1 x i64] }, i64 1, align 8
  Rewriting FCA loads and stores...
    original:   store { ptr, ptr, i64, [1 x i64], [1 x i64] } %6, ptr %7, align 8
          to:   store ptr %.fca.0.extract, ptr %.fca.0.gep, align 8
          to:   store ptr %.fca.1.extract, ptr %.fca.1.gep, align 8
          to:   store i64 %.fca.2.extract, ptr %.fca.2.gep, align 8
          to:   store i64 %.fca.3.0.extract, ptr %.fca.3.0.gep, align 8
          to:   store i64 %.fca.4.0.extract, ptr %.fca.4.0.gep, align 8
Can't analyze slices for alloca:   %7 = alloca { ptr, ptr, i64, [1 x i64], [1 x i64] }, i64 1, align 8
  A pointer to this alloca escaped by:
    %8 = insertvalue { i64, ptr } { i64 1, ptr undef }, ptr %7, 1
EarlyCSE Simplify:   %.fca.0.extract = extractvalue { ptr, ptr, i64, [1 x i64], [1 x i64] } %6, 0  to:   %1 = call ptr @malloc(i64 ptrtoint (ptr getelementptr (i64, ptr null, i32 7) to i64))
EarlyCSE Simplify:   %.fca.0.gep = getelementptr inbounds { ptr, ptr, i64, [1 x i64], [1 x i64] }, ptr %7, i32 0, i32 0  to:   %7 = alloca { ptr, ptr, i64, [1 x i64], [1 x i64] }, i64 1, align 8
EarlyCSE Simplify:   %.fca.1.extract = extractvalue { ptr, ptr, i64, [1 x i64], [1 x i64] } %6, 1  to:   %1 = call ptr @malloc(i64 ptrtoint (ptr getelementptr (i64, ptr null, i32 7) to i64))
EarlyCSE Simplify:   %.fca.2.extract = extractvalue { ptr, ptr, i64, [1 x i64], [1 x i64] } %6, 2  to: i64 0
EarlyCSE Simplify:   %.fca.3.0.extract = extractvalue { ptr, ptr, i64, [1 x i64], [1 x i64] } %6, 3, 0  to: i64 7
EarlyCSE Simplify:   %.fca.4.0.extract = extractvalue { ptr, ptr, i64, [1 x i64], [1 x i64] } %6, 4, 0  to: i64 1
EarlyCSE DCE:   %8 = insertvalue { i64, ptr } { i64 1, ptr undef }, ptr %7, 1
EarlyCSE Simplify:   %8 = getelementptr i64, ptr %1, i64 0  to:   %1 = call ptr @malloc(i64 ptrtoint (ptr getelementptr (i64, ptr null, i32 7) to i64))
EarlyCSE CVP: Add conditional value for '' as i1 true in 
EarlyCSE CVP: Add conditional value for '' as i1 false in 
EarlyCSE DCE:   %41 = insertvalue { i64, ptr } { i64 1, ptr undef }, ptr %40, 1
EarlyCSE CVP: Add conditional value for '' as i1 true in 
EarlyCSE CVP: Add conditional value for '' as i1 false in 
EarlyCSE DCE:   %57 = insertvalue { i64, ptr } { i64 1, ptr undef }, ptr %56, 1
EarlyCSE CVP: Add conditional value for '' as i1 true in 
EarlyCSE CVP: Add conditional value for '' as i1 false in 
EarlyCSE DCE:   %73 = insertvalue { i64, ptr } { i64 1, ptr undef }, ptr %72, 1
EarlyCSE CVP: Add conditional value for '' as i1 true in 
EarlyCSE CVP: Add conditional value for '' as i1 false in 
EarlyCSE DCE:   %89 = insertvalue { i64, ptr } { i64 1, ptr undef }, ptr %88, 1
EarlyCSE CVP: Add conditional value for '' as i1 true in 
EarlyCSE CVP: Add conditional value for '' as i1 false in 
EarlyCSE DCE:   %105 = insertvalue { i64, ptr } { i64 1, ptr undef }, ptr %104, 1
EarlyCSE CVP: Add conditional value for '' as i1 true in 
EarlyCSE CVP: Add conditional value for '' as i1 false in 
EarlyCSE DCE:   %121 = insertvalue { i64, ptr } { i64 1, ptr undef }, ptr %120, 1
EarlyCSE CVP: Add conditional value for '' as i1 true in 
EarlyCSE CVP: Add conditional value for '' as i1 false in 
EarlyCSE DCE:   %137 = insertvalue { i64, ptr } { i64 1, ptr undef }, ptr %136, 1
EarlyCSE CVP: Add conditional value for '' as i1 true in 
EarlyCSE CVP: Add conditional value for '' as i1 false in 
EarlyCSE DCE:   %153 = insertvalue { i64, ptr } { i64 1, ptr undef }, ptr %152, 1
EarlyCSE CVP: Add conditional value for '' as i1 true in 
EarlyCSE CVP: Add conditional value for '' as i1 false in 
EarlyCSE DCE:   %169 = insertvalue { i64, ptr } { i64 1, ptr undef }, ptr %168, 1
SROA function: _mlir_main
Visiting   %34 = phi i64 [ %38, %36 ], [ 0, %0 ]
Rename Stack is empty
Current DFS numbers are (1,54)
Rename Stack is empty
Current DFS numbers are (2,3)
Rename Stack Top DFS numbers are (2,3)
Current DFS numbers are (2,3)
Found replacement   %.0 = call i64 @llvm.ssa.copy.i64(i64 %34) for   %34 = phi i64 [ %38, %36 ], [ 0, %0 ] in   %37 = getelementptr i64, ptr %27, i64 %34
Rename Stack Top DFS numbers are (2,3)
Current DFS numbers are (2,3)
Found replacement   %.0 = call i64 @llvm.ssa.copy.i64(i64 %34) for   %34 = phi i64 [ %38, %36 ], [ 0, %0 ] in   %38 = add i64 %34, 1
Rename Stack Top DFS numbers are (2,3)
Current DFS numbers are (4,53)
Visiting   %8 = load i64, ptr %1, align 4
Rename Stack is empty
Current DFS numbers are (0,55)
Rename Stack is empty
Current DFS numbers are (0,55)
Rename Stack is empty
Current DFS numbers are (1,54)
Rename Stack is empty
Current DFS numbers are (2,3)
Rename Stack Top DFS numbers are (2,3)
Current DFS numbers are (4,53)
Visiting   %50 = phi i64 [ %54, %52 ], [ 0, %39 ]
Rename Stack is empty
Current DFS numbers are (5,52)
Rename Stack is empty
Current DFS numbers are (6,7)
Rename Stack Top DFS numbers are (6,7)
Current DFS numbers are (6,7)
Found replacement   %.01 = call i64 @llvm.ssa.copy.i64(i64 %50) for   %50 = phi i64 [ %54, %52 ], [ 0, %39 ] in   %53 = getelementptr i64, ptr %43, i64 %50
Rename Stack Top DFS numbers are (6,7)
Current DFS numbers are (6,7)
Found replacement   %.01 = call i64 @llvm.ssa.copy.i64(i64 %50) for   %50 = phi i64 [ %54, %52 ], [ 0, %39 ] in   %54 = add i64 %50, 1
Rename Stack Top DFS numbers are (6,7)
Current DFS numbers are (8,51)
Visiting   %10 = load i64, ptr %9, align 4
Rename Stack is empty
Current DFS numbers are (4,53)
Rename Stack is empty
Current DFS numbers are (4,53)
Rename Stack is empty
Current DFS numbers are (5,52)
Rename Stack is empty
Current DFS numbers are (6,7)
Rename Stack Top DFS numbers are (6,7)
Current DFS numbers are (8,51)
Visiting   %66 = phi i64 [ %70, %68 ], [ 0, %55 ]
Rename Stack is empty
Current DFS numbers are (9,50)
Rename Stack is empty
Current DFS numbers are (10,11)
Rename Stack Top DFS numbers are (10,11)
Current DFS numbers are (10,11)
Found replacement   %.02 = call i64 @llvm.ssa.copy.i64(i64 %66) for   %66 = phi i64 [ %70, %68 ], [ 0, %55 ] in   %69 = getelementptr i64, ptr %59, i64 %66
Rename Stack Top DFS numbers are (10,11)
Current DFS numbers are (10,11)
Found replacement   %.02 = call i64 @llvm.ssa.copy.i64(i64 %66) for   %66 = phi i64 [ %70, %68 ], [ 0, %55 ] in   %70 = add i64 %66, 1
Rename Stack Top DFS numbers are (10,11)
Current DFS numbers are (12,49)
Visiting   %12 = load i64, ptr %11, align 4
Rename Stack is empty
Current DFS numbers are (8,51)
Rename Stack is empty
Current DFS numbers are (8,51)
Rename Stack is empty
Current DFS numbers are (9,50)
Rename Stack is empty
Current DFS numbers are (10,11)
Rename Stack Top DFS numbers are (10,11)
Current DFS numbers are (12,49)
Visiting   %82 = phi i64 [ %86, %84 ], [ 0, %71 ]
Rename Stack is empty
Current DFS numbers are (13,48)
Rename Stack is empty
Current DFS numbers are (14,15)
Rename Stack Top DFS numbers are (14,15)
Current DFS numbers are (14,15)
Found replacement   %.03 = call i64 @llvm.ssa.copy.i64(i64 %82) for   %82 = phi i64 [ %86, %84 ], [ 0, %71 ] in   %85 = getelementptr i64, ptr %75, i64 %82
Rename Stack Top DFS numbers are (14,15)
Current DFS numbers are (14,15)
Found replacement   %.03 = call i64 @llvm.ssa.copy.i64(i64 %82) for   %82 = phi i64 [ %86, %84 ], [ 0, %71 ] in   %86 = add i64 %82, 1
Rename Stack Top DFS numbers are (14,15)
Current DFS numbers are (16,47)
Visiting   %14 = load i64, ptr %13, align 4
Rename Stack is empty
Current DFS numbers are (12,49)
Rename Stack is empty
Current DFS numbers are (12,49)
Rename Stack is empty
Current DFS numbers are (13,48)
Rename Stack is empty
Current DFS numbers are (14,15)
Rename Stack Top DFS numbers are (14,15)
Current DFS numbers are (16,47)
Visiting   %98 = phi i64 [ %102, %100 ], [ 0, %87 ]
Rename Stack is empty
Current DFS numbers are (17,46)
Rename Stack is empty
Current DFS numbers are (18,19)
Rename Stack Top DFS numbers are (18,19)
Current DFS numbers are (18,19)
Found replacement   %.04 = call i64 @llvm.ssa.copy.i64(i64 %98) for   %98 = phi i64 [ %102, %100 ], [ 0, %87 ] in   %101 = getelementptr i64, ptr %91, i64 %98
Rename Stack Top DFS numbers are (18,19)
Current DFS numbers are (18,19)
Found replacement   %.04 = call i64 @llvm.ssa.copy.i64(i64 %98) for   %98 = phi i64 [ %102, %100 ], [ 0, %87 ] in   %102 = add i64 %98, 1
Rename Stack Top DFS numbers are (18,19)
Current DFS numbers are (20,45)
Visiting   %16 = load i64, ptr %15, align 4
Rename Stack is empty
Current DFS numbers are (16,47)
Rename Stack is empty
Current DFS numbers are (16,47)
Rename Stack is empty
Current DFS numbers are (17,46)
Rename Stack is empty
Current DFS numbers are (18,19)
Rename Stack Top DFS numbers are (18,19)
Current DFS numbers are (20,45)
Visiting   %114 = phi i64 [ %118, %116 ], [ 0, %103 ]
Rename Stack is empty
Current DFS numbers are (21,44)
Rename Stack is empty
Current DFS numbers are (22,23)
Rename Stack Top DFS numbers are (22,23)
Current DFS numbers are (22,23)
Found replacement   %.05 = call i64 @llvm.ssa.copy.i64(i64 %114) for   %114 = phi i64 [ %118, %116 ], [ 0, %103 ] in   %117 = getelementptr i64, ptr %107, i64 %114
Rename Stack Top DFS numbers are (22,23)
Current DFS numbers are (22,23)
Found replacement   %.05 = call i64 @llvm.ssa.copy.i64(i64 %114) for   %114 = phi i64 [ %118, %116 ], [ 0, %103 ] in   %118 = add i64 %114, 1
Rename Stack Top DFS numbers are (22,23)
Current DFS numbers are (24,43)
Visiting   %18 = load i64, ptr %17, align 4
Rename Stack is empty
Current DFS numbers are (20,45)
Rename Stack is empty
Current DFS numbers are (20,45)
Rename Stack is empty
Current DFS numbers are (21,44)
Rename Stack is empty
Current DFS numbers are (22,23)
Rename Stack Top DFS numbers are (22,23)
Current DFS numbers are (24,43)
Visiting   %130 = phi i64 [ %134, %132 ], [ 0, %119 ]
Rename Stack is empty
Current DFS numbers are (25,42)
Rename Stack is empty
Current DFS numbers are (26,27)
Rename Stack Top DFS numbers are (26,27)
Current DFS numbers are (26,27)
Found replacement   %.06 = call i64 @llvm.ssa.copy.i64(i64 %130) for   %130 = phi i64 [ %134, %132 ], [ 0, %119 ] in   %133 = getelementptr i64, ptr %123, i64 %130
Rename Stack Top DFS numbers are (26,27)
Current DFS numbers are (26,27)
Found replacement   %.06 = call i64 @llvm.ssa.copy.i64(i64 %130) for   %130 = phi i64 [ %134, %132 ], [ 0, %119 ] in   %134 = add i64 %130, 1
Rename Stack Top DFS numbers are (26,27)
Current DFS numbers are (28,41)
Visiting   %20 = load i64, ptr %19, align 4
Rename Stack is empty
Current DFS numbers are (24,43)
Rename Stack is empty
Current DFS numbers are (24,43)
Rename Stack is empty
Current DFS numbers are (25,42)
Rename Stack is empty
Current DFS numbers are (26,27)
Rename Stack Top DFS numbers are (26,27)
Current DFS numbers are (28,41)
Visiting   %146 = phi i64 [ %150, %148 ], [ 0, %135 ]
Rename Stack is empty
Current DFS numbers are (29,40)
Rename Stack is empty
Current DFS numbers are (30,31)
Rename Stack Top DFS numbers are (30,31)
Current DFS numbers are (30,31)
Found replacement   %.07 = call i64 @llvm.ssa.copy.i64(i64 %146) for   %146 = phi i64 [ %150, %148 ], [ 0, %135 ] in   %149 = getelementptr i64, ptr %139, i64 %146
Rename Stack Top DFS numbers are (30,31)
Current DFS numbers are (30,31)
Found replacement   %.07 = call i64 @llvm.ssa.copy.i64(i64 %146) for   %146 = phi i64 [ %150, %148 ], [ 0, %135 ] in   %150 = add i64 %146, 1
Rename Stack Top DFS numbers are (30,31)
Current DFS numbers are (32,39)
Visiting   %22 = load i64, ptr %21, align 4
Rename Stack is empty
Current DFS numbers are (28,41)
Rename Stack is empty
Current DFS numbers are (28,41)
Rename Stack is empty
Current DFS numbers are (29,40)
Rename Stack is empty
Current DFS numbers are (30,31)
Rename Stack Top DFS numbers are (30,31)
Current DFS numbers are (32,39)
Visiting   %162 = phi i64 [ %166, %164 ], [ 0, %151 ]
Rename Stack is empty
Current DFS numbers are (33,38)
Rename Stack is empty
Current DFS numbers are (34,35)
Rename Stack Top DFS numbers are (34,35)
Current DFS numbers are (34,35)
Found replacement   %.08 = call i64 @llvm.ssa.copy.i64(i64 %162) for   %162 = phi i64 [ %166, %164 ], [ 0, %151 ] in   %165 = getelementptr double, ptr %155, i64 %162
Rename Stack Top DFS numbers are (34,35)
Current DFS numbers are (34,35)
Found replacement   %.08 = call i64 @llvm.ssa.copy.i64(i64 %162) for   %162 = phi i64 [ %166, %164 ], [ 0, %151 ] in   %166 = add i64 %162, 1
Rename Stack Top DFS numbers are (34,35)
Current DFS numbers are (36,37)
Visiting   %24 = load i64, ptr %23, align 4
Rename Stack is empty
Current DFS numbers are (32,39)
Rename Stack is empty
Current DFS numbers are (32,39)
Rename Stack is empty
Current DFS numbers are (33,38)
Rename Stack is empty
Current DFS numbers are (34,35)
Rename Stack Top DFS numbers are (34,35)
Current DFS numbers are (36,37)
Marking Block Executable: 
Marking Block Executable: 
markOverdefined: ptr %0

Popped off OI-WL: ptr %0

Popped off BBWL: 
  call void @main()
  ret void


Popped off BBWL: 
  %1 = call ptr @malloc(i64 ptrtoint (ptr getelementptr (i64, ptr null, i32 7) to i64))
  %2 = insertvalue { ptr, ptr, i64, [1 x i64], [1 x i64] } undef, ptr %1, 0
  %3 = insertvalue { ptr, ptr, i64, [1 x i64], [1 x i64] } %2, ptr %1, 1
  %4 = insertvalue { ptr, ptr, i64, [1 x i64], [1 x i64] } %3, i64 0, 2
  %5 = insertvalue { ptr, ptr, i64, [1 x i64], [1 x i64] } %4, i64 7, 3, 0
  %6 = insertvalue { ptr, ptr, i64, [1 x i64], [1 x i64] } %5, i64 1, 4, 0
  %7 = alloca { ptr, ptr, i64, [1 x i64], [1 x i64] }, i64 1, align 8
  store ptr %1, ptr %7, align 8
  %.fca.1.gep = getelementptr inbounds { ptr, ptr, i64, [1 x i64], [1 x i64] }, ptr %7, i32 0, i32 1
  store ptr %1, ptr %.fca.1.gep, align 8
  %.fca.2.gep = getelementptr inbounds { ptr, ptr, i64, [1 x i64], [1 x i64] }, ptr %7, i32 0, i32 2
  store i64 0, ptr %.fca.2.gep, align 8
  %.fca.3.0.gep = getelementptr inbounds { ptr, ptr, i64, [1 x i64], [1 x i64] }, ptr %7, i32 0, i32 3, i32 0
  store i64 7, ptr %.fca.3.0.gep, align 8
  %.fca.4.0.gep = getelementptr inbounds { ptr, ptr, i64, [1 x i64], [1 x i64] }, ptr %7, i32 0, i32 4, i32 0
  store i64 1, ptr %.fca.4.0.gep, align 8
  call void @read_input_sizes_2D_f64(i32 1, i64 0, i64 3, i64 0, i64 -1, i64 1, ptr %7, i32 1)
  %8 = load i64, ptr %1, align 4
  %9 = getelementptr i64, ptr %1, i64 1
  %10 = load i64, ptr %9, align 4
  %11 = getelementptr i64, ptr %1, i64 2
  %12 = load i64, ptr %11, align 4
  %13 = getelementptr i64, ptr %1, i64 3
  %14 = load i64, ptr %13, align 4
  %15 = getelementptr i64, ptr %1, i64 4
  %16 = load i64, ptr %15, align 4
  %17 = getelementptr i64, ptr %1, i64 5
  %18 = load i64, ptr %17, align 4
  %19 = getelementptr i64, ptr %1, i64 6
  %20 = load i64, ptr %19, align 4
  %21 = getelementptr i64, ptr %1, i64 7
  %22 = load i64, ptr %21, align 4
  %23 = getelementptr i64, ptr %1, i64 8
  %24 = load i64, ptr %23, align 4
  %25 = getelementptr i64, ptr null, i64 %8
  %26 = ptrtoint ptr %25 to i64
  %27 = call ptr @malloc(i64 %26)
  %28 = insertvalue { ptr, ptr, i64, [1 x i64], [1 x i64] } undef, ptr %27, 0
  %29 = insertvalue { ptr, ptr, i64, [1 x i64], [1 x i64] } %28, ptr %27, 1
  %30 = insertvalue { ptr, ptr, i64, [1 x i64], [1 x i64] } %29, i64 0, 2
  %31 = insertvalue { ptr, ptr, i64, [1 x i64], [1 x i64] } %30, i64 %8, 3, 0
  %32 = insertvalue { ptr, ptr, i64, [1 x i64], [1 x i64] } %31, i64 1, 4, 0
  br label %33

Merged overdefined into   %1 = call ptr @malloc(i64 ptrtoint (ptr getelementptr (i64, ptr null, i32 7) to i64)) : overdefined
Merged overdefined into   %2 = insertvalue { ptr, ptr, i64, [1 x i64], [1 x i64] } undef, ptr %1, 0 : overdefined
Merged undef into   %2 = insertvalue { ptr, ptr, i64, [1 x i64], [1 x i64] } undef, ptr %1, 0 : undef
Merged undef into   %2 = insertvalue { ptr, ptr, i64, [1 x i64], [1 x i64] } undef, ptr %1, 0 : undef
Merged undef into   %2 = insertvalue { ptr, ptr, i64, [1 x i64], [1 x i64] } undef, ptr %1, 0 : undef
Merged undef into   %2 = insertvalue { ptr, ptr, i64, [1 x i64], [1 x i64] } undef, ptr %1, 0 : undef
Merged overdefined into   %3 = insertvalue { ptr, ptr, i64, [1 x i64], [1 x i64] } %2, ptr %1, 1 : overdefined
Merged overdefined into   %3 = insertvalue { ptr, ptr, i64, [1 x i64], [1 x i64] } %2, ptr %1, 1 : overdefined
Merged undef into   %3 = insertvalue { ptr, ptr, i64, [1 x i64], [1 x i64] } %2, ptr %1, 1 : undef
Merged undef into   %3 = insertvalue { ptr, ptr, i64, [1 x i64], [1 x i64] } %2, ptr %1, 1 : undef
Merged undef into   %3 = insertvalue { ptr, ptr, i64, [1 x i64], [1 x i64] } %2, ptr %1, 1 : undef
Merged overdefined into   %4 = insertvalue { ptr, ptr, i64, [1 x i64], [1 x i64] } %3, i64 0, 2 : overdefined
Merged overdefined into   %4 = insertvalue { ptr, ptr, i64, [1 x i64], [1 x i64] } %3, i64 0, 2 : overdefined
Merged constantrange<0, 1> into   %4 = insertvalue { ptr, ptr, i64, [1 x i64], [1 x i64] } %3, i64 0, 2 : constantrange<0, 1>
Merged undef into   %4 = insertvalue { ptr, ptr, i64, [1 x i64], [1 x i64] } %3, i64 0, 2 : undef
Merged undef into   %4 = insertvalue { ptr, ptr, i64, [1 x i64], [1 x i64] } %3, i64 0, 2 : undef
markOverdefined:   %5 = insertvalue { ptr, ptr, i64, [1 x i64], [1 x i64] } %4, i64 7, 3, 0
markOverdefined:   %5 = insertvalue { ptr, ptr, i64, [1 x i64], [1 x i64] } %4, i64 7, 3, 0
markOverdefined:   %5 = insertvalue { ptr, ptr, i64, [1 x i64], [1 x i64] } %4, i64 7, 3, 0
markOverdefined:   %5 = insertvalue { ptr, ptr, i64, [1 x i64], [1 x i64] } %4, i64 7, 3, 0
markOverdefined:   %5 = insertvalue { ptr, ptr, i64, [1 x i64], [1 x i64] } %4, i64 7, 3, 0
markOverdefined:   %6 = insertvalue { ptr, ptr, i64, [1 x i64], [1 x i64] } %5, i64 1, 4, 0
markOverdefined:   %6 = insertvalue { ptr, ptr, i64, [1 x i64], [1 x i64] } %5, i64 1, 4, 0
markOverdefined:   %6 = insertvalue { ptr, ptr, i64, [1 x i64], [1 x i64] } %5, i64 1, 4, 0
markOverdefined:   %6 = insertvalue { ptr, ptr, i64, [1 x i64], [1 x i64] } %5, i64 1, 4, 0
markOverdefined:   %6 = insertvalue { ptr, ptr, i64, [1 x i64], [1 x i64] } %5, i64 1, 4, 0
SCCP: Don't know how to handle:   %7 = alloca { ptr, ptr, i64, [1 x i64], [1 x i64] }, i64 1, align 8
markOverdefined:   %7 = alloca { ptr, ptr, i64, [1 x i64], [1 x i64] }, i64 1, align 8
markOverdefined:   %.fca.1.gep = getelementptr inbounds { ptr, ptr, i64, [1 x i64], [1 x i64] }, ptr %7, i32 0, i32 1
markOverdefined:   %.fca.2.gep = getelementptr inbounds { ptr, ptr, i64, [1 x i64], [1 x i64] }, ptr %7, i32 0, i32 2
markOverdefined:   %.fca.3.0.gep = getelementptr inbounds { ptr, ptr, i64, [1 x i64], [1 x i64] }, ptr %7, i32 0, i32 3, i32 0
markOverdefined:   %.fca.4.0.gep = getelementptr inbounds { ptr, ptr, i64, [1 x i64], [1 x i64] }, ptr %7, i32 0, i32 4, i32 0
Merged overdefined into   %8 = load i64, ptr %1, align 4 : overdefined
markOverdefined:   %9 = getelementptr i64, ptr %1, i64 1
Merged overdefined into   %10 = load i64, ptr %9, align 4 : overdefined
markOverdefined:   %11 = getelementptr i64, ptr %1, i64 2
Merged overdefined into   %12 = load i64, ptr %11, align 4 : overdefined
markOverdefined:   %13 = getelementptr i64, ptr %1, i64 3
Merged overdefined into   %14 = load i64, ptr %13, align 4 : overdefined
markOverdefined:   %15 = getelementptr i64, ptr %1, i64 4
Merged overdefined into   %16 = load i64, ptr %15, align 4 : overdefined
markOverdefined:   %17 = getelementptr i64, ptr %1, i64 5
Merged overdefined into   %18 = load i64, ptr %17, align 4 : overdefined
markOverdefined:   %19 = getelementptr i64, ptr %1, i64 6
Merged overdefined into   %20 = load i64, ptr %19, align 4 : overdefined
markOverdefined:   %21 = getelementptr i64, ptr %1, i64 7
Merged overdefined into   %22 = load i64, ptr %21, align 4 : overdefined
markOverdefined:   %23 = getelementptr i64, ptr %1, i64 8
Merged overdefined into   %24 = load i64, ptr %23, align 4 : overdefined
markOverdefined:   %25 = getelementptr i64, ptr null, i64 %8
markOverdefined:   %26 = ptrtoint ptr %25 to i64
Merged overdefined into   %27 = call ptr @malloc(i64 %26) : overdefined
Merged overdefined into   %28 = insertvalue { ptr, ptr, i64, [1 x i64], [1 x i64] } undef, ptr %27, 0 : overdefined
Merged undef into   %28 = insertvalue { ptr, ptr, i64, [1 x i64], [1 x i64] } undef, ptr %27, 0 : undef
Merged undef into   %28 = insertvalue { ptr, ptr, i64, [1 x i64], [1 x i64] } undef, ptr %27, 0 : undef
Merged undef into   %28 = insertvalue { ptr, ptr, i64, [1 x i64], [1 x i64] } undef, ptr %27, 0 : undef
Merged undef into   %28 = insertvalue { ptr, ptr, i64, [1 x i64], [1 x i64] } undef, ptr %27, 0 : undef
Merged overdefined into   %29 = insertvalue { ptr, ptr, i64, [1 x i64], [1 x i64] } %28, ptr %27, 1 : overdefined
Merged overdefined into   %29 = insertvalue { ptr, ptr, i64, [1 x i64], [1 x i64] } %28, ptr %27, 1 : overdefined
Merged undef into   %29 = insertvalue { ptr, ptr, i64, [1 x i64], [1 x i64] } %28, ptr %27, 1 : undef
Merged undef into   %29 = insertvalue { ptr, ptr, i64, [1 x i64], [1 x i64] } %28, ptr %27, 1 : undef
Merged undef into   %29 = insertvalue { ptr, ptr, i64, [1 x i64], [1 x i64] } %28, ptr %27, 1 : undef
Merged overdefined into   %30 = insertvalue { ptr, ptr, i64, [1 x i64], [1 x i64] } %29, i64 0, 2 : overdefined
Merged overdefined into   %30 = insertvalue { ptr, ptr, i64, [1 x i64], [1 x i64] } %29, i64 0, 2 : overdefined
Merged constantrange<0, 1> into   %30 = insertvalue { ptr, ptr, i64, [1 x i64], [1 x i64] } %29, i64 0, 2 : constantrange<0, 1>
Merged undef into   %30 = insertvalue { ptr, ptr, i64, [1 x i64], [1 x i64] } %29, i64 0, 2 : undef
Merged undef into   %30 = insertvalue { ptr, ptr, i64, [1 x i64], [1 x i64] } %29, i64 0, 2 : undef
markOverdefined:   %31 = insertvalue { ptr, ptr, i64, [1 x i64], [1 x i64] } %30, i64 %8, 3, 0
markOverdefined:   %31 = insertvalue { ptr, ptr, i64, [1 x i64], [1 x i64] } %30, i64 %8, 3, 0
markOverdefined:   %31 = insertvalue { ptr, ptr, i64, [1 x i64], [1 x i64] } %30, i64 %8, 3, 0
markOverdefined:   %31 = insertvalue { ptr, ptr, i64, [1 x i64], [1 x i64] } %30, i64 %8, 3, 0
markOverdefined:   %31 = insertvalue { ptr, ptr, i64, [1 x i64], [1 x i64] } %30, i64 %8, 3, 0
markOverdefined:   %32 = insertvalue { ptr, ptr, i64, [1 x i64], [1 x i64] } %31, i64 1, 4, 0
markOverdefined:   %32 = insertvalue { ptr, ptr, i64, [1 x i64], [1 x i64] } %31, i64 1, 4, 0
markOverdefined:   %32 = insertvalue { ptr, ptr, i64, [1 x i64], [1 x i64] } %31, i64 1, 4, 0
markOverdefined:   %32 = insertvalue { ptr, ptr, i64, [1 x i64], [1 x i64] } %31, i64 1, 4, 0
markOverdefined:   %32 = insertvalue { ptr, ptr, i64, [1 x i64], [1 x i64] } %31, i64 1, 4, 0
Marking Block Executable: 

Popped off BBWL: 
33:                                               ; preds = %36, %0
  %34 = phi i64 [ %38, %36 ], [ 0, %0 ]
  %35 = icmp slt i64 %34, %8
  %.0 = call i64 @llvm.ssa.copy.i64(i64 %34)
  br i1 %35, label %36, label %39

Merged constantrange<0, 1> into   %34 = phi i64 [ %38, %36 ], [ 0, %0 ] : constantrange<0, 1>
markOverdefined:   %35 = icmp slt i64 %34, %8
Merged constantrange<0, 1> into   %.0 = call i64 @llvm.ssa.copy.i64(i64 %34) : constantrange<0, 1>
Marking Block Executable: 
Marking Block Executable: 

Popped off BBWL: 
39:                                               ; preds = %33
  %40 = alloca { ptr, ptr, i64, [1 x i64], [1 x i64] }, i64 1, align 8
  store { ptr, ptr, i64, [1 x i64], [1 x i64] } %32, ptr %40, align 8
  %41 = getelementptr i64, ptr null, i64 %10
  %42 = ptrtoint ptr %41 to i64
  %43 = call ptr @malloc(i64 %42)
  %44 = insertvalue { ptr, ptr, i64, [1 x i64], [1 x i64] } undef, ptr %43, 0
  %45 = insertvalue { ptr, ptr, i64, [1 x i64], [1 x i64] } %44, ptr %43, 1
  %46 = insertvalue { ptr, ptr, i64, [1 x i64], [1 x i64] } %45, i64 0, 2
  %47 = insertvalue { ptr, ptr, i64, [1 x i64], [1 x i64] } %46, i64 %10, 3, 0
  %48 = insertvalue { ptr, ptr, i64, [1 x i64], [1 x i64] } %47, i64 1, 4, 0
  br label %49

SCCP: Don't know how to handle:   %40 = alloca { ptr, ptr, i64, [1 x i64], [1 x i64] }, i64 1, align 8
markOverdefined:   %40 = alloca { ptr, ptr, i64, [1 x i64], [1 x i64] }, i64 1, align 8
markOverdefined:   %41 = getelementptr i64, ptr null, i64 %10
markOverdefined:   %42 = ptrtoint ptr %41 to i64
Merged overdefined into   %43 = call ptr @malloc(i64 %42) : overdefined
Merged overdefined into   %44 = insertvalue { ptr, ptr, i64, [1 x i64], [1 x i64] } undef, ptr %43, 0 : overdefined
Merged undef into   %44 = insertvalue { ptr, ptr, i64, [1 x i64], [1 x i64] } undef, ptr %43, 0 : undef
Merged undef into   %44 = insertvalue { ptr, ptr, i64, [1 x i64], [1 x i64] } undef, ptr %43, 0 : undef
Merged undef into   %44 = insertvalue { ptr, ptr, i64, [1 x i64], [1 x i64] } undef, ptr %43, 0 : undef
Merged undef into   %44 = insertvalue { ptr, ptr, i64, [1 x i64], [1 x i64] } undef, ptr %43, 0 : undef
Merged overdefined into   %45 = insertvalue { ptr, ptr, i64, [1 x i64], [1 x i64] } %44, ptr %43, 1 : overdefined
Merged overdefined into   %45 = insertvalue { ptr, ptr, i64, [1 x i64], [1 x i64] } %44, ptr %43, 1 : overdefined
Merged undef into   %45 = insertvalue { ptr, ptr, i64, [1 x i64], [1 x i64] } %44, ptr %43, 1 : undef
Merged undef into   %45 = insertvalue { ptr, ptr, i64, [1 x i64], [1 x i64] } %44, ptr %43, 1 : undef
Merged undef into   %45 = insertvalue { ptr, ptr, i64, [1 x i64], [1 x i64] } %44, ptr %43, 1 : undef
Merged overdefined into   %46 = insertvalue { ptr, ptr, i64, [1 x i64], [1 x i64] } %45, i64 0, 2 : overdefined
Merged overdefined into   %46 = insertvalue { ptr, ptr, i64, [1 x i64], [1 x i64] } %45, i64 0, 2 : overdefined
Merged constantrange<0, 1> into   %46 = insertvalue { ptr, ptr, i64, [1 x i64], [1 x i64] } %45, i64 0, 2 : constantrange<0, 1>
Merged undef into   %46 = insertvalue { ptr, ptr, i64, [1 x i64], [1 x i64] } %45, i64 0, 2 : undef
Merged undef into   %46 = insertvalue { ptr, ptr, i64, [1 x i64], [1 x i64] } %45, i64 0, 2 : undef
markOverdefined:   %47 = insertvalue { ptr, ptr, i64, [1 x i64], [1 x i64] } %46, i64 %10, 3, 0
markOverdefined:   %47 = insertvalue { ptr, ptr, i64, [1 x i64], [1 x i64] } %46, i64 %10, 3, 0
markOverdefined:   %47 = insertvalue { ptr, ptr, i64, [1 x i64], [1 x i64] } %46, i64 %10, 3, 0
markOverdefined:   %47 = insertvalue { ptr, ptr, i64, [1 x i64], [1 x i64] } %46, i64 %10, 3, 0
markOverdefined:   %47 = insertvalue { ptr, ptr, i64, [1 x i64], [1 x i64] } %46, i64 %10, 3, 0
markOverdefined:   %48 = insertvalue { ptr, ptr, i64, [1 x i64], [1 x i64] } %47, i64 1, 4, 0
markOverdefined:   %48 = insertvalue { ptr, ptr, i64, [1 x i64], [1 x i64] } %47, i64 1, 4, 0
markOverdefined:   %48 = insertvalue { ptr, ptr, i64, [1 x i64], [1 x i64] } %47, i64 1, 4, 0
markOverdefined:   %48 = insertvalue { ptr, ptr, i64, [1 x i64], [1 x i64] } %47, i64 1, 4, 0
markOverdefined:   %48 = insertvalue { ptr, ptr, i64, [1 x i64], [1 x i64] } %47, i64 1, 4, 0
Marking Block Executable: 

Popped off BBWL: 
49:                                               ; preds = %52, %39
  %50 = phi i64 [ %54, %52 ], [ 0, %39 ]
  %51 = icmp slt i64 %50, %10
  %.01 = call i64 @llvm.ssa.copy.i64(i64 %50)
  br i1 %51, label %52, label %55

Merged constantrange<0, 1> into   %50 = phi i64 [ %54, %52 ], [ 0, %39 ] : constantrange<0, 1>
markOverdefined:   %51 = icmp slt i64 %50, %10
Merged constantrange<0, 1> into   %.01 = call i64 @llvm.ssa.copy.i64(i64 %50) : constantrange<0, 1>
Marking Block Executable: 
Marking Block Executable: 

Popped off BBWL: 
55:                                               ; preds = %49
  %56 = alloca { ptr, ptr, i64, [1 x i64], [1 x i64] }, i64 1, align 8
  store { ptr, ptr, i64, [1 x i64], [1 x i64] } %48, ptr %56, align 8
  %57 = getelementptr i64, ptr null, i64 %12
  %58 = ptrtoint ptr %57 to i64
  %59 = call ptr @malloc(i64 %58)
  %60 = insertvalue { ptr, ptr, i64, [1 x i64], [1 x i64] } undef, ptr %59, 0
  %61 = insertvalue { ptr, ptr, i64, [1 x i64], [1 x i64] } %60, ptr %59, 1
  %62 = insertvalue { ptr, ptr, i64, [1 x i64], [1 x i64] } %61, i64 0, 2
  %63 = insertvalue { ptr, ptr, i64, [1 x i64], [1 x i64] } %62, i64 %12, 3, 0
  %64 = insertvalue { ptr, ptr, i64, [1 x i64], [1 x i64] } %63, i64 1, 4, 0
  br label %65

SCCP: Don't know how to handle:   %56 = alloca { ptr, ptr, i64, [1 x i64], [1 x i64] }, i64 1, align 8
markOverdefined:   %56 = alloca { ptr, ptr, i64, [1 x i64], [1 x i64] }, i64 1, align 8
markOverdefined:   %57 = getelementptr i64, ptr null, i64 %12
markOverdefined:   %58 = ptrtoint ptr %57 to i64
Merged overdefined into   %59 = call ptr @malloc(i64 %58) : overdefined
Merged overdefined into   %60 = insertvalue { ptr, ptr, i64, [1 x i64], [1 x i64] } undef, ptr %59, 0 : overdefined
Merged undef into   %60 = insertvalue { ptr, ptr, i64, [1 x i64], [1 x i64] } undef, ptr %59, 0 : undef
Merged undef into   %60 = insertvalue { ptr, ptr, i64, [1 x i64], [1 x i64] } undef, ptr %59, 0 : undef
Merged undef into   %60 = insertvalue { ptr, ptr, i64, [1 x i64], [1 x i64] } undef, ptr %59, 0 : undef
Merged undef into   %60 = insertvalue { ptr, ptr, i64, [1 x i64], [1 x i64] } undef, ptr %59, 0 : undef
Merged overdefined into   %61 = insertvalue { ptr, ptr, i64, [1 x i64], [1 x i64] } %60, ptr %59, 1 : overdefined
Merged overdefined into   %61 = insertvalue { ptr, ptr, i64, [1 x i64], [1 x i64] } %60, ptr %59, 1 : overdefined
Merged undef into   %61 = insertvalue { ptr, ptr, i64, [1 x i64], [1 x i64] } %60, ptr %59, 1 : undef
Merged undef into   %61 = insertvalue { ptr, ptr, i64, [1 x i64], [1 x i64] } %60, ptr %59, 1 : undef
Merged undef into   %61 = insertvalue { ptr, ptr, i64, [1 x i64], [1 x i64] } %60, ptr %59, 1 : undef
Merged overdefined into   %62 = insertvalue { ptr, ptr, i64, [1 x i64], [1 x i64] } %61, i64 0, 2 : overdefined
Merged overdefined into   %62 = insertvalue { ptr, ptr, i64, [1 x i64], [1 x i64] } %61, i64 0, 2 : overdefined
Merged constantrange<0, 1> into   %62 = insertvalue { ptr, ptr, i64, [1 x i64], [1 x i64] } %61, i64 0, 2 : constantrange<0, 1>
Merged undef into   %62 = insertvalue { ptr, ptr, i64, [1 x i64], [1 x i64] } %61, i64 0, 2 : undef
Merged undef into   %62 = insertvalue { ptr, ptr, i64, [1 x i64], [1 x i64] } %61, i64 0, 2 : undef
markOverdefined:   %63 = insertvalue { ptr, ptr, i64, [1 x i64], [1 x i64] } %62, i64 %12, 3, 0
markOverdefined:   %63 = insertvalue { ptr, ptr, i64, [1 x i64], [1 x i64] } %62, i64 %12, 3, 0
markOverdefined:   %63 = insertvalue { ptr, ptr, i64, [1 x i64], [1 x i64] } %62, i64 %12, 3, 0
markOverdefined:   %63 = insertvalue { ptr, ptr, i64, [1 x i64], [1 x i64] } %62, i64 %12, 3, 0
markOverdefined:   %63 = insertvalue { ptr, ptr, i64, [1 x i64], [1 x i64] } %62, i64 %12, 3, 0
markOverdefined:   %64 = insertvalue { ptr, ptr, i64, [1 x i64], [1 x i64] } %63, i64 1, 4, 0
markOverdefined:   %64 = insertvalue { ptr, ptr, i64, [1 x i64], [1 x i64] } %63, i64 1, 4, 0
markOverdefined:   %64 = insertvalue { ptr, ptr, i64, [1 x i64], [1 x i64] } %63, i64 1, 4, 0
markOverdefined:   %64 = insertvalue { ptr, ptr, i64, [1 x i64], [1 x i64] } %63, i64 1, 4, 0
markOverdefined:   %64 = insertvalue { ptr, ptr, i64, [1 x i64], [1 x i64] } %63, i64 1, 4, 0
Marking Block Executable: 

Popped off BBWL: 
65:                                               ; preds = %68, %55
  %66 = phi i64 [ %70, %68 ], [ 0, %55 ]
  %67 = icmp slt i64 %66, %12
  %.02 = call i64 @llvm.ssa.copy.i64(i64 %66)
  br i1 %67, label %68, label %71

Merged constantrange<0, 1> into   %66 = phi i64 [ %70, %68 ], [ 0, %55 ] : constantrange<0, 1>
markOverdefined:   %67 = icmp slt i64 %66, %12
Merged constantrange<0, 1> into   %.02 = call i64 @llvm.ssa.copy.i64(i64 %66) : constantrange<0, 1>
Marking Block Executable: 
Marking Block Executable: 

Popped off BBWL: 
71:                                               ; preds = %65
  %72 = alloca { ptr, ptr, i64, [1 x i64], [1 x i64] }, i64 1, align 8
  store { ptr, ptr, i64, [1 x i64], [1 x i64] } %64, ptr %72, align 8
  %73 = getelementptr i64, ptr null, i64 %14
  %74 = ptrtoint ptr %73 to i64
  %75 = call ptr @malloc(i64 %74)
  %76 = insertvalue { ptr, ptr, i64, [1 x i64], [1 x i64] } undef, ptr %75, 0
  %77 = insertvalue { ptr, ptr, i64, [1 x i64], [1 x i64] } %76, ptr %75, 1
  %78 = insertvalue { ptr, ptr, i64, [1 x i64], [1 x i64] } %77, i64 0, 2
  %79 = insertvalue { ptr, ptr, i64, [1 x i64], [1 x i64] } %78, i64 %14, 3, 0
  %80 = insertvalue { ptr, ptr, i64, [1 x i64], [1 x i64] } %79, i64 1, 4, 0
  br label %81

SCCP: Don't know how to handle:   %72 = alloca { ptr, ptr, i64, [1 x i64], [1 x i64] }, i64 1, align 8
markOverdefined:   %72 = alloca { ptr, ptr, i64, [1 x i64], [1 x i64] }, i64 1, align 8
markOverdefined:   %73 = getelementptr i64, ptr null, i64 %14
markOverdefined:   %74 = ptrtoint ptr %73 to i64
Merged overdefined into   %75 = call ptr @malloc(i64 %74) : overdefined
Merged overdefined into   %76 = insertvalue { ptr, ptr, i64, [1 x i64], [1 x i64] } undef, ptr %75, 0 : overdefined
Merged undef into   %76 = insertvalue { ptr, ptr, i64, [1 x i64], [1 x i64] } undef, ptr %75, 0 : undef
Merged undef into   %76 = insertvalue { ptr, ptr, i64, [1 x i64], [1 x i64] } undef, ptr %75, 0 : undef
Merged undef into   %76 = insertvalue { ptr, ptr, i64, [1 x i64], [1 x i64] } undef, ptr %75, 0 : undef
Merged undef into   %76 = insertvalue { ptr, ptr, i64, [1 x i64], [1 x i64] } undef, ptr %75, 0 : undef
Merged overdefined into   %77 = insertvalue { ptr, ptr, i64, [1 x i64], [1 x i64] } %76, ptr %75, 1 : overdefined
Merged overdefined into   %77 = insertvalue { ptr, ptr, i64, [1 x i64], [1 x i64] } %76, ptr %75, 1 : overdefined
Merged undef into   %77 = insertvalue { ptr, ptr, i64, [1 x i64], [1 x i64] } %76, ptr %75, 1 : undef
Merged undef into   %77 = insertvalue { ptr, ptr, i64, [1 x i64], [1 x i64] } %76, ptr %75, 1 : undef
Merged undef into   %77 = insertvalue { ptr, ptr, i64, [1 x i64], [1 x i64] } %76, ptr %75, 1 : undef
Merged overdefined into   %78 = insertvalue { ptr, ptr, i64, [1 x i64], [1 x i64] } %77, i64 0, 2 : overdefined
Merged overdefined into   %78 = insertvalue { ptr, ptr, i64, [1 x i64], [1 x i64] } %77, i64 0, 2 : overdefined
Merged constantrange<0, 1> into   %78 = insertvalue { ptr, ptr, i64, [1 x i64], [1 x i64] } %77, i64 0, 2 : constantrange<0, 1>
Merged undef into   %78 = insertvalue { ptr, ptr, i64, [1 x i64], [1 x i64] } %77, i64 0, 2 : undef
Merged undef into   %78 = insertvalue { ptr, ptr, i64, [1 x i64], [1 x i64] } %77, i64 0, 2 : undef
markOverdefined:   %79 = insertvalue { ptr, ptr, i64, [1 x i64], [1 x i64] } %78, i64 %14, 3, 0
markOverdefined:   %79 = insertvalue { ptr, ptr, i64, [1 x i64], [1 x i64] } %78, i64 %14, 3, 0
markOverdefined:   %79 = insertvalue { ptr, ptr, i64, [1 x i64], [1 x i64] } %78, i64 %14, 3, 0
markOverdefined:   %79 = insertvalue { ptr, ptr, i64, [1 x i64], [1 x i64] } %78, i64 %14, 3, 0
markOverdefined:   %79 = insertvalue { ptr, ptr, i64, [1 x i64], [1 x i64] } %78, i64 %14, 3, 0
markOverdefined:   %80 = insertvalue { ptr, ptr, i64, [1 x i64], [1 x i64] } %79, i64 1, 4, 0
markOverdefined:   %80 = insertvalue { ptr, ptr, i64, [1 x i64], [1 x i64] } %79, i64 1, 4, 0
markOverdefined:   %80 = insertvalue { ptr, ptr, i64, [1 x i64], [1 x i64] } %79, i64 1, 4, 0
markOverdefined:   %80 = insertvalue { ptr, ptr, i64, [1 x i64], [1 x i64] } %79, i64 1, 4, 0
markOverdefined:   %80 = insertvalue { ptr, ptr, i64, [1 x i64], [1 x i64] } %79, i64 1, 4, 0
Marking Block Executable: 

Popped off BBWL: 
81:                                               ; preds = %84, %71
  %82 = phi i64 [ %86, %84 ], [ 0, %71 ]
  %83 = icmp slt i64 %82, %14
  %.03 = call i64 @llvm.ssa.copy.i64(i64 %82)
  br i1 %83, label %84, label %87

Merged constantrange<0, 1> into   %82 = phi i64 [ %86, %84 ], [ 0, %71 ] : constantrange<0, 1>
markOverdefined:   %83 = icmp slt i64 %82, %14
Merged constantrange<0, 1> into   %.03 = call i64 @llvm.ssa.copy.i64(i64 %82) : constantrange<0, 1>
Marking Block Executable: 
Marking Block Executable: 

Popped off BBWL: 
87:                                               ; preds = %81
  %88 = alloca { ptr, ptr, i64, [1 x i64], [1 x i64] }, i64 1, align 8
  store { ptr, ptr, i64, [1 x i64], [1 x i64] } %80, ptr %88, align 8
  %89 = getelementptr i64, ptr null, i64 %16
  %90 = ptrtoint ptr %89 to i64
  %91 = call ptr @malloc(i64 %90)
  %92 = insertvalue { ptr, ptr, i64, [1 x i64], [1 x i64] } undef, ptr %91, 0
  %93 = insertvalue { ptr, ptr, i64, [1 x i64], [1 x i64] } %92, ptr %91, 1
  %94 = insertvalue { ptr, ptr, i64, [1 x i64], [1 x i64] } %93, i64 0, 2
  %95 = insertvalue { ptr, ptr, i64, [1 x i64], [1 x i64] } %94, i64 %16, 3, 0
  %96 = insertvalue { ptr, ptr, i64, [1 x i64], [1 x i64] } %95, i64 1, 4, 0
  br label %97

SCCP: Don't know how to handle:   %88 = alloca { ptr, ptr, i64, [1 x i64], [1 x i64] }, i64 1, align 8
markOverdefined:   %88 = alloca { ptr, ptr, i64, [1 x i64], [1 x i64] }, i64 1, align 8
markOverdefined:   %89 = getelementptr i64, ptr null, i64 %16
markOverdefined:   %90 = ptrtoint ptr %89 to i64
Merged overdefined into   %91 = call ptr @malloc(i64 %90) : overdefined
Merged overdefined into   %92 = insertvalue { ptr, ptr, i64, [1 x i64], [1 x i64] } undef, ptr %91, 0 : overdefined
Merged undef into   %92 = insertvalue { ptr, ptr, i64, [1 x i64], [1 x i64] } undef, ptr %91, 0 : undef
Merged undef into   %92 = insertvalue { ptr, ptr, i64, [1 x i64], [1 x i64] } undef, ptr %91, 0 : undef
Merged undef into   %92 = insertvalue { ptr, ptr, i64, [1 x i64], [1 x i64] } undef, ptr %91, 0 : undef
Merged undef into   %92 = insertvalue { ptr, ptr, i64, [1 x i64], [1 x i64] } undef, ptr %91, 0 : undef
Merged overdefined into   %93 = insertvalue { ptr, ptr, i64, [1 x i64], [1 x i64] } %92, ptr %91, 1 : overdefined
Merged overdefined into   %93 = insertvalue { ptr, ptr, i64, [1 x i64], [1 x i64] } %92, ptr %91, 1 : overdefined
Merged undef into   %93 = insertvalue { ptr, ptr, i64, [1 x i64], [1 x i64] } %92, ptr %91, 1 : undef
Merged undef into   %93 = insertvalue { ptr, ptr, i64, [1 x i64], [1 x i64] } %92, ptr %91, 1 : undef
Merged undef into   %93 = insertvalue { ptr, ptr, i64, [1 x i64], [1 x i64] } %92, ptr %91, 1 : undef
Merged overdefined into   %94 = insertvalue { ptr, ptr, i64, [1 x i64], [1 x i64] } %93, i64 0, 2 : overdefined
Merged overdefined into   %94 = insertvalue { ptr, ptr, i64, [1 x i64], [1 x i64] } %93, i64 0, 2 : overdefined
Merged constantrange<0, 1> into   %94 = insertvalue { ptr, ptr, i64, [1 x i64], [1 x i64] } %93, i64 0, 2 : constantrange<0, 1>
Merged undef into   %94 = insertvalue { ptr, ptr, i64, [1 x i64], [1 x i64] } %93, i64 0, 2 : undef
Merged undef into   %94 = insertvalue { ptr, ptr, i64, [1 x i64], [1 x i64] } %93, i64 0, 2 : undef
markOverdefined:   %95 = insertvalue { ptr, ptr, i64, [1 x i64], [1 x i64] } %94, i64 %16, 3, 0
markOverdefined:   %95 = insertvalue { ptr, ptr, i64, [1 x i64], [1 x i64] } %94, i64 %16, 3, 0
markOverdefined:   %95 = insertvalue { ptr, ptr, i64, [1 x i64], [1 x i64] } %94, i64 %16, 3, 0
markOverdefined:   %95 = insertvalue { ptr, ptr, i64, [1 x i64], [1 x i64] } %94, i64 %16, 3, 0
markOverdefined:   %95 = insertvalue { ptr, ptr, i64, [1 x i64], [1 x i64] } %94, i64 %16, 3, 0
markOverdefined:   %96 = insertvalue { ptr, ptr, i64, [1 x i64], [1 x i64] } %95, i64 1, 4, 0
markOverdefined:   %96 = insertvalue { ptr, ptr, i64, [1 x i64], [1 x i64] } %95, i64 1, 4, 0
markOverdefined:   %96 = insertvalue { ptr, ptr, i64, [1 x i64], [1 x i64] } %95, i64 1, 4, 0
markOverdefined:   %96 = insertvalue { ptr, ptr, i64, [1 x i64], [1 x i64] } %95, i64 1, 4, 0
markOverdefined:   %96 = insertvalue { ptr, ptr, i64, [1 x i64], [1 x i64] } %95, i64 1, 4, 0
Marking Block Executable: 

Popped off BBWL: 
97:                                               ; preds = %100, %87
  %98 = phi i64 [ %102, %100 ], [ 0, %87 ]
  %99 = icmp slt i64 %98, %16
  %.04 = call i64 @llvm.ssa.copy.i64(i64 %98)
  br i1 %99, label %100, label %103

Merged constantrange<0, 1> into   %98 = phi i64 [ %102, %100 ], [ 0, %87 ] : constantrange<0, 1>
markOverdefined:   %99 = icmp slt i64 %98, %16
Merged constantrange<0, 1> into   %.04 = call i64 @llvm.ssa.copy.i64(i64 %98) : constantrange<0, 1>
Marking Block Executable: 
Marking Block Executable: 

Popped off BBWL: 
103:                                              ; preds = %97
  %104 = alloca { ptr, ptr, i64, [1 x i64], [1 x i64] }, i64 1, align 8
  store { ptr, ptr, i64, [1 x i64], [1 x i64] } %96, ptr %104, align 8
  %105 = getelementptr i64, ptr null, i64 %18
  %106 = ptrtoint ptr %105 to i64
  %107 = call ptr @malloc(i64 %106)
  %108 = insertvalue { ptr, ptr, i64, [1 x i64], [1 x i64] } undef, ptr %107, 0
  %109 = insertvalue { ptr, ptr, i64, [1 x i64], [1 x i64] } %108, ptr %107, 1
  %110 = insertvalue { ptr, ptr, i64, [1 x i64], [1 x i64] } %109, i64 0, 2
  %111 = insertvalue { ptr, ptr, i64, [1 x i64], [1 x i64] } %110, i64 %18, 3, 0
  %112 = insertvalue { ptr, ptr, i64, [1 x i64], [1 x i64] } %111, i64 1, 4, 0
  br label %113

SCCP: Don't know how to handle:   %104 = alloca { ptr, ptr, i64, [1 x i64], [1 x i64] }, i64 1, align 8
markOverdefined:   %104 = alloca { ptr, ptr, i64, [1 x i64], [1 x i64] }, i64 1, align 8
markOverdefined:   %105 = getelementptr i64, ptr null, i64 %18
markOverdefined:   %106 = ptrtoint ptr %105 to i64
Merged overdefined into   %107 = call ptr @malloc(i64 %106) : overdefined
Merged overdefined into   %108 = insertvalue { ptr, ptr, i64, [1 x i64], [1 x i64] } undef, ptr %107, 0 : overdefined
Merged undef into   %108 = insertvalue { ptr, ptr, i64, [1 x i64], [1 x i64] } undef, ptr %107, 0 : undef
Merged undef into   %108 = insertvalue { ptr, ptr, i64, [1 x i64], [1 x i64] } undef, ptr %107, 0 : undef
Merged undef into   %108 = insertvalue { ptr, ptr, i64, [1 x i64], [1 x i64] } undef, ptr %107, 0 : undef
Merged undef into   %108 = insertvalue { ptr, ptr, i64, [1 x i64], [1 x i64] } undef, ptr %107, 0 : undef
Merged overdefined into   %109 = insertvalue { ptr, ptr, i64, [1 x i64], [1 x i64] } %108, ptr %107, 1 : overdefined
Merged overdefined into   %109 = insertvalue { ptr, ptr, i64, [1 x i64], [1 x i64] } %108, ptr %107, 1 : overdefined
Merged undef into   %109 = insertvalue { ptr, ptr, i64, [1 x i64], [1 x i64] } %108, ptr %107, 1 : undef
Merged undef into   %109 = insertvalue { ptr, ptr, i64, [1 x i64], [1 x i64] } %108, ptr %107, 1 : undef
Merged undef into   %109 = insertvalue { ptr, ptr, i64, [1 x i64], [1 x i64] } %108, ptr %107, 1 : undef
Merged overdefined into   %110 = insertvalue { ptr, ptr, i64, [1 x i64], [1 x i64] } %109, i64 0, 2 : overdefined
Merged overdefined into   %110 = insertvalue { ptr, ptr, i64, [1 x i64], [1 x i64] } %109, i64 0, 2 : overdefined
Merged constantrange<0, 1> into   %110 = insertvalue { ptr, ptr, i64, [1 x i64], [1 x i64] } %109, i64 0, 2 : constantrange<0, 1>
Merged undef into   %110 = insertvalue { ptr, ptr, i64, [1 x i64], [1 x i64] } %109, i64 0, 2 : undef
Merged undef into   %110 = insertvalue { ptr, ptr, i64, [1 x i64], [1 x i64] } %109, i64 0, 2 : undef
markOverdefined:   %111 = insertvalue { ptr, ptr, i64, [1 x i64], [1 x i64] } %110, i64 %18, 3, 0
markOverdefined:   %111 = insertvalue { ptr, ptr, i64, [1 x i64], [1 x i64] } %110, i64 %18, 3, 0
markOverdefined:   %111 = insertvalue { ptr, ptr, i64, [1 x i64], [1 x i64] } %110, i64 %18, 3, 0
markOverdefined:   %111 = insertvalue { ptr, ptr, i64, [1 x i64], [1 x i64] } %110, i64 %18, 3, 0
markOverdefined:   %111 = insertvalue { ptr, ptr, i64, [1 x i64], [1 x i64] } %110, i64 %18, 3, 0
markOverdefined:   %112 = insertvalue { ptr, ptr, i64, [1 x i64], [1 x i64] } %111, i64 1, 4, 0
markOverdefined:   %112 = insertvalue { ptr, ptr, i64, [1 x i64], [1 x i64] } %111, i64 1, 4, 0
markOverdefined:   %112 = insertvalue { ptr, ptr, i64, [1 x i64], [1 x i64] } %111, i64 1, 4, 0
markOverdefined:   %112 = insertvalue { ptr, ptr, i64, [1 x i64], [1 x i64] } %111, i64 1, 4, 0
markOverdefined:   %112 = insertvalue { ptr, ptr, i64, [1 x i64], [1 x i64] } %111, i64 1, 4, 0
Marking Block Executable: 

Popped off BBWL: 
113:                                              ; preds = %116, %103
  %114 = phi i64 [ %118, %116 ], [ 0, %103 ]
  %115 = icmp slt i64 %114, %18
  %.05 = call i64 @llvm.ssa.copy.i64(i64 %114)
  br i1 %115, label %116, label %119

Merged constantrange<0, 1> into   %114 = phi i64 [ %118, %116 ], [ 0, %103 ] : constantrange<0, 1>
markOverdefined:   %115 = icmp slt i64 %114, %18
Merged constantrange<0, 1> into   %.05 = call i64 @llvm.ssa.copy.i64(i64 %114) : constantrange<0, 1>
Marking Block Executable: 
Marking Block Executable: 

Popped off BBWL: 
119:                                              ; preds = %113
  %120 = alloca { ptr, ptr, i64, [1 x i64], [1 x i64] }, i64 1, align 8
  store { ptr, ptr, i64, [1 x i64], [1 x i64] } %112, ptr %120, align 8
  %121 = getelementptr i64, ptr null, i64 %20
  %122 = ptrtoint ptr %121 to i64
  %123 = call ptr @malloc(i64 %122)
  %124 = insertvalue { ptr, ptr, i64, [1 x i64], [1 x i64] } undef, ptr %123, 0
  %125 = insertvalue { ptr, ptr, i64, [1 x i64], [1 x i64] } %124, ptr %123, 1
  %126 = insertvalue { ptr, ptr, i64, [1 x i64], [1 x i64] } %125, i64 0, 2
  %127 = insertvalue { ptr, ptr, i64, [1 x i64], [1 x i64] } %126, i64 %20, 3, 0
  %128 = insertvalue { ptr, ptr, i64, [1 x i64], [1 x i64] } %127, i64 1, 4, 0
  br label %129

SCCP: Don't know how to handle:   %120 = alloca { ptr, ptr, i64, [1 x i64], [1 x i64] }, i64 1, align 8
markOverdefined:   %120 = alloca { ptr, ptr, i64, [1 x i64], [1 x i64] }, i64 1, align 8
markOverdefined:   %121 = getelementptr i64, ptr null, i64 %20
markOverdefined:   %122 = ptrtoint ptr %121 to i64
Merged overdefined into   %123 = call ptr @malloc(i64 %122) : overdefined
Merged overdefined into   %124 = insertvalue { ptr, ptr, i64, [1 x i64], [1 x i64] } undef, ptr %123, 0 : overdefined
Merged undef into   %124 = insertvalue { ptr, ptr, i64, [1 x i64], [1 x i64] } undef, ptr %123, 0 : undef
Merged undef into   %124 = insertvalue { ptr, ptr, i64, [1 x i64], [1 x i64] } undef, ptr %123, 0 : undef
Merged undef into   %124 = insertvalue { ptr, ptr, i64, [1 x i64], [1 x i64] } undef, ptr %123, 0 : undef
Merged undef into   %124 = insertvalue { ptr, ptr, i64, [1 x i64], [1 x i64] } undef, ptr %123, 0 : undef
Merged overdefined into   %125 = insertvalue { ptr, ptr, i64, [1 x i64], [1 x i64] } %124, ptr %123, 1 : overdefined
Merged overdefined into   %125 = insertvalue { ptr, ptr, i64, [1 x i64], [1 x i64] } %124, ptr %123, 1 : overdefined
Merged undef into   %125 = insertvalue { ptr, ptr, i64, [1 x i64], [1 x i64] } %124, ptr %123, 1 : undef
Merged undef into   %125 = insertvalue { ptr, ptr, i64, [1 x i64], [1 x i64] } %124, ptr %123, 1 : undef
Merged undef into   %125 = insertvalue { ptr, ptr, i64, [1 x i64], [1 x i64] } %124, ptr %123, 1 : undef
Merged overdefined into   %126 = insertvalue { ptr, ptr, i64, [1 x i64], [1 x i64] } %125, i64 0, 2 : overdefined
Merged overdefined into   %126 = insertvalue { ptr, ptr, i64, [1 x i64], [1 x i64] } %125, i64 0, 2 : overdefined
Merged constantrange<0, 1> into   %126 = insertvalue { ptr, ptr, i64, [1 x i64], [1 x i64] } %125, i64 0, 2 : constantrange<0, 1>
Merged undef into   %126 = insertvalue { ptr, ptr, i64, [1 x i64], [1 x i64] } %125, i64 0, 2 : undef
Merged undef into   %126 = insertvalue { ptr, ptr, i64, [1 x i64], [1 x i64] } %125, i64 0, 2 : undef
markOverdefined:   %127 = insertvalue { ptr, ptr, i64, [1 x i64], [1 x i64] } %126, i64 %20, 3, 0
markOverdefined:   %127 = insertvalue { ptr, ptr, i64, [1 x i64], [1 x i64] } %126, i64 %20, 3, 0
markOverdefined:   %127 = insertvalue { ptr, ptr, i64, [1 x i64], [1 x i64] } %126, i64 %20, 3, 0
markOverdefined:   %127 = insertvalue { ptr, ptr, i64, [1 x i64], [1 x i64] } %126, i64 %20, 3, 0
markOverdefined:   %127 = insertvalue { ptr, ptr, i64, [1 x i64], [1 x i64] } %126, i64 %20, 3, 0
markOverdefined:   %128 = insertvalue { ptr, ptr, i64, [1 x i64], [1 x i64] } %127, i64 1, 4, 0
markOverdefined:   %128 = insertvalue { ptr, ptr, i64, [1 x i64], [1 x i64] } %127, i64 1, 4, 0
markOverdefined:   %128 = insertvalue { ptr, ptr, i64, [1 x i64], [1 x i64] } %127, i64 1, 4, 0
markOverdefined:   %128 = insertvalue { ptr, ptr, i64, [1 x i64], [1 x i64] } %127, i64 1, 4, 0
markOverdefined:   %128 = insertvalue { ptr, ptr, i64, [1 x i64], [1 x i64] } %127, i64 1, 4, 0
Marking Block Executable: 

Popped off BBWL: 
129:                                              ; preds = %132, %119
  %130 = phi i64 [ %134, %132 ], [ 0, %119 ]
  %131 = icmp slt i64 %130, %20
  %.06 = call i64 @llvm.ssa.copy.i64(i64 %130)
  br i1 %131, label %132, label %135

Merged constantrange<0, 1> into   %130 = phi i64 [ %134, %132 ], [ 0, %119 ] : constantrange<0, 1>
markOverdefined:   %131 = icmp slt i64 %130, %20
Merged constantrange<0, 1> into   %.06 = call i64 @llvm.ssa.copy.i64(i64 %130) : constantrange<0, 1>
Marking Block Executable: 
Marking Block Executable: 

Popped off BBWL: 
135:                                              ; preds = %129
  %136 = alloca { ptr, ptr, i64, [1 x i64], [1 x i64] }, i64 1, align 8
  store { ptr, ptr, i64, [1 x i64], [1 x i64] } %128, ptr %136, align 8
  %137 = getelementptr i64, ptr null, i64 %22
  %138 = ptrtoint ptr %137 to i64
  %139 = call ptr @malloc(i64 %138)
  %140 = insertvalue { ptr, ptr, i64, [1 x i64], [1 x i64] } undef, ptr %139, 0
  %141 = insertvalue { ptr, ptr, i64, [1 x i64], [1 x i64] } %140, ptr %139, 1
  %142 = insertvalue { ptr, ptr, i64, [1 x i64], [1 x i64] } %141, i64 0, 2
  %143 = insertvalue { ptr, ptr, i64, [1 x i64], [1 x i64] } %142, i64 %22, 3, 0
  %144 = insertvalue { ptr, ptr, i64, [1 x i64], [1 x i64] } %143, i64 1, 4, 0
  br label %145

SCCP: Don't know how to handle:   %136 = alloca { ptr, ptr, i64, [1 x i64], [1 x i64] }, i64 1, align 8
markOverdefined:   %136 = alloca { ptr, ptr, i64, [1 x i64], [1 x i64] }, i64 1, align 8
markOverdefined:   %137 = getelementptr i64, ptr null, i64 %22
markOverdefined:   %138 = ptrtoint ptr %137 to i64
Merged overdefined into   %139 = call ptr @malloc(i64 %138) : overdefined
Merged overdefined into   %140 = insertvalue { ptr, ptr, i64, [1 x i64], [1 x i64] } undef, ptr %139, 0 : overdefined
Merged undef into   %140 = insertvalue { ptr, ptr, i64, [1 x i64], [1 x i64] } undef, ptr %139, 0 : undef
Merged undef into   %140 = insertvalue { ptr, ptr, i64, [1 x i64], [1 x i64] } undef, ptr %139, 0 : undef
Merged undef into   %140 = insertvalue { ptr, ptr, i64, [1 x i64], [1 x i64] } undef, ptr %139, 0 : undef
Merged undef into   %140 = insertvalue { ptr, ptr, i64, [1 x i64], [1 x i64] } undef, ptr %139, 0 : undef
Merged overdefined into   %141 = insertvalue { ptr, ptr, i64, [1 x i64], [1 x i64] } %140, ptr %139, 1 : overdefined
Merged overdefined into   %141 = insertvalue { ptr, ptr, i64, [1 x i64], [1 x i64] } %140, ptr %139, 1 : overdefined
Merged undef into   %141 = insertvalue { ptr, ptr, i64, [1 x i64], [1 x i64] } %140, ptr %139, 1 : undef
Merged undef into   %141 = insertvalue { ptr, ptr, i64, [1 x i64], [1 x i64] } %140, ptr %139, 1 : undef
Merged undef into   %141 = insertvalue { ptr, ptr, i64, [1 x i64], [1 x i64] } %140, ptr %139, 1 : undef
Merged overdefined into   %142 = insertvalue { ptr, ptr, i64, [1 x i64], [1 x i64] } %141, i64 0, 2 : overdefined
Merged overdefined into   %142 = insertvalue { ptr, ptr, i64, [1 x i64], [1 x i64] } %141, i64 0, 2 : overdefined
Merged constantrange<0, 1> into   %142 = insertvalue { ptr, ptr, i64, [1 x i64], [1 x i64] } %141, i64 0, 2 : constantrange<0, 1>
Merged undef into   %142 = insertvalue { ptr, ptr, i64, [1 x i64], [1 x i64] } %141, i64 0, 2 : undef
Merged undef into   %142 = insertvalue { ptr, ptr, i64, [1 x i64], [1 x i64] } %141, i64 0, 2 : undef
markOverdefined:   %143 = insertvalue { ptr, ptr, i64, [1 x i64], [1 x i64] } %142, i64 %22, 3, 0
markOverdefined:   %143 = insertvalue { ptr, ptr, i64, [1 x i64], [1 x i64] } %142, i64 %22, 3, 0
markOverdefined:   %143 = insertvalue { ptr, ptr, i64, [1 x i64], [1 x i64] } %142, i64 %22, 3, 0
markOverdefined:   %143 = insertvalue { ptr, ptr, i64, [1 x i64], [1 x i64] } %142, i64 %22, 3, 0
markOverdefined:   %143 = insertvalue { ptr, ptr, i64, [1 x i64], [1 x i64] } %142, i64 %22, 3, 0
markOverdefined:   %144 = insertvalue { ptr, ptr, i64, [1 x i64], [1 x i64] } %143, i64 1, 4, 0
markOverdefined:   %144 = insertvalue { ptr, ptr, i64, [1 x i64], [1 x i64] } %143, i64 1, 4, 0
markOverdefined:   %144 = insertvalue { ptr, ptr, i64, [1 x i64], [1 x i64] } %143, i64 1, 4, 0
markOverdefined:   %144 = insertvalue { ptr, ptr, i64, [1 x i64], [1 x i64] } %143, i64 1, 4, 0
markOverdefined:   %144 = insertvalue { ptr, ptr, i64, [1 x i64], [1 x i64] } %143, i64 1, 4, 0
Marking Block Executable: 

Popped off BBWL: 
145:                                              ; preds = %148, %135
  %146 = phi i64 [ %150, %148 ], [ 0, %135 ]
  %147 = icmp slt i64 %146, %22
  %.07 = call i64 @llvm.ssa.copy.i64(i64 %146)
  br i1 %147, label %148, label %151

Merged constantrange<0, 1> into   %146 = phi i64 [ %150, %148 ], [ 0, %135 ] : constantrange<0, 1>
markOverdefined:   %147 = icmp slt i64 %146, %22
Merged constantrange<0, 1> into   %.07 = call i64 @llvm.ssa.copy.i64(i64 %146) : constantrange<0, 1>
Marking Block Executable: 
Marking Block Executable: 

Popped off BBWL: 
151:                                              ; preds = %145
  %152 = alloca { ptr, ptr, i64, [1 x i64], [1 x i64] }, i64 1, align 8
  store { ptr, ptr, i64, [1 x i64], [1 x i64] } %144, ptr %152, align 8
  %153 = getelementptr double, ptr null, i64 %24
  %154 = ptrtoint ptr %153 to i64
  %155 = call ptr @malloc(i64 %154)
  %156 = insertvalue { ptr, ptr, i64, [1 x i64], [1 x i64] } undef, ptr %155, 0
  %157 = insertvalue { ptr, ptr, i64, [1 x i64], [1 x i64] } %156, ptr %155, 1
  %158 = insertvalue { ptr, ptr, i64, [1 x i64], [1 x i64] } %157, i64 0, 2
  %159 = insertvalue { ptr, ptr, i64, [1 x i64], [1 x i64] } %158, i64 %24, 3, 0
  %160 = insertvalue { ptr, ptr, i64, [1 x i64], [1 x i64] } %159, i64 1, 4, 0
  br label %161

SCCP: Don't know how to handle:   %152 = alloca { ptr, ptr, i64, [1 x i64], [1 x i64] }, i64 1, align 8
markOverdefined:   %152 = alloca { ptr, ptr, i64, [1 x i64], [1 x i64] }, i64 1, align 8
markOverdefined:   %153 = getelementptr double, ptr null, i64 %24
markOverdefined:   %154 = ptrtoint ptr %153 to i64
Merged overdefined into   %155 = call ptr @malloc(i64 %154) : overdefined
Merged overdefined into   %156 = insertvalue { ptr, ptr, i64, [1 x i64], [1 x i64] } undef, ptr %155, 0 : overdefined
Merged undef into   %156 = insertvalue { ptr, ptr, i64, [1 x i64], [1 x i64] } undef, ptr %155, 0 : undef
Merged undef into   %156 = insertvalue { ptr, ptr, i64, [1 x i64], [1 x i64] } undef, ptr %155, 0 : undef
Merged undef into   %156 = insertvalue { ptr, ptr, i64, [1 x i64], [1 x i64] } undef, ptr %155, 0 : undef
Merged undef into   %156 = insertvalue { ptr, ptr, i64, [1 x i64], [1 x i64] } undef, ptr %155, 0 : undef
Merged overdefined into   %157 = insertvalue { ptr, ptr, i64, [1 x i64], [1 x i64] } %156, ptr %155, 1 : overdefined
Merged overdefined into   %157 = insertvalue { ptr, ptr, i64, [1 x i64], [1 x i64] } %156, ptr %155, 1 : overdefined
Merged undef into   %157 = insertvalue { ptr, ptr, i64, [1 x i64], [1 x i64] } %156, ptr %155, 1 : undef
Merged undef into   %157 = insertvalue { ptr, ptr, i64, [1 x i64], [1 x i64] } %156, ptr %155, 1 : undef
Merged undef into   %157 = insertvalue { ptr, ptr, i64, [1 x i64], [1 x i64] } %156, ptr %155, 1 : undef
Merged overdefined into   %158 = insertvalue { ptr, ptr, i64, [1 x i64], [1 x i64] } %157, i64 0, 2 : overdefined
Merged overdefined into   %158 = insertvalue { ptr, ptr, i64, [1 x i64], [1 x i64] } %157, i64 0, 2 : overdefined
Merged constantrange<0, 1> into   %158 = insertvalue { ptr, ptr, i64, [1 x i64], [1 x i64] } %157, i64 0, 2 : constantrange<0, 1>
Merged undef into   %158 = insertvalue { ptr, ptr, i64, [1 x i64], [1 x i64] } %157, i64 0, 2 : undef
Merged undef into   %158 = insertvalue { ptr, ptr, i64, [1 x i64], [1 x i64] } %157, i64 0, 2 : undef
markOverdefined:   %159 = insertvalue { ptr, ptr, i64, [1 x i64], [1 x i64] } %158, i64 %24, 3, 0
markOverdefined:   %159 = insertvalue { ptr, ptr, i64, [1 x i64], [1 x i64] } %158, i64 %24, 3, 0
markOverdefined:   %159 = insertvalue { ptr, ptr, i64, [1 x i64], [1 x i64] } %158, i64 %24, 3, 0
markOverdefined:   %159 = insertvalue { ptr, ptr, i64, [1 x i64], [1 x i64] } %158, i64 %24, 3, 0
markOverdefined:   %159 = insertvalue { ptr, ptr, i64, [1 x i64], [1 x i64] } %158, i64 %24, 3, 0
markOverdefined:   %160 = insertvalue { ptr, ptr, i64, [1 x i64], [1 x i64] } %159, i64 1, 4, 0
markOverdefined:   %160 = insertvalue { ptr, ptr, i64, [1 x i64], [1 x i64] } %159, i64 1, 4, 0
markOverdefined:   %160 = insertvalue { ptr, ptr, i64, [1 x i64], [1 x i64] } %159, i64 1, 4, 0
markOverdefined:   %160 = insertvalue { ptr, ptr, i64, [1 x i64], [1 x i64] } %159, i64 1, 4, 0
markOverdefined:   %160 = insertvalue { ptr, ptr, i64, [1 x i64], [1 x i64] } %159, i64 1, 4, 0
Marking Block Executable: 

Popped off BBWL: 
161:                                              ; preds = %164, %151
  %162 = phi i64 [ %166, %164 ], [ 0, %151 ]
  %163 = icmp slt i64 %162, %24
  %.08 = call i64 @llvm.ssa.copy.i64(i64 %162)
  br i1 %163, label %164, label %167

Merged constantrange<0, 1> into   %162 = phi i64 [ %166, %164 ], [ 0, %151 ] : constantrange<0, 1>
markOverdefined:   %163 = icmp slt i64 %162, %24
Merged constantrange<0, 1> into   %.08 = call i64 @llvm.ssa.copy.i64(i64 %162) : constantrange<0, 1>
Marking Block Executable: 
Marking Block Executable: 

Popped off BBWL: 
167:                                              ; preds = %161
  %168 = alloca { ptr, ptr, i64, [1 x i64], [1 x i64] }, i64 1, align 8
  store { ptr, ptr, i64, [1 x i64], [1 x i64] } %160, ptr %168, align 8
  call void @read_input_2D_f64(i32 1, i64 0, i64 3, i64 0, i64 -1, i64 1, ptr %40, i64 1, ptr %56, i64 1, ptr %72, i64 1, ptr %88, i64 1, ptr %104, i64 1, ptr %120, i64 1, ptr %136, i64 1, ptr %152, i64 1, ptr %168, i32 1)
  call void @comet_print_memref_i64(i64 1, ptr %40)
  call void @comet_print_memref_i64(i64 1, ptr %56)
  call void @comet_print_memref_i64(i64 1, ptr %72)
  call void @comet_print_memref_i64(i64 1, ptr %88)
  call void @comet_print_memref_i64(i64 1, ptr %104)
  call void @comet_print_memref_i64(i64 1, ptr %120)
  call void @comet_print_memref_i64(i64 1, ptr %136)
  call void @comet_print_memref_i64(i64 1, ptr %152)
  call void @comet_print_memref_f64(i64 1, ptr %168)
  ret void

SCCP: Don't know how to handle:   %168 = alloca { ptr, ptr, i64, [1 x i64], [1 x i64] }, i64 1, align 8
markOverdefined:   %168 = alloca { ptr, ptr, i64, [1 x i64], [1 x i64] }, i64 1, align 8

Popped off BBWL: 
164:                                              ; preds = %161
  %165 = getelementptr double, ptr %155, i64 %.08
  store double 0.000000e+00, ptr %165, align 8
  %166 = add i64 %.08, 1
  br label %161

markOverdefined:   %165 = getelementptr double, ptr %155, i64 %.08
Merged constantrange<1, 2> into   %166 = add i64 %.08, 1 : constantrange<1, 2>
Marking Edge Executable:  -> 
Merged constantrange<0, 2> into   %162 = phi i64 [ %166, %164 ], [ 0, %151 ] : constantrange<0, 2>

Popped off BBWL: 
148:                                              ; preds = %145
  %149 = getelementptr i64, ptr %139, i64 %.07
  store i64 0, ptr %149, align 4
  %150 = add i64 %.07, 1
  br label %145

markOverdefined:   %149 = getelementptr i64, ptr %139, i64 %.07
Merged constantrange<1, 2> into   %150 = add i64 %.07, 1 : constantrange<1, 2>
Marking Edge Executable:  -> 
Merged constantrange<0, 2> into   %146 = phi i64 [ %150, %148 ], [ 0, %135 ] : constantrange<0, 2>

Popped off BBWL: 
132:                                              ; preds = %129
  %133 = getelementptr i64, ptr %123, i64 %.06
  store i64 0, ptr %133, align 4
  %134 = add i64 %.06, 1
  br label %129

markOverdefined:   %133 = getelementptr i64, ptr %123, i64 %.06
Merged constantrange<1, 2> into   %134 = add i64 %.06, 1 : constantrange<1, 2>
Marking Edge Executable:  -> 
Merged constantrange<0, 2> into   %130 = phi i64 [ %134, %132 ], [ 0, %119 ] : constantrange<0, 2>

Popped off BBWL: 
116:                                              ; preds = %113
  %117 = getelementptr i64, ptr %107, i64 %.05
  store i64 0, ptr %117, align 4
  %118 = add i64 %.05, 1
  br label %113

markOverdefined:   %117 = getelementptr i64, ptr %107, i64 %.05
Merged constantrange<1, 2> into   %118 = add i64 %.05, 1 : constantrange<1, 2>
Marking Edge Executable:  -> 
Merged constantrange<0, 2> into   %114 = phi i64 [ %118, %116 ], [ 0, %103 ] : constantrange<0, 2>

Popped off BBWL: 
100:                                              ; preds = %97
  %101 = getelementptr i64, ptr %91, i64 %.04
  store i64 0, ptr %101, align 4
  %102 = add i64 %.04, 1
  br label %97

markOverdefined:   %101 = getelementptr i64, ptr %91, i64 %.04
Merged constantrange<1, 2> into   %102 = add i64 %.04, 1 : constantrange<1, 2>
Marking Edge Executable:  -> 
Merged constantrange<0, 2> into   %98 = phi i64 [ %102, %100 ], [ 0, %87 ] : constantrange<0, 2>

Popped off BBWL: 
84:                                               ; preds = %81
  %85 = getelementptr i64, ptr %75, i64 %.03
  store i64 0, ptr %85, align 4
  %86 = add i64 %.03, 1
  br label %81

markOverdefined:   %85 = getelementptr i64, ptr %75, i64 %.03
Merged constantrange<1, 2> into   %86 = add i64 %.03, 1 : constantrange<1, 2>
Marking Edge Executable:  -> 
Merged constantrange<0, 2> into   %82 = phi i64 [ %86, %84 ], [ 0, %71 ] : constantrange<0, 2>

Popped off BBWL: 
68:                                               ; preds = %65
  %69 = getelementptr i64, ptr %59, i64 %.02
  store i64 0, ptr %69, align 4
  %70 = add i64 %.02, 1
  br label %65

markOverdefined:   %69 = getelementptr i64, ptr %59, i64 %.02
Merged constantrange<1, 2> into   %70 = add i64 %.02, 1 : constantrange<1, 2>
Marking Edge Executable:  -> 
Merged constantrange<0, 2> into   %66 = phi i64 [ %70, %68 ], [ 0, %55 ] : constantrange<0, 2>

Popped off BBWL: 
52:                                               ; preds = %49
  %53 = getelementptr i64, ptr %43, i64 %.01
  store i64 0, ptr %53, align 4
  %54 = add i64 %.01, 1
  br label %49

markOverdefined:   %53 = getelementptr i64, ptr %43, i64 %.01
Merged constantrange<1, 2> into   %54 = add i64 %.01, 1 : constantrange<1, 2>
Marking Edge Executable:  -> 
Merged constantrange<0, 2> into   %50 = phi i64 [ %54, %52 ], [ 0, %39 ] : constantrange<0, 2>

Popped off BBWL: 
36:                                               ; preds = %33
  %37 = getelementptr i64, ptr %27, i64 %.0
  store i64 0, ptr %37, align 4
  %38 = add i64 %.0, 1
  br label %33

markOverdefined:   %37 = getelementptr i64, ptr %27, i64 %.0
Merged constantrange<1, 2> into   %38 = add i64 %.0, 1 : constantrange<1, 2>
Marking Edge Executable:  -> 
Merged constantrange<0, 2> into   %34 = phi i64 [ %38, %36 ], [ 0, %0 ] : constantrange<0, 2>

Popped off OI-WL:   %37 = getelementptr i64, ptr %27, i64 %.0

Popped off OI-WL:   %53 = getelementptr i64, ptr %43, i64 %.01

Popped off OI-WL:   %69 = getelementptr i64, ptr %59, i64 %.02

Popped off OI-WL:   %85 = getelementptr i64, ptr %75, i64 %.03

Popped off OI-WL:   %101 = getelementptr i64, ptr %91, i64 %.04

Popped off OI-WL:   %117 = getelementptr i64, ptr %107, i64 %.05

Popped off OI-WL:   %133 = getelementptr i64, ptr %123, i64 %.06

Popped off OI-WL:   %149 = getelementptr i64, ptr %139, i64 %.07

Popped off OI-WL:   %165 = getelementptr double, ptr %155, i64 %.08

Popped off OI-WL:   %168 = alloca { ptr, ptr, i64, [1 x i64], [1 x i64] }, i64 1, align 8

Popped off OI-WL:   %163 = icmp slt i64 %162, %24

Popped off OI-WL:   %160 = insertvalue { ptr, ptr, i64, [1 x i64], [1 x i64] } %159, i64 1, 4, 0

Popped off OI-WL:   %160 = insertvalue { ptr, ptr, i64, [1 x i64], [1 x i64] } %159, i64 1, 4, 0

Popped off OI-WL:   %160 = insertvalue { ptr, ptr, i64, [1 x i64], [1 x i64] } %159, i64 1, 4, 0

Popped off OI-WL:   %160 = insertvalue { ptr, ptr, i64, [1 x i64], [1 x i64] } %159, i64 1, 4, 0

Popped off OI-WL:   %160 = insertvalue { ptr, ptr, i64, [1 x i64], [1 x i64] } %159, i64 1, 4, 0

Popped off OI-WL:   %159 = insertvalue { ptr, ptr, i64, [1 x i64], [1 x i64] } %158, i64 %24, 3, 0

Popped off OI-WL:   %159 = insertvalue { ptr, ptr, i64, [1 x i64], [1 x i64] } %158, i64 %24, 3, 0

Popped off OI-WL:   %159 = insertvalue { ptr, ptr, i64, [1 x i64], [1 x i64] } %158, i64 %24, 3, 0

Popped off OI-WL:   %159 = insertvalue { ptr, ptr, i64, [1 x i64], [1 x i64] } %158, i64 %24, 3, 0

Popped off OI-WL:   %159 = insertvalue { ptr, ptr, i64, [1 x i64], [1 x i64] } %158, i64 %24, 3, 0

Popped off OI-WL:   %158 = insertvalue { ptr, ptr, i64, [1 x i64], [1 x i64] } %157, i64 0, 2

Popped off OI-WL:   %158 = insertvalue { ptr, ptr, i64, [1 x i64], [1 x i64] } %157, i64 0, 2

Popped off OI-WL:   %157 = insertvalue { ptr, ptr, i64, [1 x i64], [1 x i64] } %156, ptr %155, 1

Popped off OI-WL:   %157 = insertvalue { ptr, ptr, i64, [1 x i64], [1 x i64] } %156, ptr %155, 1

Popped off OI-WL:   %156 = insertvalue { ptr, ptr, i64, [1 x i64], [1 x i64] } undef, ptr %155, 0

Popped off OI-WL:   %155 = call ptr @malloc(i64 %154)

Popped off OI-WL:   %154 = ptrtoint ptr %153 to i64

Popped off OI-WL:   %153 = getelementptr double, ptr null, i64 %24

Popped off OI-WL:   %152 = alloca { ptr, ptr, i64, [1 x i64], [1 x i64] }, i64 1, align 8

Popped off OI-WL:   %147 = icmp slt i64 %146, %22

Popped off OI-WL:   %144 = insertvalue { ptr, ptr, i64, [1 x i64], [1 x i64] } %143, i64 1, 4, 0

Popped off OI-WL:   %144 = insertvalue { ptr, ptr, i64, [1 x i64], [1 x i64] } %143, i64 1, 4, 0

Popped off OI-WL:   %144 = insertvalue { ptr, ptr, i64, [1 x i64], [1 x i64] } %143, i64 1, 4, 0

Popped off OI-WL:   %144 = insertvalue { ptr, ptr, i64, [1 x i64], [1 x i64] } %143, i64 1, 4, 0

Popped off OI-WL:   %144 = insertvalue { ptr, ptr, i64, [1 x i64], [1 x i64] } %143, i64 1, 4, 0

Popped off OI-WL:   %143 = insertvalue { ptr, ptr, i64, [1 x i64], [1 x i64] } %142, i64 %22, 3, 0

Popped off OI-WL:   %143 = insertvalue { ptr, ptr, i64, [1 x i64], [1 x i64] } %142, i64 %22, 3, 0

Popped off OI-WL:   %143 = insertvalue { ptr, ptr, i64, [1 x i64], [1 x i64] } %142, i64 %22, 3, 0

Popped off OI-WL:   %143 = insertvalue { ptr, ptr, i64, [1 x i64], [1 x i64] } %142, i64 %22, 3, 0

Popped off OI-WL:   %143 = insertvalue { ptr, ptr, i64, [1 x i64], [1 x i64] } %142, i64 %22, 3, 0

Popped off OI-WL:   %142 = insertvalue { ptr, ptr, i64, [1 x i64], [1 x i64] } %141, i64 0, 2

Popped off OI-WL:   %142 = insertvalue { ptr, ptr, i64, [1 x i64], [1 x i64] } %141, i64 0, 2

Popped off OI-WL:   %141 = insertvalue { ptr, ptr, i64, [1 x i64], [1 x i64] } %140, ptr %139, 1

Popped off OI-WL:   %141 = insertvalue { ptr, ptr, i64, [1 x i64], [1 x i64] } %140, ptr %139, 1

Popped off OI-WL:   %140 = insertvalue { ptr, ptr, i64, [1 x i64], [1 x i64] } undef, ptr %139, 0

Popped off OI-WL:   %139 = call ptr @malloc(i64 %138)

Popped off OI-WL:   %138 = ptrtoint ptr %137 to i64

Popped off OI-WL:   %137 = getelementptr i64, ptr null, i64 %22

Popped off OI-WL:   %136 = alloca { ptr, ptr, i64, [1 x i64], [1 x i64] }, i64 1, align 8

Popped off OI-WL:   %131 = icmp slt i64 %130, %20

Popped off OI-WL:   %128 = insertvalue { ptr, ptr, i64, [1 x i64], [1 x i64] } %127, i64 1, 4, 0

Popped off OI-WL:   %128 = insertvalue { ptr, ptr, i64, [1 x i64], [1 x i64] } %127, i64 1, 4, 0

Popped off OI-WL:   %128 = insertvalue { ptr, ptr, i64, [1 x i64], [1 x i64] } %127, i64 1, 4, 0

Popped off OI-WL:   %128 = insertvalue { ptr, ptr, i64, [1 x i64], [1 x i64] } %127, i64 1, 4, 0

Popped off OI-WL:   %128 = insertvalue { ptr, ptr, i64, [1 x i64], [1 x i64] } %127, i64 1, 4, 0

Popped off OI-WL:   %127 = insertvalue { ptr, ptr, i64, [1 x i64], [1 x i64] } %126, i64 %20, 3, 0

Popped off OI-WL:   %127 = insertvalue { ptr, ptr, i64, [1 x i64], [1 x i64] } %126, i64 %20, 3, 0

Popped off OI-WL:   %127 = insertvalue { ptr, ptr, i64, [1 x i64], [1 x i64] } %126, i64 %20, 3, 0

Popped off OI-WL:   %127 = insertvalue { ptr, ptr, i64, [1 x i64], [1 x i64] } %126, i64 %20, 3, 0

Popped off OI-WL:   %127 = insertvalue { ptr, ptr, i64, [1 x i64], [1 x i64] } %126, i64 %20, 3, 0

Popped off OI-WL:   %126 = insertvalue { ptr, ptr, i64, [1 x i64], [1 x i64] } %125, i64 0, 2

Popped off OI-WL:   %126 = insertvalue { ptr, ptr, i64, [1 x i64], [1 x i64] } %125, i64 0, 2

Popped off OI-WL:   %125 = insertvalue { ptr, ptr, i64, [1 x i64], [1 x i64] } %124, ptr %123, 1

Popped off OI-WL:   %125 = insertvalue { ptr, ptr, i64, [1 x i64], [1 x i64] } %124, ptr %123, 1

Popped off OI-WL:   %124 = insertvalue { ptr, ptr, i64, [1 x i64], [1 x i64] } undef, ptr %123, 0

Popped off OI-WL:   %123 = call ptr @malloc(i64 %122)

Popped off OI-WL:   %122 = ptrtoint ptr %121 to i64

Popped off OI-WL:   %121 = getelementptr i64, ptr null, i64 %20

Popped off OI-WL:   %120 = alloca { ptr, ptr, i64, [1 x i64], [1 x i64] }, i64 1, align 8

Popped off OI-WL:   %115 = icmp slt i64 %114, %18

Popped off OI-WL:   %112 = insertvalue { ptr, ptr, i64, [1 x i64], [1 x i64] } %111, i64 1, 4, 0

Popped off OI-WL:   %112 = insertvalue { ptr, ptr, i64, [1 x i64], [1 x i64] } %111, i64 1, 4, 0

Popped off OI-WL:   %112 = insertvalue { ptr, ptr, i64, [1 x i64], [1 x i64] } %111, i64 1, 4, 0

Popped off OI-WL:   %112 = insertvalue { ptr, ptr, i64, [1 x i64], [1 x i64] } %111, i64 1, 4, 0

Popped off OI-WL:   %112 = insertvalue { ptr, ptr, i64, [1 x i64], [1 x i64] } %111, i64 1, 4, 0

Popped off OI-WL:   %111 = insertvalue { ptr, ptr, i64, [1 x i64], [1 x i64] } %110, i64 %18, 3, 0

Popped off OI-WL:   %111 = insertvalue { ptr, ptr, i64, [1 x i64], [1 x i64] } %110, i64 %18, 3, 0

Popped off OI-WL:   %111 = insertvalue { ptr, ptr, i64, [1 x i64], [1 x i64] } %110, i64 %18, 3, 0

Popped off OI-WL:   %111 = insertvalue { ptr, ptr, i64, [1 x i64], [1 x i64] } %110, i64 %18, 3, 0

Popped off OI-WL:   %111 = insertvalue { ptr, ptr, i64, [1 x i64], [1 x i64] } %110, i64 %18, 3, 0

Popped off OI-WL:   %110 = insertvalue { ptr, ptr, i64, [1 x i64], [1 x i64] } %109, i64 0, 2

Popped off OI-WL:   %110 = insertvalue { ptr, ptr, i64, [1 x i64], [1 x i64] } %109, i64 0, 2

Popped off OI-WL:   %109 = insertvalue { ptr, ptr, i64, [1 x i64], [1 x i64] } %108, ptr %107, 1

Popped off OI-WL:   %109 = insertvalue { ptr, ptr, i64, [1 x i64], [1 x i64] } %108, ptr %107, 1

Popped off OI-WL:   %108 = insertvalue { ptr, ptr, i64, [1 x i64], [1 x i64] } undef, ptr %107, 0

Popped off OI-WL:   %107 = call ptr @malloc(i64 %106)

Popped off OI-WL:   %106 = ptrtoint ptr %105 to i64

Popped off OI-WL:   %105 = getelementptr i64, ptr null, i64 %18

Popped off OI-WL:   %104 = alloca { ptr, ptr, i64, [1 x i64], [1 x i64] }, i64 1, align 8

Popped off OI-WL:   %99 = icmp slt i64 %98, %16

Popped off OI-WL:   %96 = insertvalue { ptr, ptr, i64, [1 x i64], [1 x i64] } %95, i64 1, 4, 0

Popped off OI-WL:   %96 = insertvalue { ptr, ptr, i64, [1 x i64], [1 x i64] } %95, i64 1, 4, 0

Popped off OI-WL:   %96 = insertvalue { ptr, ptr, i64, [1 x i64], [1 x i64] } %95, i64 1, 4, 0

Popped off OI-WL:   %96 = insertvalue { ptr, ptr, i64, [1 x i64], [1 x i64] } %95, i64 1, 4, 0

Popped off OI-WL:   %96 = insertvalue { ptr, ptr, i64, [1 x i64], [1 x i64] } %95, i64 1, 4, 0

Popped off OI-WL:   %95 = insertvalue { ptr, ptr, i64, [1 x i64], [1 x i64] } %94, i64 %16, 3, 0

Popped off OI-WL:   %95 = insertvalue { ptr, ptr, i64, [1 x i64], [1 x i64] } %94, i64 %16, 3, 0

Popped off OI-WL:   %95 = insertvalue { ptr, ptr, i64, [1 x i64], [1 x i64] } %94, i64 %16, 3, 0

Popped off OI-WL:   %95 = insertvalue { ptr, ptr, i64, [1 x i64], [1 x i64] } %94, i64 %16, 3, 0

Popped off OI-WL:   %95 = insertvalue { ptr, ptr, i64, [1 x i64], [1 x i64] } %94, i64 %16, 3, 0

Popped off OI-WL:   %94 = insertvalue { ptr, ptr, i64, [1 x i64], [1 x i64] } %93, i64 0, 2

Popped off OI-WL:   %94 = insertvalue { ptr, ptr, i64, [1 x i64], [1 x i64] } %93, i64 0, 2

Popped off OI-WL:   %93 = insertvalue { ptr, ptr, i64, [1 x i64], [1 x i64] } %92, ptr %91, 1

Popped off OI-WL:   %93 = insertvalue { ptr, ptr, i64, [1 x i64], [1 x i64] } %92, ptr %91, 1

Popped off OI-WL:   %92 = insertvalue { ptr, ptr, i64, [1 x i64], [1 x i64] } undef, ptr %91, 0

Popped off OI-WL:   %91 = call ptr @malloc(i64 %90)

Popped off OI-WL:   %90 = ptrtoint ptr %89 to i64

Popped off OI-WL:   %89 = getelementptr i64, ptr null, i64 %16

Popped off OI-WL:   %88 = alloca { ptr, ptr, i64, [1 x i64], [1 x i64] }, i64 1, align 8

Popped off OI-WL:   %83 = icmp slt i64 %82, %14

Popped off OI-WL:   %80 = insertvalue { ptr, ptr, i64, [1 x i64], [1 x i64] } %79, i64 1, 4, 0

Popped off OI-WL:   %80 = insertvalue { ptr, ptr, i64, [1 x i64], [1 x i64] } %79, i64 1, 4, 0

Popped off OI-WL:   %80 = insertvalue { ptr, ptr, i64, [1 x i64], [1 x i64] } %79, i64 1, 4, 0

Popped off OI-WL:   %80 = insertvalue { ptr, ptr, i64, [1 x i64], [1 x i64] } %79, i64 1, 4, 0

Popped off OI-WL:   %80 = insertvalue { ptr, ptr, i64, [1 x i64], [1 x i64] } %79, i64 1, 4, 0

Popped off OI-WL:   %79 = insertvalue { ptr, ptr, i64, [1 x i64], [1 x i64] } %78, i64 %14, 3, 0

Popped off OI-WL:   %79 = insertvalue { ptr, ptr, i64, [1 x i64], [1 x i64] } %78, i64 %14, 3, 0

Popped off OI-WL:   %79 = insertvalue { ptr, ptr, i64, [1 x i64], [1 x i64] } %78, i64 %14, 3, 0

Popped off OI-WL:   %79 = insertvalue { ptr, ptr, i64, [1 x i64], [1 x i64] } %78, i64 %14, 3, 0

Popped off OI-WL:   %79 = insertvalue { ptr, ptr, i64, [1 x i64], [1 x i64] } %78, i64 %14, 3, 0

Popped off OI-WL:   %78 = insertvalue { ptr, ptr, i64, [1 x i64], [1 x i64] } %77, i64 0, 2

Popped off OI-WL:   %78 = insertvalue { ptr, ptr, i64, [1 x i64], [1 x i64] } %77, i64 0, 2

Popped off OI-WL:   %77 = insertvalue { ptr, ptr, i64, [1 x i64], [1 x i64] } %76, ptr %75, 1

Popped off OI-WL:   %77 = insertvalue { ptr, ptr, i64, [1 x i64], [1 x i64] } %76, ptr %75, 1

Popped off OI-WL:   %76 = insertvalue { ptr, ptr, i64, [1 x i64], [1 x i64] } undef, ptr %75, 0

Popped off OI-WL:   %75 = call ptr @malloc(i64 %74)

Popped off OI-WL:   %74 = ptrtoint ptr %73 to i64

Popped off OI-WL:   %73 = getelementptr i64, ptr null, i64 %14

Popped off OI-WL:   %72 = alloca { ptr, ptr, i64, [1 x i64], [1 x i64] }, i64 1, align 8

Popped off OI-WL:   %67 = icmp slt i64 %66, %12

Popped off OI-WL:   %64 = insertvalue { ptr, ptr, i64, [1 x i64], [1 x i64] } %63, i64 1, 4, 0

Popped off OI-WL:   %64 = insertvalue { ptr, ptr, i64, [1 x i64], [1 x i64] } %63, i64 1, 4, 0

Popped off OI-WL:   %64 = insertvalue { ptr, ptr, i64, [1 x i64], [1 x i64] } %63, i64 1, 4, 0

Popped off OI-WL:   %64 = insertvalue { ptr, ptr, i64, [1 x i64], [1 x i64] } %63, i64 1, 4, 0

Popped off OI-WL:   %64 = insertvalue { ptr, ptr, i64, [1 x i64], [1 x i64] } %63, i64 1, 4, 0

Popped off OI-WL:   %63 = insertvalue { ptr, ptr, i64, [1 x i64], [1 x i64] } %62, i64 %12, 3, 0

Popped off OI-WL:   %63 = insertvalue { ptr, ptr, i64, [1 x i64], [1 x i64] } %62, i64 %12, 3, 0

Popped off OI-WL:   %63 = insertvalue { ptr, ptr, i64, [1 x i64], [1 x i64] } %62, i64 %12, 3, 0

Popped off OI-WL:   %63 = insertvalue { ptr, ptr, i64, [1 x i64], [1 x i64] } %62, i64 %12, 3, 0

Popped off OI-WL:   %63 = insertvalue { ptr, ptr, i64, [1 x i64], [1 x i64] } %62, i64 %12, 3, 0

Popped off OI-WL:   %62 = insertvalue { ptr, ptr, i64, [1 x i64], [1 x i64] } %61, i64 0, 2

Popped off OI-WL:   %62 = insertvalue { ptr, ptr, i64, [1 x i64], [1 x i64] } %61, i64 0, 2

Popped off OI-WL:   %61 = insertvalue { ptr, ptr, i64, [1 x i64], [1 x i64] } %60, ptr %59, 1

Popped off OI-WL:   %61 = insertvalue { ptr, ptr, i64, [1 x i64], [1 x i64] } %60, ptr %59, 1

Popped off OI-WL:   %60 = insertvalue { ptr, ptr, i64, [1 x i64], [1 x i64] } undef, ptr %59, 0

Popped off OI-WL:   %59 = call ptr @malloc(i64 %58)

Popped off OI-WL:   %58 = ptrtoint ptr %57 to i64

Popped off OI-WL:   %57 = getelementptr i64, ptr null, i64 %12

Popped off OI-WL:   %56 = alloca { ptr, ptr, i64, [1 x i64], [1 x i64] }, i64 1, align 8

Popped off OI-WL:   %51 = icmp slt i64 %50, %10

Popped off OI-WL:   %48 = insertvalue { ptr, ptr, i64, [1 x i64], [1 x i64] } %47, i64 1, 4, 0

Popped off OI-WL:   %48 = insertvalue { ptr, ptr, i64, [1 x i64], [1 x i64] } %47, i64 1, 4, 0

Popped off OI-WL:   %48 = insertvalue { ptr, ptr, i64, [1 x i64], [1 x i64] } %47, i64 1, 4, 0

Popped off OI-WL:   %48 = insertvalue { ptr, ptr, i64, [1 x i64], [1 x i64] } %47, i64 1, 4, 0

Popped off OI-WL:   %48 = insertvalue { ptr, ptr, i64, [1 x i64], [1 x i64] } %47, i64 1, 4, 0

Popped off OI-WL:   %47 = insertvalue { ptr, ptr, i64, [1 x i64], [1 x i64] } %46, i64 %10, 3, 0

Popped off OI-WL:   %47 = insertvalue { ptr, ptr, i64, [1 x i64], [1 x i64] } %46, i64 %10, 3, 0

Popped off OI-WL:   %47 = insertvalue { ptr, ptr, i64, [1 x i64], [1 x i64] } %46, i64 %10, 3, 0

Popped off OI-WL:   %47 = insertvalue { ptr, ptr, i64, [1 x i64], [1 x i64] } %46, i64 %10, 3, 0

Popped off OI-WL:   %47 = insertvalue { ptr, ptr, i64, [1 x i64], [1 x i64] } %46, i64 %10, 3, 0

Popped off OI-WL:   %46 = insertvalue { ptr, ptr, i64, [1 x i64], [1 x i64] } %45, i64 0, 2

Popped off OI-WL:   %46 = insertvalue { ptr, ptr, i64, [1 x i64], [1 x i64] } %45, i64 0, 2

Popped off OI-WL:   %45 = insertvalue { ptr, ptr, i64, [1 x i64], [1 x i64] } %44, ptr %43, 1

Popped off OI-WL:   %45 = insertvalue { ptr, ptr, i64, [1 x i64], [1 x i64] } %44, ptr %43, 1

Popped off OI-WL:   %44 = insertvalue { ptr, ptr, i64, [1 x i64], [1 x i64] } undef, ptr %43, 0

Popped off OI-WL:   %43 = call ptr @malloc(i64 %42)

Popped off OI-WL:   %42 = ptrtoint ptr %41 to i64

Popped off OI-WL:   %41 = getelementptr i64, ptr null, i64 %10

Popped off OI-WL:   %40 = alloca { ptr, ptr, i64, [1 x i64], [1 x i64] }, i64 1, align 8

Popped off OI-WL:   %35 = icmp slt i64 %34, %8

Popped off OI-WL:   %32 = insertvalue { ptr, ptr, i64, [1 x i64], [1 x i64] } %31, i64 1, 4, 0

Popped off OI-WL:   %32 = insertvalue { ptr, ptr, i64, [1 x i64], [1 x i64] } %31, i64 1, 4, 0

Popped off OI-WL:   %32 = insertvalue { ptr, ptr, i64, [1 x i64], [1 x i64] } %31, i64 1, 4, 0

Popped off OI-WL:   %32 = insertvalue { ptr, ptr, i64, [1 x i64], [1 x i64] } %31, i64 1, 4, 0

Popped off OI-WL:   %32 = insertvalue { ptr, ptr, i64, [1 x i64], [1 x i64] } %31, i64 1, 4, 0

Popped off OI-WL:   %31 = insertvalue { ptr, ptr, i64, [1 x i64], [1 x i64] } %30, i64 %8, 3, 0

Popped off OI-WL:   %31 = insertvalue { ptr, ptr, i64, [1 x i64], [1 x i64] } %30, i64 %8, 3, 0

Popped off OI-WL:   %31 = insertvalue { ptr, ptr, i64, [1 x i64], [1 x i64] } %30, i64 %8, 3, 0

Popped off OI-WL:   %31 = insertvalue { ptr, ptr, i64, [1 x i64], [1 x i64] } %30, i64 %8, 3, 0

Popped off OI-WL:   %31 = insertvalue { ptr, ptr, i64, [1 x i64], [1 x i64] } %30, i64 %8, 3, 0

Popped off OI-WL:   %30 = insertvalue { ptr, ptr, i64, [1 x i64], [1 x i64] } %29, i64 0, 2

Popped off OI-WL:   %30 = insertvalue { ptr, ptr, i64, [1 x i64], [1 x i64] } %29, i64 0, 2

Popped off OI-WL:   %29 = insertvalue { ptr, ptr, i64, [1 x i64], [1 x i64] } %28, ptr %27, 1

Popped off OI-WL:   %29 = insertvalue { ptr, ptr, i64, [1 x i64], [1 x i64] } %28, ptr %27, 1

Popped off OI-WL:   %28 = insertvalue { ptr, ptr, i64, [1 x i64], [1 x i64] } undef, ptr %27, 0

Popped off OI-WL:   %27 = call ptr @malloc(i64 %26)

Popped off OI-WL:   %26 = ptrtoint ptr %25 to i64

Popped off OI-WL:   %25 = getelementptr i64, ptr null, i64 %8

Popped off OI-WL:   %24 = load i64, ptr %23, align 4
Merged constantrange<0, 2> into   %.08 = call i64 @llvm.ssa.copy.i64(i64 %162) : constantrange<0, 2>

Popped off OI-WL:   %23 = getelementptr i64, ptr %1, i64 8

Popped off OI-WL:   %22 = load i64, ptr %21, align 4
Merged constantrange<0, 2> into   %.07 = call i64 @llvm.ssa.copy.i64(i64 %146) : constantrange<0, 2>

Popped off OI-WL:   %21 = getelementptr i64, ptr %1, i64 7

Popped off OI-WL:   %20 = load i64, ptr %19, align 4
Merged constantrange<0, 2> into   %.06 = call i64 @llvm.ssa.copy.i64(i64 %130) : constantrange<0, 2>

Popped off OI-WL:   %19 = getelementptr i64, ptr %1, i64 6

Popped off OI-WL:   %18 = load i64, ptr %17, align 4
Merged constantrange<0, 2> into   %.05 = call i64 @llvm.ssa.copy.i64(i64 %114) : constantrange<0, 2>

Popped off OI-WL:   %17 = getelementptr i64, ptr %1, i64 5

Popped off OI-WL:   %16 = load i64, ptr %15, align 4
Merged constantrange<0, 2> into   %.04 = call i64 @llvm.ssa.copy.i64(i64 %98) : constantrange<0, 2>

Popped off OI-WL:   %15 = getelementptr i64, ptr %1, i64 4

Popped off OI-WL:   %14 = load i64, ptr %13, align 4
Merged constantrange<0, 2> into   %.03 = call i64 @llvm.ssa.copy.i64(i64 %82) : constantrange<0, 2>

Popped off OI-WL:   %13 = getelementptr i64, ptr %1, i64 3

Popped off OI-WL:   %12 = load i64, ptr %11, align 4
Merged constantrange<0, 2> into   %.02 = call i64 @llvm.ssa.copy.i64(i64 %66) : constantrange<0, 2>

Popped off OI-WL:   %11 = getelementptr i64, ptr %1, i64 2

Popped off OI-WL:   %10 = load i64, ptr %9, align 4
Merged constantrange<0, 2> into   %.01 = call i64 @llvm.ssa.copy.i64(i64 %50) : constantrange<0, 2>

Popped off OI-WL:   %9 = getelementptr i64, ptr %1, i64 1

Popped off OI-WL:   %8 = load i64, ptr %1, align 4
Merged constantrange<0, 2> into   %.0 = call i64 @llvm.ssa.copy.i64(i64 %34) : constantrange<0, 2>

Popped off OI-WL:   %.fca.4.0.gep = getelementptr inbounds { ptr, ptr, i64, [1 x i64], [1 x i64] }, ptr %7, i32 0, i32 4, i32 0

Popped off OI-WL:   %.fca.3.0.gep = getelementptr inbounds { ptr, ptr, i64, [1 x i64], [1 x i64] }, ptr %7, i32 0, i32 3, i32 0

Popped off OI-WL:   %.fca.2.gep = getelementptr inbounds { ptr, ptr, i64, [1 x i64], [1 x i64] }, ptr %7, i32 0, i32 2

Popped off OI-WL:   %.fca.1.gep = getelementptr inbounds { ptr, ptr, i64, [1 x i64], [1 x i64] }, ptr %7, i32 0, i32 1

Popped off OI-WL:   %7 = alloca { ptr, ptr, i64, [1 x i64], [1 x i64] }, i64 1, align 8

Popped off OI-WL:   %6 = insertvalue { ptr, ptr, i64, [1 x i64], [1 x i64] } %5, i64 1, 4, 0

Popped off OI-WL:   %6 = insertvalue { ptr, ptr, i64, [1 x i64], [1 x i64] } %5, i64 1, 4, 0

Popped off OI-WL:   %6 = insertvalue { ptr, ptr, i64, [1 x i64], [1 x i64] } %5, i64 1, 4, 0

Popped off OI-WL:   %6 = insertvalue { ptr, ptr, i64, [1 x i64], [1 x i64] } %5, i64 1, 4, 0

Popped off OI-WL:   %6 = insertvalue { ptr, ptr, i64, [1 x i64], [1 x i64] } %5, i64 1, 4, 0

Popped off OI-WL:   %5 = insertvalue { ptr, ptr, i64, [1 x i64], [1 x i64] } %4, i64 7, 3, 0

Popped off OI-WL:   %5 = insertvalue { ptr, ptr, i64, [1 x i64], [1 x i64] } %4, i64 7, 3, 0

Popped off OI-WL:   %5 = insertvalue { ptr, ptr, i64, [1 x i64], [1 x i64] } %4, i64 7, 3, 0

Popped off OI-WL:   %5 = insertvalue { ptr, ptr, i64, [1 x i64], [1 x i64] } %4, i64 7, 3, 0

Popped off OI-WL:   %5 = insertvalue { ptr, ptr, i64, [1 x i64], [1 x i64] } %4, i64 7, 3, 0

Popped off OI-WL:   %4 = insertvalue { ptr, ptr, i64, [1 x i64], [1 x i64] } %3, i64 0, 2

Popped off OI-WL:   %4 = insertvalue { ptr, ptr, i64, [1 x i64], [1 x i64] } %3, i64 0, 2

Popped off OI-WL:   %3 = insertvalue { ptr, ptr, i64, [1 x i64], [1 x i64] } %2, ptr %1, 1

Popped off OI-WL:   %3 = insertvalue { ptr, ptr, i64, [1 x i64], [1 x i64] } %2, ptr %1, 1

Popped off OI-WL:   %2 = insertvalue { ptr, ptr, i64, [1 x i64], [1 x i64] } undef, ptr %1, 0

Popped off OI-WL:   %1 = call ptr @malloc(i64 ptrtoint (ptr getelementptr (i64, ptr null, i32 7) to i64))

Popped off I-WL:   %.0 = call i64 @llvm.ssa.copy.i64(i64 %34)
Merged constantrange<1, 3> into   %38 = add i64 %.0, 1 : constantrange<1, 3>

Popped off I-WL:   %38 = add i64 %.0, 1
Merged constantrange<0, 3> into   %34 = phi i64 [ %38, %36 ], [ 0, %0 ] : constantrange<0, 3>

Popped off I-WL:   %34 = phi i64 [ %38, %36 ], [ 0, %0 ]
Merged constantrange<0, 3> into   %.0 = call i64 @llvm.ssa.copy.i64(i64 %34) : constantrange<0, 3>

Popped off I-WL:   %.0 = call i64 @llvm.ssa.copy.i64(i64 %34)
Merged constantrange<1, 4> into   %38 = add i64 %.0, 1 : constantrange<1, 4>

Popped off I-WL:   %38 = add i64 %.0, 1
Merged constantrange<0, 4> into   %34 = phi i64 [ %38, %36 ], [ 0, %0 ] : overdefined

Popped off I-WL:   %.01 = call i64 @llvm.ssa.copy.i64(i64 %50)
Merged constantrange<1, 3> into   %54 = add i64 %.01, 1 : constantrange<1, 3>

Popped off I-WL:   %54 = add i64 %.01, 1
Merged constantrange<0, 3> into   %50 = phi i64 [ %54, %52 ], [ 0, %39 ] : constantrange<0, 3>

Popped off I-WL:   %50 = phi i64 [ %54, %52 ], [ 0, %39 ]
Merged constantrange<0, 3> into   %.01 = call i64 @llvm.ssa.copy.i64(i64 %50) : constantrange<0, 3>

Popped off I-WL:   %.01 = call i64 @llvm.ssa.copy.i64(i64 %50)
Merged constantrange<1, 4> into   %54 = add i64 %.01, 1 : constantrange<1, 4>

Popped off I-WL:   %54 = add i64 %.01, 1
Merged constantrange<0, 4> into   %50 = phi i64 [ %54, %52 ], [ 0, %39 ] : overdefined

Popped off I-WL:   %.02 = call i64 @llvm.ssa.copy.i64(i64 %66)
Merged constantrange<1, 3> into   %70 = add i64 %.02, 1 : constantrange<1, 3>

Popped off I-WL:   %70 = add i64 %.02, 1
Merged constantrange<0, 3> into   %66 = phi i64 [ %70, %68 ], [ 0, %55 ] : constantrange<0, 3>

Popped off I-WL:   %66 = phi i64 [ %70, %68 ], [ 0, %55 ]
Merged constantrange<0, 3> into   %.02 = call i64 @llvm.ssa.copy.i64(i64 %66) : constantrange<0, 3>

Popped off I-WL:   %.02 = call i64 @llvm.ssa.copy.i64(i64 %66)
Merged constantrange<1, 4> into   %70 = add i64 %.02, 1 : constantrange<1, 4>

Popped off I-WL:   %70 = add i64 %.02, 1
Merged constantrange<0, 4> into   %66 = phi i64 [ %70, %68 ], [ 0, %55 ] : overdefined

Popped off I-WL:   %.03 = call i64 @llvm.ssa.copy.i64(i64 %82)
Merged constantrange<1, 3> into   %86 = add i64 %.03, 1 : constantrange<1, 3>

Popped off I-WL:   %86 = add i64 %.03, 1
Merged constantrange<0, 3> into   %82 = phi i64 [ %86, %84 ], [ 0, %71 ] : constantrange<0, 3>

Popped off I-WL:   %82 = phi i64 [ %86, %84 ], [ 0, %71 ]
Merged constantrange<0, 3> into   %.03 = call i64 @llvm.ssa.copy.i64(i64 %82) : constantrange<0, 3>

Popped off I-WL:   %.03 = call i64 @llvm.ssa.copy.i64(i64 %82)
Merged constantrange<1, 4> into   %86 = add i64 %.03, 1 : constantrange<1, 4>

Popped off I-WL:   %86 = add i64 %.03, 1
Merged constantrange<0, 4> into   %82 = phi i64 [ %86, %84 ], [ 0, %71 ] : overdefined

Popped off I-WL:   %.04 = call i64 @llvm.ssa.copy.i64(i64 %98)
Merged constantrange<1, 3> into   %102 = add i64 %.04, 1 : constantrange<1, 3>

Popped off I-WL:   %102 = add i64 %.04, 1
Merged constantrange<0, 3> into   %98 = phi i64 [ %102, %100 ], [ 0, %87 ] : constantrange<0, 3>

Popped off I-WL:   %98 = phi i64 [ %102, %100 ], [ 0, %87 ]
Merged constantrange<0, 3> into   %.04 = call i64 @llvm.ssa.copy.i64(i64 %98) : constantrange<0, 3>

Popped off I-WL:   %.04 = call i64 @llvm.ssa.copy.i64(i64 %98)
Merged constantrange<1, 4> into   %102 = add i64 %.04, 1 : constantrange<1, 4>

Popped off I-WL:   %102 = add i64 %.04, 1
Merged constantrange<0, 4> into   %98 = phi i64 [ %102, %100 ], [ 0, %87 ] : overdefined

Popped off I-WL:   %.05 = call i64 @llvm.ssa.copy.i64(i64 %114)
Merged constantrange<1, 3> into   %118 = add i64 %.05, 1 : constantrange<1, 3>

Popped off I-WL:   %118 = add i64 %.05, 1
Merged constantrange<0, 3> into   %114 = phi i64 [ %118, %116 ], [ 0, %103 ] : constantrange<0, 3>

Popped off I-WL:   %114 = phi i64 [ %118, %116 ], [ 0, %103 ]
Merged constantrange<0, 3> into   %.05 = call i64 @llvm.ssa.copy.i64(i64 %114) : constantrange<0, 3>

Popped off I-WL:   %.05 = call i64 @llvm.ssa.copy.i64(i64 %114)
Merged constantrange<1, 4> into   %118 = add i64 %.05, 1 : constantrange<1, 4>

Popped off I-WL:   %118 = add i64 %.05, 1
Merged constantrange<0, 4> into   %114 = phi i64 [ %118, %116 ], [ 0, %103 ] : overdefined

Popped off I-WL:   %.06 = call i64 @llvm.ssa.copy.i64(i64 %130)
Merged constantrange<1, 3> into   %134 = add i64 %.06, 1 : constantrange<1, 3>

Popped off I-WL:   %134 = add i64 %.06, 1
Merged constantrange<0, 3> into   %130 = phi i64 [ %134, %132 ], [ 0, %119 ] : constantrange<0, 3>

Popped off I-WL:   %130 = phi i64 [ %134, %132 ], [ 0, %119 ]
Merged constantrange<0, 3> into   %.06 = call i64 @llvm.ssa.copy.i64(i64 %130) : constantrange<0, 3>

Popped off I-WL:   %.06 = call i64 @llvm.ssa.copy.i64(i64 %130)
Merged constantrange<1, 4> into   %134 = add i64 %.06, 1 : constantrange<1, 4>

Popped off I-WL:   %134 = add i64 %.06, 1
Merged constantrange<0, 4> into   %130 = phi i64 [ %134, %132 ], [ 0, %119 ] : overdefined

Popped off I-WL:   %.07 = call i64 @llvm.ssa.copy.i64(i64 %146)
Merged constantrange<1, 3> into   %150 = add i64 %.07, 1 : constantrange<1, 3>

Popped off I-WL:   %150 = add i64 %.07, 1
Merged constantrange<0, 3> into   %146 = phi i64 [ %150, %148 ], [ 0, %135 ] : constantrange<0, 3>

Popped off I-WL:   %146 = phi i64 [ %150, %148 ], [ 0, %135 ]
Merged constantrange<0, 3> into   %.07 = call i64 @llvm.ssa.copy.i64(i64 %146) : constantrange<0, 3>

Popped off I-WL:   %.07 = call i64 @llvm.ssa.copy.i64(i64 %146)
Merged constantrange<1, 4> into   %150 = add i64 %.07, 1 : constantrange<1, 4>

Popped off I-WL:   %150 = add i64 %.07, 1
Merged constantrange<0, 4> into   %146 = phi i64 [ %150, %148 ], [ 0, %135 ] : overdefined

Popped off I-WL:   %.08 = call i64 @llvm.ssa.copy.i64(i64 %162)
Merged constantrange<1, 3> into   %166 = add i64 %.08, 1 : constantrange<1, 3>

Popped off I-WL:   %166 = add i64 %.08, 1
Merged constantrange<0, 3> into   %162 = phi i64 [ %166, %164 ], [ 0, %151 ] : constantrange<0, 3>

Popped off I-WL:   %162 = phi i64 [ %166, %164 ], [ 0, %151 ]
Merged constantrange<0, 3> into   %.08 = call i64 @llvm.ssa.copy.i64(i64 %162) : constantrange<0, 3>

Popped off I-WL:   %.08 = call i64 @llvm.ssa.copy.i64(i64 %162)
Merged constantrange<1, 4> into   %166 = add i64 %.08, 1 : constantrange<1, 4>

Popped off I-WL:   %166 = add i64 %.08, 1
Merged constantrange<0, 4> into   %162 = phi i64 [ %166, %164 ], [ 0, %151 ] : overdefined

Popped off I-WL:   %34 = phi i64 [ %38, %36 ], [ 0, %0 ]

Popped off I-WL:   %38 = add i64 %.0, 1

Popped off I-WL:   %50 = phi i64 [ %54, %52 ], [ 0, %39 ]

Popped off I-WL:   %54 = add i64 %.01, 1

Popped off I-WL:   %66 = phi i64 [ %70, %68 ], [ 0, %55 ]

Popped off I-WL:   %70 = add i64 %.02, 1

Popped off I-WL:   %82 = phi i64 [ %86, %84 ], [ 0, %71 ]

Popped off I-WL:   %86 = add i64 %.03, 1

Popped off I-WL:   %98 = phi i64 [ %102, %100 ], [ 0, %87 ]

Popped off I-WL:   %102 = add i64 %.04, 1

Popped off I-WL:   %114 = phi i64 [ %118, %116 ], [ 0, %103 ]

Popped off I-WL:   %118 = add i64 %.05, 1

Popped off I-WL:   %130 = phi i64 [ %134, %132 ], [ 0, %119 ]

Popped off I-WL:   %134 = add i64 %.06, 1

Popped off I-WL:   %146 = phi i64 [ %150, %148 ], [ 0, %135 ]

Popped off I-WL:   %150 = add i64 %.07, 1

Popped off I-WL:   %162 = phi i64 [ %166, %164 ], [ 0, %151 ]

Popped off I-WL:   %166 = add i64 %.08, 1

Popped off I-WL:   %.08 = call i64 @llvm.ssa.copy.i64(i64 %162)

Popped off I-WL:   %162 = phi i64 [ %166, %164 ], [ 0, %151 ]

Popped off I-WL:   %158 = insertvalue { ptr, ptr, i64, [1 x i64], [1 x i64] } %157, i64 0, 2

Popped off I-WL:   %158 = insertvalue { ptr, ptr, i64, [1 x i64], [1 x i64] } %157, i64 0, 2

Popped off I-WL:   %158 = insertvalue { ptr, ptr, i64, [1 x i64], [1 x i64] } %157, i64 0, 2

Popped off I-WL:   %157 = insertvalue { ptr, ptr, i64, [1 x i64], [1 x i64] } %156, ptr %155, 1

Popped off I-WL:   %157 = insertvalue { ptr, ptr, i64, [1 x i64], [1 x i64] } %156, ptr %155, 1

Popped off I-WL:   %157 = insertvalue { ptr, ptr, i64, [1 x i64], [1 x i64] } %156, ptr %155, 1

Popped off I-WL:   %156 = insertvalue { ptr, ptr, i64, [1 x i64], [1 x i64] } undef, ptr %155, 0

Popped off I-WL:   %156 = insertvalue { ptr, ptr, i64, [1 x i64], [1 x i64] } undef, ptr %155, 0

Popped off I-WL:   %156 = insertvalue { ptr, ptr, i64, [1 x i64], [1 x i64] } undef, ptr %155, 0

Popped off I-WL:   %156 = insertvalue { ptr, ptr, i64, [1 x i64], [1 x i64] } undef, ptr %155, 0

Popped off I-WL:   %.07 = call i64 @llvm.ssa.copy.i64(i64 %146)

Popped off I-WL:   %146 = phi i64 [ %150, %148 ], [ 0, %135 ]

Popped off I-WL:   %142 = insertvalue { ptr, ptr, i64, [1 x i64], [1 x i64] } %141, i64 0, 2

Popped off I-WL:   %142 = insertvalue { ptr, ptr, i64, [1 x i64], [1 x i64] } %141, i64 0, 2

Popped off I-WL:   %142 = insertvalue { ptr, ptr, i64, [1 x i64], [1 x i64] } %141, i64 0, 2

Popped off I-WL:   %141 = insertvalue { ptr, ptr, i64, [1 x i64], [1 x i64] } %140, ptr %139, 1

Popped off I-WL:   %141 = insertvalue { ptr, ptr, i64, [1 x i64], [1 x i64] } %140, ptr %139, 1

Popped off I-WL:   %141 = insertvalue { ptr, ptr, i64, [1 x i64], [1 x i64] } %140, ptr %139, 1

Popped off I-WL:   %140 = insertvalue { ptr, ptr, i64, [1 x i64], [1 x i64] } undef, ptr %139, 0

Popped off I-WL:   %140 = insertvalue { ptr, ptr, i64, [1 x i64], [1 x i64] } undef, ptr %139, 0

Popped off I-WL:   %140 = insertvalue { ptr, ptr, i64, [1 x i64], [1 x i64] } undef, ptr %139, 0

Popped off I-WL:   %140 = insertvalue { ptr, ptr, i64, [1 x i64], [1 x i64] } undef, ptr %139, 0

Popped off I-WL:   %.06 = call i64 @llvm.ssa.copy.i64(i64 %130)

Popped off I-WL:   %130 = phi i64 [ %134, %132 ], [ 0, %119 ]

Popped off I-WL:   %126 = insertvalue { ptr, ptr, i64, [1 x i64], [1 x i64] } %125, i64 0, 2

Popped off I-WL:   %126 = insertvalue { ptr, ptr, i64, [1 x i64], [1 x i64] } %125, i64 0, 2

Popped off I-WL:   %126 = insertvalue { ptr, ptr, i64, [1 x i64], [1 x i64] } %125, i64 0, 2

Popped off I-WL:   %125 = insertvalue { ptr, ptr, i64, [1 x i64], [1 x i64] } %124, ptr %123, 1

Popped off I-WL:   %125 = insertvalue { ptr, ptr, i64, [1 x i64], [1 x i64] } %124, ptr %123, 1

Popped off I-WL:   %125 = insertvalue { ptr, ptr, i64, [1 x i64], [1 x i64] } %124, ptr %123, 1

Popped off I-WL:   %124 = insertvalue { ptr, ptr, i64, [1 x i64], [1 x i64] } undef, ptr %123, 0

Popped off I-WL:   %124 = insertvalue { ptr, ptr, i64, [1 x i64], [1 x i64] } undef, ptr %123, 0

Popped off I-WL:   %124 = insertvalue { ptr, ptr, i64, [1 x i64], [1 x i64] } undef, ptr %123, 0

Popped off I-WL:   %124 = insertvalue { ptr, ptr, i64, [1 x i64], [1 x i64] } undef, ptr %123, 0

Popped off I-WL:   %.05 = call i64 @llvm.ssa.copy.i64(i64 %114)

Popped off I-WL:   %114 = phi i64 [ %118, %116 ], [ 0, %103 ]

Popped off I-WL:   %110 = insertvalue { ptr, ptr, i64, [1 x i64], [1 x i64] } %109, i64 0, 2

Popped off I-WL:   %110 = insertvalue { ptr, ptr, i64, [1 x i64], [1 x i64] } %109, i64 0, 2

Popped off I-WL:   %110 = insertvalue { ptr, ptr, i64, [1 x i64], [1 x i64] } %109, i64 0, 2

Popped off I-WL:   %109 = insertvalue { ptr, ptr, i64, [1 x i64], [1 x i64] } %108, ptr %107, 1

Popped off I-WL:   %109 = insertvalue { ptr, ptr, i64, [1 x i64], [1 x i64] } %108, ptr %107, 1

Popped off I-WL:   %109 = insertvalue { ptr, ptr, i64, [1 x i64], [1 x i64] } %108, ptr %107, 1

Popped off I-WL:   %108 = insertvalue { ptr, ptr, i64, [1 x i64], [1 x i64] } undef, ptr %107, 0

Popped off I-WL:   %108 = insertvalue { ptr, ptr, i64, [1 x i64], [1 x i64] } undef, ptr %107, 0

Popped off I-WL:   %108 = insertvalue { ptr, ptr, i64, [1 x i64], [1 x i64] } undef, ptr %107, 0

Popped off I-WL:   %108 = insertvalue { ptr, ptr, i64, [1 x i64], [1 x i64] } undef, ptr %107, 0

Popped off I-WL:   %.04 = call i64 @llvm.ssa.copy.i64(i64 %98)

Popped off I-WL:   %98 = phi i64 [ %102, %100 ], [ 0, %87 ]

Popped off I-WL:   %94 = insertvalue { ptr, ptr, i64, [1 x i64], [1 x i64] } %93, i64 0, 2

Popped off I-WL:   %94 = insertvalue { ptr, ptr, i64, [1 x i64], [1 x i64] } %93, i64 0, 2

Popped off I-WL:   %94 = insertvalue { ptr, ptr, i64, [1 x i64], [1 x i64] } %93, i64 0, 2

Popped off I-WL:   %93 = insertvalue { ptr, ptr, i64, [1 x i64], [1 x i64] } %92, ptr %91, 1

Popped off I-WL:   %93 = insertvalue { ptr, ptr, i64, [1 x i64], [1 x i64] } %92, ptr %91, 1

Popped off I-WL:   %93 = insertvalue { ptr, ptr, i64, [1 x i64], [1 x i64] } %92, ptr %91, 1

Popped off I-WL:   %92 = insertvalue { ptr, ptr, i64, [1 x i64], [1 x i64] } undef, ptr %91, 0

Popped off I-WL:   %92 = insertvalue { ptr, ptr, i64, [1 x i64], [1 x i64] } undef, ptr %91, 0

Popped off I-WL:   %92 = insertvalue { ptr, ptr, i64, [1 x i64], [1 x i64] } undef, ptr %91, 0

Popped off I-WL:   %92 = insertvalue { ptr, ptr, i64, [1 x i64], [1 x i64] } undef, ptr %91, 0

Popped off I-WL:   %.03 = call i64 @llvm.ssa.copy.i64(i64 %82)

Popped off I-WL:   %82 = phi i64 [ %86, %84 ], [ 0, %71 ]

Popped off I-WL:   %78 = insertvalue { ptr, ptr, i64, [1 x i64], [1 x i64] } %77, i64 0, 2

Popped off I-WL:   %78 = insertvalue { ptr, ptr, i64, [1 x i64], [1 x i64] } %77, i64 0, 2

Popped off I-WL:   %78 = insertvalue { ptr, ptr, i64, [1 x i64], [1 x i64] } %77, i64 0, 2

Popped off I-WL:   %77 = insertvalue { ptr, ptr, i64, [1 x i64], [1 x i64] } %76, ptr %75, 1

Popped off I-WL:   %77 = insertvalue { ptr, ptr, i64, [1 x i64], [1 x i64] } %76, ptr %75, 1

Popped off I-WL:   %77 = insertvalue { ptr, ptr, i64, [1 x i64], [1 x i64] } %76, ptr %75, 1

Popped off I-WL:   %76 = insertvalue { ptr, ptr, i64, [1 x i64], [1 x i64] } undef, ptr %75, 0

Popped off I-WL:   %76 = insertvalue { ptr, ptr, i64, [1 x i64], [1 x i64] } undef, ptr %75, 0

Popped off I-WL:   %76 = insertvalue { ptr, ptr, i64, [1 x i64], [1 x i64] } undef, ptr %75, 0

Popped off I-WL:   %76 = insertvalue { ptr, ptr, i64, [1 x i64], [1 x i64] } undef, ptr %75, 0

Popped off I-WL:   %.02 = call i64 @llvm.ssa.copy.i64(i64 %66)

Popped off I-WL:   %66 = phi i64 [ %70, %68 ], [ 0, %55 ]

Popped off I-WL:   %62 = insertvalue { ptr, ptr, i64, [1 x i64], [1 x i64] } %61, i64 0, 2

Popped off I-WL:   %62 = insertvalue { ptr, ptr, i64, [1 x i64], [1 x i64] } %61, i64 0, 2

Popped off I-WL:   %62 = insertvalue { ptr, ptr, i64, [1 x i64], [1 x i64] } %61, i64 0, 2

Popped off I-WL:   %61 = insertvalue { ptr, ptr, i64, [1 x i64], [1 x i64] } %60, ptr %59, 1

Popped off I-WL:   %61 = insertvalue { ptr, ptr, i64, [1 x i64], [1 x i64] } %60, ptr %59, 1

Popped off I-WL:   %61 = insertvalue { ptr, ptr, i64, [1 x i64], [1 x i64] } %60, ptr %59, 1

Popped off I-WL:   %60 = insertvalue { ptr, ptr, i64, [1 x i64], [1 x i64] } undef, ptr %59, 0

Popped off I-WL:   %60 = insertvalue { ptr, ptr, i64, [1 x i64], [1 x i64] } undef, ptr %59, 0

Popped off I-WL:   %60 = insertvalue { ptr, ptr, i64, [1 x i64], [1 x i64] } undef, ptr %59, 0

Popped off I-WL:   %60 = insertvalue { ptr, ptr, i64, [1 x i64], [1 x i64] } undef, ptr %59, 0

Popped off I-WL:   %.01 = call i64 @llvm.ssa.copy.i64(i64 %50)

Popped off I-WL:   %50 = phi i64 [ %54, %52 ], [ 0, %39 ]

Popped off I-WL:   %46 = insertvalue { ptr, ptr, i64, [1 x i64], [1 x i64] } %45, i64 0, 2

Popped off I-WL:   %46 = insertvalue { ptr, ptr, i64, [1 x i64], [1 x i64] } %45, i64 0, 2

Popped off I-WL:   %46 = insertvalue { ptr, ptr, i64, [1 x i64], [1 x i64] } %45, i64 0, 2

Popped off I-WL:   %45 = insertvalue { ptr, ptr, i64, [1 x i64], [1 x i64] } %44, ptr %43, 1

Popped off I-WL:   %45 = insertvalue { ptr, ptr, i64, [1 x i64], [1 x i64] } %44, ptr %43, 1

Popped off I-WL:   %45 = insertvalue { ptr, ptr, i64, [1 x i64], [1 x i64] } %44, ptr %43, 1

Popped off I-WL:   %44 = insertvalue { ptr, ptr, i64, [1 x i64], [1 x i64] } undef, ptr %43, 0

Popped off I-WL:   %44 = insertvalue { ptr, ptr, i64, [1 x i64], [1 x i64] } undef, ptr %43, 0

Popped off I-WL:   %44 = insertvalue { ptr, ptr, i64, [1 x i64], [1 x i64] } undef, ptr %43, 0

Popped off I-WL:   %44 = insertvalue { ptr, ptr, i64, [1 x i64], [1 x i64] } undef, ptr %43, 0

Popped off I-WL:   %.0 = call i64 @llvm.ssa.copy.i64(i64 %34)

Popped off I-WL:   %34 = phi i64 [ %38, %36 ], [ 0, %0 ]

Popped off I-WL:   %30 = insertvalue { ptr, ptr, i64, [1 x i64], [1 x i64] } %29, i64 0, 2

Popped off I-WL:   %30 = insertvalue { ptr, ptr, i64, [1 x i64], [1 x i64] } %29, i64 0, 2

Popped off I-WL:   %30 = insertvalue { ptr, ptr, i64, [1 x i64], [1 x i64] } %29, i64 0, 2

Popped off I-WL:   %29 = insertvalue { ptr, ptr, i64, [1 x i64], [1 x i64] } %28, ptr %27, 1

Popped off I-WL:   %29 = insertvalue { ptr, ptr, i64, [1 x i64], [1 x i64] } %28, ptr %27, 1

Popped off I-WL:   %29 = insertvalue { ptr, ptr, i64, [1 x i64], [1 x i64] } %28, ptr %27, 1

Popped off I-WL:   %28 = insertvalue { ptr, ptr, i64, [1 x i64], [1 x i64] } undef, ptr %27, 0

Popped off I-WL:   %28 = insertvalue { ptr, ptr, i64, [1 x i64], [1 x i64] } undef, ptr %27, 0

Popped off I-WL:   %28 = insertvalue { ptr, ptr, i64, [1 x i64], [1 x i64] } undef, ptr %27, 0

Popped off I-WL:   %28 = insertvalue { ptr, ptr, i64, [1 x i64], [1 x i64] } undef, ptr %27, 0

Popped off I-WL:   %4 = insertvalue { ptr, ptr, i64, [1 x i64], [1 x i64] } %3, i64 0, 2

Popped off I-WL:   %4 = insertvalue { ptr, ptr, i64, [1 x i64], [1 x i64] } %3, i64 0, 2

Popped off I-WL:   %4 = insertvalue { ptr, ptr, i64, [1 x i64], [1 x i64] } %3, i64 0, 2

Popped off I-WL:   %3 = insertvalue { ptr, ptr, i64, [1 x i64], [1 x i64] } %2, ptr %1, 1

Popped off I-WL:   %3 = insertvalue { ptr, ptr, i64, [1 x i64], [1 x i64] } %2, ptr %1, 1

Popped off I-WL:   %3 = insertvalue { ptr, ptr, i64, [1 x i64], [1 x i64] } %2, ptr %1, 1

Popped off I-WL:   %2 = insertvalue { ptr, ptr, i64, [1 x i64], [1 x i64] } undef, ptr %1, 0

Popped off I-WL:   %2 = insertvalue { ptr, ptr, i64, [1 x i64], [1 x i64] } undef, ptr %1, 0

Popped off I-WL:   %2 = insertvalue { ptr, ptr, i64, [1 x i64], [1 x i64] } undef, ptr %1, 0

Popped off I-WL:   %2 = insertvalue { ptr, ptr, i64, [1 x i64], [1 x i64] } undef, ptr %1, 0

Popped off OI-WL:   %162 = phi i64 [ %166, %164 ], [ 0, %151 ]
Merged overdefined into   %.08 = call i64 @llvm.ssa.copy.i64(i64 %162) : overdefined

Popped off OI-WL:   %.08 = call i64 @llvm.ssa.copy.i64(i64 %162)
Merged overdefined into   %166 = add i64 %.08, 1 : overdefined

Popped off OI-WL:   %166 = add i64 %.08, 1

Popped off OI-WL:   %146 = phi i64 [ %150, %148 ], [ 0, %135 ]
Merged overdefined into   %.07 = call i64 @llvm.ssa.copy.i64(i64 %146) : overdefined

Popped off OI-WL:   %.07 = call i64 @llvm.ssa.copy.i64(i64 %146)
Merged overdefined into   %150 = add i64 %.07, 1 : overdefined

Popped off OI-WL:   %150 = add i64 %.07, 1

Popped off OI-WL:   %130 = phi i64 [ %134, %132 ], [ 0, %119 ]
Merged overdefined into   %.06 = call i64 @llvm.ssa.copy.i64(i64 %130) : overdefined

Popped off OI-WL:   %.06 = call i64 @llvm.ssa.copy.i64(i64 %130)
Merged overdefined into   %134 = add i64 %.06, 1 : overdefined

Popped off OI-WL:   %134 = add i64 %.06, 1

Popped off OI-WL:   %114 = phi i64 [ %118, %116 ], [ 0, %103 ]
Merged overdefined into   %.05 = call i64 @llvm.ssa.copy.i64(i64 %114) : overdefined

Popped off OI-WL:   %.05 = call i64 @llvm.ssa.copy.i64(i64 %114)
Merged overdefined into   %118 = add i64 %.05, 1 : overdefined

Popped off OI-WL:   %118 = add i64 %.05, 1

Popped off OI-WL:   %98 = phi i64 [ %102, %100 ], [ 0, %87 ]
Merged overdefined into   %.04 = call i64 @llvm.ssa.copy.i64(i64 %98) : overdefined

Popped off OI-WL:   %.04 = call i64 @llvm.ssa.copy.i64(i64 %98)
Merged overdefined into   %102 = add i64 %.04, 1 : overdefined

Popped off OI-WL:   %102 = add i64 %.04, 1

Popped off OI-WL:   %82 = phi i64 [ %86, %84 ], [ 0, %71 ]
Merged overdefined into   %.03 = call i64 @llvm.ssa.copy.i64(i64 %82) : overdefined

Popped off OI-WL:   %.03 = call i64 @llvm.ssa.copy.i64(i64 %82)
Merged overdefined into   %86 = add i64 %.03, 1 : overdefined

Popped off OI-WL:   %86 = add i64 %.03, 1

Popped off OI-WL:   %66 = phi i64 [ %70, %68 ], [ 0, %55 ]
Merged overdefined into   %.02 = call i64 @llvm.ssa.copy.i64(i64 %66) : overdefined

Popped off OI-WL:   %.02 = call i64 @llvm.ssa.copy.i64(i64 %66)
Merged overdefined into   %70 = add i64 %.02, 1 : overdefined

Popped off OI-WL:   %70 = add i64 %.02, 1

Popped off OI-WL:   %50 = phi i64 [ %54, %52 ], [ 0, %39 ]
Merged overdefined into   %.01 = call i64 @llvm.ssa.copy.i64(i64 %50) : overdefined

Popped off OI-WL:   %.01 = call i64 @llvm.ssa.copy.i64(i64 %50)
Merged overdefined into   %54 = add i64 %.01, 1 : overdefined

Popped off OI-WL:   %54 = add i64 %.01, 1

Popped off OI-WL:   %34 = phi i64 [ %38, %36 ], [ 0, %0 ]
Merged overdefined into   %.0 = call i64 @llvm.ssa.copy.i64(i64 %34) : overdefined

Popped off OI-WL:   %.0 = call i64 @llvm.ssa.copy.i64(i64 %34)
Merged overdefined into   %38 = add i64 %.0, 1 : overdefined

Popped off OI-WL:   %38 = add i64 %.0, 1
FnSpecialization: No possible specializations found in module
Marking Block Executable: 
Marking Block Executable: 

Popped off BBWL: 
  call void @main()
  ret void

Popped off BBWL: 
  %1 = call ptr @malloc(i64 ptrtoint (ptr getelementptr (i64, ptr null, i32 7) to i64))
  %2 = insertvalue { ptr, ptr, i64, [1 x i64], [1 x i64] } undef, ptr %1, 0
  %3 = insertvalue { ptr, ptr, i64, [1 x i64], [1 x i64] } %2, ptr %1, 1
  %4 = insertvalue { ptr, ptr, i64, [1 x i64], [1 x i64] } %3, i64 0, 2
  %5 = insertvalue { ptr, ptr, i64, [1 x i64], [1 x i64] } %4, i64 7, 3, 0
  %6 = insertvalue { ptr, ptr, i64, [1 x i64], [1 x i64] } %5, i64 1, 4, 0
  %7 = alloca { ptr, ptr, i64, [1 x i64], [1 x i64] }, i64 1, align 8
  store ptr %1, ptr %7, align 8
  %.fca.1.gep = getelementptr inbounds { ptr, ptr, i64, [1 x i64], [1 x i64] }, ptr %7, i32 0, i32 1
  store ptr %1, ptr %.fca.1.gep, align 8
  %.fca.2.gep = getelementptr inbounds { ptr, ptr, i64, [1 x i64], [1 x i64] }, ptr %7, i32 0, i32 2
  store i64 0, ptr %.fca.2.gep, align 8
  %.fca.3.0.gep = getelementptr inbounds { ptr, ptr, i64, [1 x i64], [1 x i64] }, ptr %7, i32 0, i32 3, i32 0
  store i64 7, ptr %.fca.3.0.gep, align 8
  %.fca.4.0.gep = getelementptr inbounds { ptr, ptr, i64, [1 x i64], [1 x i64] }, ptr %7, i32 0, i32 4, i32 0
  store i64 1, ptr %.fca.4.0.gep, align 8
  call void @read_input_sizes_2D_f64(i32 1, i64 0, i64 3, i64 0, i64 -1, i64 1, ptr %7, i32 1)
  %8 = load i64, ptr %1, align 4
  %9 = getelementptr i64, ptr %1, i64 1
  %10 = load i64, ptr %9, align 4
  %11 = getelementptr i64, ptr %1, i64 2
  %12 = load i64, ptr %11, align 4
  %13 = getelementptr i64, ptr %1, i64 3
  %14 = load i64, ptr %13, align 4
  %15 = getelementptr i64, ptr %1, i64 4
  %16 = load i64, ptr %15, align 4
  %17 = getelementptr i64, ptr %1, i64 5
  %18 = load i64, ptr %17, align 4
  %19 = getelementptr i64, ptr %1, i64 6
  %20 = load i64, ptr %19, align 4
  %21 = getelementptr i64, ptr %1, i64 7
  %22 = load i64, ptr %21, align 4
  %23 = getelementptr i64, ptr %1, i64 8
  %24 = load i64, ptr %23, align 4
  %25 = getelementptr i64, ptr null, i64 %8
  %26 = ptrtoint ptr %25 to i64
  %27 = call ptr @malloc(i64 %26)
  %28 = insertvalue { ptr, ptr, i64, [1 x i64], [1 x i64] } undef, ptr %27, 0
  %29 = insertvalue { ptr, ptr, i64, [1 x i64], [1 x i64] } %28, ptr %27, 1
  %30 = insertvalue { ptr, ptr, i64, [1 x i64], [1 x i64] } %29, i64 0, 2
  %31 = insertvalue { ptr, ptr, i64, [1 x i64], [1 x i64] } %30, i64 %8, 3, 0
  %32 = insertvalue { ptr, ptr, i64, [1 x i64], [1 x i64] } %31, i64 1, 4, 0
  br label %33
Marking Edge Executable:  -> 
Marking Block Executable: 

Popped off BBWL: 
33:                                               ; preds = %36, %0
  %34 = phi i64 [ %38, %36 ], [ 0, %0 ]
  %35 = icmp slt i64 %34, %8
  br i1 %35, label %36, label %39
Marking Edge Executable:  -> 
Marking Block Executable: 
Marking Edge Executable:  -> 
Marking Block Executable: 

Popped off BBWL: 
39:                                               ; preds = %33
  %40 = alloca { ptr, ptr, i64, [1 x i64], [1 x i64] }, i64 1, align 8
  store { ptr, ptr, i64, [1 x i64], [1 x i64] } %32, ptr %40, align 8
  %41 = getelementptr i64, ptr null, i64 %10
  %42 = ptrtoint ptr %41 to i64
  %43 = call ptr @malloc(i64 %42)
  %44 = insertvalue { ptr, ptr, i64, [1 x i64], [1 x i64] } undef, ptr %43, 0
  %45 = insertvalue { ptr, ptr, i64, [1 x i64], [1 x i64] } %44, ptr %43, 1
  %46 = insertvalue { ptr, ptr, i64, [1 x i64], [1 x i64] } %45, i64 0, 2
  %47 = insertvalue { ptr, ptr, i64, [1 x i64], [1 x i64] } %46, i64 %10, 3, 0
  %48 = insertvalue { ptr, ptr, i64, [1 x i64], [1 x i64] } %47, i64 1, 4, 0
  br label %49
Marking Edge Executable:  -> 
Marking Block Executable: 

Popped off BBWL: 
49:                                               ; preds = %52, %39
  %50 = phi i64 [ %54, %52 ], [ 0, %39 ]
  %51 = icmp slt i64 %50, %10
  br i1 %51, label %52, label %55
Marking Edge Executable:  -> 
Marking Block Executable: 
Marking Edge Executable:  -> 
Marking Block Executable: 

Popped off BBWL: 
55:                                               ; preds = %49
  %56 = alloca { ptr, ptr, i64, [1 x i64], [1 x i64] }, i64 1, align 8
  store { ptr, ptr, i64, [1 x i64], [1 x i64] } %48, ptr %56, align 8
  %57 = getelementptr i64, ptr null, i64 %12
  %58 = ptrtoint ptr %57 to i64
  %59 = call ptr @malloc(i64 %58)
  %60 = insertvalue { ptr, ptr, i64, [1 x i64], [1 x i64] } undef, ptr %59, 0
  %61 = insertvalue { ptr, ptr, i64, [1 x i64], [1 x i64] } %60, ptr %59, 1
  %62 = insertvalue { ptr, ptr, i64, [1 x i64], [1 x i64] } %61, i64 0, 2
  %63 = insertvalue { ptr, ptr, i64, [1 x i64], [1 x i64] } %62, i64 %12, 3, 0
  %64 = insertvalue { ptr, ptr, i64, [1 x i64], [1 x i64] } %63, i64 1, 4, 0
  br label %65
Marking Edge Executable:  -> 
Marking Block Executable: 

Popped off BBWL: 
65:                                               ; preds = %68, %55
  %66 = phi i64 [ %70, %68 ], [ 0, %55 ]
  %67 = icmp slt i64 %66, %12
  br i1 %67, label %68, label %71
Marking Edge Executable:  -> 
Marking Block Executable: 
Marking Edge Executable:  -> 
Marking Block Executable: 

Popped off BBWL: 
71:                                               ; preds = %65
  %72 = alloca { ptr, ptr, i64, [1 x i64], [1 x i64] }, i64 1, align 8
  store { ptr, ptr, i64, [1 x i64], [1 x i64] } %64, ptr %72, align 8
  %73 = getelementptr i64, ptr null, i64 %14
  %74 = ptrtoint ptr %73 to i64
  %75 = call ptr @malloc(i64 %74)
  %76 = insertvalue { ptr, ptr, i64, [1 x i64], [1 x i64] } undef, ptr %75, 0
  %77 = insertvalue { ptr, ptr, i64, [1 x i64], [1 x i64] } %76, ptr %75, 1
  %78 = insertvalue { ptr, ptr, i64, [1 x i64], [1 x i64] } %77, i64 0, 2
  %79 = insertvalue { ptr, ptr, i64, [1 x i64], [1 x i64] } %78, i64 %14, 3, 0
  %80 = insertvalue { ptr, ptr, i64, [1 x i64], [1 x i64] } %79, i64 1, 4, 0
  br label %81
Marking Edge Executable:  -> 
Marking Block Executable: 

Popped off BBWL: 
81:                                               ; preds = %84, %71
  %82 = phi i64 [ %86, %84 ], [ 0, %71 ]
  %83 = icmp slt i64 %82, %14
  br i1 %83, label %84, label %87
Marking Edge Executable:  -> 
Marking Block Executable: 
Marking Edge Executable:  -> 
Marking Block Executable: 

Popped off BBWL: 
87:                                               ; preds = %81
  %88 = alloca { ptr, ptr, i64, [1 x i64], [1 x i64] }, i64 1, align 8
  store { ptr, ptr, i64, [1 x i64], [1 x i64] } %80, ptr %88, align 8
  %89 = getelementptr i64, ptr null, i64 %16
  %90 = ptrtoint ptr %89 to i64
  %91 = call ptr @malloc(i64 %90)
  %92 = insertvalue { ptr, ptr, i64, [1 x i64], [1 x i64] } undef, ptr %91, 0
  %93 = insertvalue { ptr, ptr, i64, [1 x i64], [1 x i64] } %92, ptr %91, 1
  %94 = insertvalue { ptr, ptr, i64, [1 x i64], [1 x i64] } %93, i64 0, 2
  %95 = insertvalue { ptr, ptr, i64, [1 x i64], [1 x i64] } %94, i64 %16, 3, 0
  %96 = insertvalue { ptr, ptr, i64, [1 x i64], [1 x i64] } %95, i64 1, 4, 0
  br label %97
Marking Edge Executable:  -> 
Marking Block Executable: 

Popped off BBWL: 
97:                                               ; preds = %100, %87
  %98 = phi i64 [ %102, %100 ], [ 0, %87 ]
  %99 = icmp slt i64 %98, %16
  br i1 %99, label %100, label %103
Marking Edge Executable:  -> 
Marking Block Executable: 
Marking Edge Executable:  -> 
Marking Block Executable: 

Popped off BBWL: 
103:                                              ; preds = %97
  %104 = alloca { ptr, ptr, i64, [1 x i64], [1 x i64] }, i64 1, align 8
  store { ptr, ptr, i64, [1 x i64], [1 x i64] } %96, ptr %104, align 8
  %105 = getelementptr i64, ptr null, i64 %18
  %106 = ptrtoint ptr %105 to i64
  %107 = call ptr @malloc(i64 %106)
  %108 = insertvalue { ptr, ptr, i64, [1 x i64], [1 x i64] } undef, ptr %107, 0
  %109 = insertvalue { ptr, ptr, i64, [1 x i64], [1 x i64] } %108, ptr %107, 1
  %110 = insertvalue { ptr, ptr, i64, [1 x i64], [1 x i64] } %109, i64 0, 2
  %111 = insertvalue { ptr, ptr, i64, [1 x i64], [1 x i64] } %110, i64 %18, 3, 0
  %112 = insertvalue { ptr, ptr, i64, [1 x i64], [1 x i64] } %111, i64 1, 4, 0
  br label %113
Marking Edge Executable:  -> 
Marking Block Executable: 

Popped off BBWL: 
113:                                              ; preds = %116, %103
  %114 = phi i64 [ %118, %116 ], [ 0, %103 ]
  %115 = icmp slt i64 %114, %18
  br i1 %115, label %116, label %119
Marking Edge Executable:  -> 
Marking Block Executable: 
Marking Edge Executable:  -> 
Marking Block Executable: 

Popped off BBWL: 
119:                                              ; preds = %113
  %120 = alloca { ptr, ptr, i64, [1 x i64], [1 x i64] }, i64 1, align 8
  store { ptr, ptr, i64, [1 x i64], [1 x i64] } %112, ptr %120, align 8
  %121 = getelementptr i64, ptr null, i64 %20
  %122 = ptrtoint ptr %121 to i64
  %123 = call ptr @malloc(i64 %122)
  %124 = insertvalue { ptr, ptr, i64, [1 x i64], [1 x i64] } undef, ptr %123, 0
  %125 = insertvalue { ptr, ptr, i64, [1 x i64], [1 x i64] } %124, ptr %123, 1
  %126 = insertvalue { ptr, ptr, i64, [1 x i64], [1 x i64] } %125, i64 0, 2
  %127 = insertvalue { ptr, ptr, i64, [1 x i64], [1 x i64] } %126, i64 %20, 3, 0
  %128 = insertvalue { ptr, ptr, i64, [1 x i64], [1 x i64] } %127, i64 1, 4, 0
  br label %129
Marking Edge Executable:  -> 
Marking Block Executable: 

Popped off BBWL: 
129:                                              ; preds = %132, %119
  %130 = phi i64 [ %134, %132 ], [ 0, %119 ]
  %131 = icmp slt i64 %130, %20
  br i1 %131, label %132, label %135
Marking Edge Executable:  -> 
Marking Block Executable: 
Marking Edge Executable:  -> 
Marking Block Executable: 

Popped off BBWL: 
135:                                              ; preds = %129
  %136 = alloca { ptr, ptr, i64, [1 x i64], [1 x i64] }, i64 1, align 8
  store { ptr, ptr, i64, [1 x i64], [1 x i64] } %128, ptr %136, align 8
  %137 = getelementptr i64, ptr null, i64 %22
  %138 = ptrtoint ptr %137 to i64
  %139 = call ptr @malloc(i64 %138)
  %140 = insertvalue { ptr, ptr, i64, [1 x i64], [1 x i64] } undef, ptr %139, 0
  %141 = insertvalue { ptr, ptr, i64, [1 x i64], [1 x i64] } %140, ptr %139, 1
  %142 = insertvalue { ptr, ptr, i64, [1 x i64], [1 x i64] } %141, i64 0, 2
  %143 = insertvalue { ptr, ptr, i64, [1 x i64], [1 x i64] } %142, i64 %22, 3, 0
  %144 = insertvalue { ptr, ptr, i64, [1 x i64], [1 x i64] } %143, i64 1, 4, 0
  br label %145
Marking Edge Executable:  -> 
Marking Block Executable: 

Popped off BBWL: 
145:                                              ; preds = %148, %135
  %146 = phi i64 [ %150, %148 ], [ 0, %135 ]
  %147 = icmp slt i64 %146, %22
  br i1 %147, label %148, label %151
Marking Edge Executable:  -> 
Marking Block Executable: 
Marking Edge Executable:  -> 
Marking Block Executable: 

Popped off BBWL: 
151:                                              ; preds = %145
  %152 = alloca { ptr, ptr, i64, [1 x i64], [1 x i64] }, i64 1, align 8
  store { ptr, ptr, i64, [1 x i64], [1 x i64] } %144, ptr %152, align 8
  %153 = getelementptr double, ptr null, i64 %24
  %154 = ptrtoint ptr %153 to i64
  %155 = call ptr @malloc(i64 %154)
  %156 = insertvalue { ptr, ptr, i64, [1 x i64], [1 x i64] } undef, ptr %155, 0
  %157 = insertvalue { ptr, ptr, i64, [1 x i64], [1 x i64] } %156, ptr %155, 1
  %158 = insertvalue { ptr, ptr, i64, [1 x i64], [1 x i64] } %157, i64 0, 2
  %159 = insertvalue { ptr, ptr, i64, [1 x i64], [1 x i64] } %158, i64 %24, 3, 0
  %160 = insertvalue { ptr, ptr, i64, [1 x i64], [1 x i64] } %159, i64 1, 4, 0
  br label %161
Marking Edge Executable:  -> 
Marking Block Executable: 

Popped off BBWL: 
161:                                              ; preds = %164, %151
  %162 = phi i64 [ %166, %164 ], [ 0, %151 ]
  %163 = icmp slt i64 %162, %24
  br i1 %163, label %164, label %167
Marking Edge Executable:  -> 
Marking Block Executable: 
Marking Edge Executable:  -> 
Marking Block Executable: 

Popped off BBWL: 
167:                                              ; preds = %161
  %168 = alloca { ptr, ptr, i64, [1 x i64], [1 x i64] }, i64 1, align 8
  store { ptr, ptr, i64, [1 x i64], [1 x i64] } %160, ptr %168, align 8
  call void @read_input_2D_f64(i32 1, i64 0, i64 3, i64 0, i64 -1, i64 1, ptr %40, i64 1, ptr %56, i64 1, ptr %72, i64 1, ptr %88, i64 1, ptr %104, i64 1, ptr %120, i64 1, ptr %136, i64 1, ptr %152, i64 1, ptr %168, i32 1)
  call void @comet_print_memref_i64(i64 1, ptr %40)
  call void @comet_print_memref_i64(i64 1, ptr %56)
  call void @comet_print_memref_i64(i64 1, ptr %72)
  call void @comet_print_memref_i64(i64 1, ptr %88)
  call void @comet_print_memref_i64(i64 1, ptr %104)
  call void @comet_print_memref_i64(i64 1, ptr %120)
  call void @comet_print_memref_i64(i64 1, ptr %136)
  call void @comet_print_memref_i64(i64 1, ptr %152)
  call void @comet_print_memref_f64(i64 1, ptr %168)
  ret void

Popped off BBWL: 
164:                                              ; preds = %161
  %165 = getelementptr double, ptr %155, i64 %162
  store double 0.000000e+00, ptr %165, align 8
  %166 = add i64 %162, 1
  br label %161
Marking Edge Executable:  -> 

Popped off BBWL: 
148:                                              ; preds = %145
  %149 = getelementptr i64, ptr %139, i64 %146
  store i64 0, ptr %149, align 4
  %150 = add i64 %146, 1
  br label %145
Marking Edge Executable:  -> 

Popped off BBWL: 
132:                                              ; preds = %129
  %133 = getelementptr i64, ptr %123, i64 %130
  store i64 0, ptr %133, align 4
  %134 = add i64 %130, 1
  br label %129
Marking Edge Executable:  -> 

Popped off BBWL: 
116:                                              ; preds = %113
  %117 = getelementptr i64, ptr %107, i64 %114
  store i64 0, ptr %117, align 4
  %118 = add i64 %114, 1
  br label %113
Marking Edge Executable:  -> 

Popped off BBWL: 
100:                                              ; preds = %97
  %101 = getelementptr i64, ptr %91, i64 %98
  store i64 0, ptr %101, align 4
  %102 = add i64 %98, 1
  br label %97
Marking Edge Executable:  -> 

Popped off BBWL: 
84:                                               ; preds = %81
  %85 = getelementptr i64, ptr %75, i64 %82
  store i64 0, ptr %85, align 4
  %86 = add i64 %82, 1
  br label %81
Marking Edge Executable:  -> 

Popped off BBWL: 
68:                                               ; preds = %65
  %69 = getelementptr i64, ptr %59, i64 %66
  store i64 0, ptr %69, align 4
  %70 = add i64 %66, 1
  br label %65
Marking Edge Executable:  -> 

Popped off BBWL: 
52:                                               ; preds = %49
  %53 = getelementptr i64, ptr %43, i64 %50
  store i64 0, ptr %53, align 4
  %54 = add i64 %50, 1
  br label %49
Marking Edge Executable:  -> 

Popped off BBWL: 
36:                                               ; preds = %33
  %37 = getelementptr i64, ptr %27, i64 %34
  store i64 0, ptr %37, align 4
  %38 = add i64 %34, 1
  br label %33
Marking Edge Executable:  -> 

Popped off V-WL:   %38 = add i64 %34, 1

Popped off V-WL:   %37 = getelementptr i64, ptr %27, i64 %34

Popped off V-WL:   %54 = add i64 %50, 1

Popped off V-WL:   %53 = getelementptr i64, ptr %43, i64 %50

Popped off V-WL:   %70 = add i64 %66, 1

Popped off V-WL:   %69 = getelementptr i64, ptr %59, i64 %66

Popped off V-WL:   %86 = add i64 %82, 1

Popped off V-WL:   %85 = getelementptr i64, ptr %75, i64 %82

Popped off V-WL:   %102 = add i64 %98, 1

Popped off V-WL:   %101 = getelementptr i64, ptr %91, i64 %98

Popped off V-WL:   %118 = add i64 %114, 1

Popped off V-WL:   %117 = getelementptr i64, ptr %107, i64 %114

Popped off V-WL:   %134 = add i64 %130, 1

Popped off V-WL:   %133 = getelementptr i64, ptr %123, i64 %130

Popped off V-WL:   %150 = add i64 %146, 1

Popped off V-WL:   %149 = getelementptr i64, ptr %139, i64 %146

Popped off V-WL:   %166 = add i64 %162, 1

Popped off V-WL:   %165 = getelementptr double, ptr %155, i64 %162

Popped off V-WL:   %168 = alloca { ptr, ptr, i64, [1 x i64], [1 x i64] }, i64 1, align 8

Popped off V-WL:   %163 = icmp slt i64 %162, %24

Popped off V-WL:   %162 = phi i64 [ %166, %164 ], [ 0, %151 ]

Popped off V-WL:   %160 = insertvalue { ptr, ptr, i64, [1 x i64], [1 x i64] } %159, i64 1, 4, 0

Popped off V-WL:   %159 = insertvalue { ptr, ptr, i64, [1 x i64], [1 x i64] } %158, i64 %24, 3, 0

Popped off V-WL:   %158 = insertvalue { ptr, ptr, i64, [1 x i64], [1 x i64] } %157, i64 0, 2

Popped off V-WL:   %157 = insertvalue { ptr, ptr, i64, [1 x i64], [1 x i64] } %156, ptr %155, 1

Popped off V-WL:   %156 = insertvalue { ptr, ptr, i64, [1 x i64], [1 x i64] } undef, ptr %155, 0

Popped off V-WL:   %155 = call ptr @malloc(i64 %154)

Popped off V-WL:   %154 = ptrtoint ptr %153 to i64

Popped off V-WL:   %153 = getelementptr double, ptr null, i64 %24

Popped off V-WL:   %152 = alloca { ptr, ptr, i64, [1 x i64], [1 x i64] }, i64 1, align 8

Popped off V-WL:   %147 = icmp slt i64 %146, %22

Popped off V-WL:   %146 = phi i64 [ %150, %148 ], [ 0, %135 ]

Popped off V-WL:   %144 = insertvalue { ptr, ptr, i64, [1 x i64], [1 x i64] } %143, i64 1, 4, 0

Popped off V-WL:   %143 = insertvalue { ptr, ptr, i64, [1 x i64], [1 x i64] } %142, i64 %22, 3, 0

Popped off V-WL:   %142 = insertvalue { ptr, ptr, i64, [1 x i64], [1 x i64] } %141, i64 0, 2

Popped off V-WL:   %141 = insertvalue { ptr, ptr, i64, [1 x i64], [1 x i64] } %140, ptr %139, 1

Popped off V-WL:   %140 = insertvalue { ptr, ptr, i64, [1 x i64], [1 x i64] } undef, ptr %139, 0

Popped off V-WL:   %139 = call ptr @malloc(i64 %138)

Popped off V-WL:   %138 = ptrtoint ptr %137 to i64

Popped off V-WL:   %137 = getelementptr i64, ptr null, i64 %22

Popped off V-WL:   %136 = alloca { ptr, ptr, i64, [1 x i64], [1 x i64] }, i64 1, align 8

Popped off V-WL:   %131 = icmp slt i64 %130, %20

Popped off V-WL:   %130 = phi i64 [ %134, %132 ], [ 0, %119 ]

Popped off V-WL:   %128 = insertvalue { ptr, ptr, i64, [1 x i64], [1 x i64] } %127, i64 1, 4, 0

Popped off V-WL:   %127 = insertvalue { ptr, ptr, i64, [1 x i64], [1 x i64] } %126, i64 %20, 3, 0

Popped off V-WL:   %126 = insertvalue { ptr, ptr, i64, [1 x i64], [1 x i64] } %125, i64 0, 2

Popped off V-WL:   %125 = insertvalue { ptr, ptr, i64, [1 x i64], [1 x i64] } %124, ptr %123, 1

Popped off V-WL:   %124 = insertvalue { ptr, ptr, i64, [1 x i64], [1 x i64] } undef, ptr %123, 0

Popped off V-WL:   %123 = call ptr @malloc(i64 %122)

Popped off V-WL:   %122 = ptrtoint ptr %121 to i64

Popped off V-WL:   %121 = getelementptr i64, ptr null, i64 %20

Popped off V-WL:   %120 = alloca { ptr, ptr, i64, [1 x i64], [1 x i64] }, i64 1, align 8

Popped off V-WL:   %115 = icmp slt i64 %114, %18

Popped off V-WL:   %114 = phi i64 [ %118, %116 ], [ 0, %103 ]

Popped off V-WL:   %112 = insertvalue { ptr, ptr, i64, [1 x i64], [1 x i64] } %111, i64 1, 4, 0

Popped off V-WL:   %111 = insertvalue { ptr, ptr, i64, [1 x i64], [1 x i64] } %110, i64 %18, 3, 0

Popped off V-WL:   %110 = insertvalue { ptr, ptr, i64, [1 x i64], [1 x i64] } %109, i64 0, 2

Popped off V-WL:   %109 = insertvalue { ptr, ptr, i64, [1 x i64], [1 x i64] } %108, ptr %107, 1

Popped off V-WL:   %108 = insertvalue { ptr, ptr, i64, [1 x i64], [1 x i64] } undef, ptr %107, 0

Popped off V-WL:   %107 = call ptr @malloc(i64 %106)

Popped off V-WL:   %106 = ptrtoint ptr %105 to i64

Popped off V-WL:   %105 = getelementptr i64, ptr null, i64 %18

Popped off V-WL:   %104 = alloca { ptr, ptr, i64, [1 x i64], [1 x i64] }, i64 1, align 8

Popped off V-WL:   %99 = icmp slt i64 %98, %16

Popped off V-WL:   %98 = phi i64 [ %102, %100 ], [ 0, %87 ]

Popped off V-WL:   %96 = insertvalue { ptr, ptr, i64, [1 x i64], [1 x i64] } %95, i64 1, 4, 0

Popped off V-WL:   %95 = insertvalue { ptr, ptr, i64, [1 x i64], [1 x i64] } %94, i64 %16, 3, 0

Popped off V-WL:   %94 = insertvalue { ptr, ptr, i64, [1 x i64], [1 x i64] } %93, i64 0, 2

Popped off V-WL:   %93 = insertvalue { ptr, ptr, i64, [1 x i64], [1 x i64] } %92, ptr %91, 1

Popped off V-WL:   %92 = insertvalue { ptr, ptr, i64, [1 x i64], [1 x i64] } undef, ptr %91, 0

Popped off V-WL:   %91 = call ptr @malloc(i64 %90)

Popped off V-WL:   %90 = ptrtoint ptr %89 to i64

Popped off V-WL:   %89 = getelementptr i64, ptr null, i64 %16

Popped off V-WL:   %88 = alloca { ptr, ptr, i64, [1 x i64], [1 x i64] }, i64 1, align 8

Popped off V-WL:   %83 = icmp slt i64 %82, %14

Popped off V-WL:   %82 = phi i64 [ %86, %84 ], [ 0, %71 ]

Popped off V-WL:   %80 = insertvalue { ptr, ptr, i64, [1 x i64], [1 x i64] } %79, i64 1, 4, 0

Popped off V-WL:   %79 = insertvalue { ptr, ptr, i64, [1 x i64], [1 x i64] } %78, i64 %14, 3, 0

Popped off V-WL:   %78 = insertvalue { ptr, ptr, i64, [1 x i64], [1 x i64] } %77, i64 0, 2

Popped off V-WL:   %77 = insertvalue { ptr, ptr, i64, [1 x i64], [1 x i64] } %76, ptr %75, 1

Popped off V-WL:   %76 = insertvalue { ptr, ptr, i64, [1 x i64], [1 x i64] } undef, ptr %75, 0

Popped off V-WL:   %75 = call ptr @malloc(i64 %74)

Popped off V-WL:   %74 = ptrtoint ptr %73 to i64

Popped off V-WL:   %73 = getelementptr i64, ptr null, i64 %14

Popped off V-WL:   %72 = alloca { ptr, ptr, i64, [1 x i64], [1 x i64] }, i64 1, align 8

Popped off V-WL:   %67 = icmp slt i64 %66, %12

Popped off V-WL:   %66 = phi i64 [ %70, %68 ], [ 0, %55 ]

Popped off V-WL:   %64 = insertvalue { ptr, ptr, i64, [1 x i64], [1 x i64] } %63, i64 1, 4, 0

Popped off V-WL:   %63 = insertvalue { ptr, ptr, i64, [1 x i64], [1 x i64] } %62, i64 %12, 3, 0

Popped off V-WL:   %62 = insertvalue { ptr, ptr, i64, [1 x i64], [1 x i64] } %61, i64 0, 2

Popped off V-WL:   %61 = insertvalue { ptr, ptr, i64, [1 x i64], [1 x i64] } %60, ptr %59, 1

Popped off V-WL:   %60 = insertvalue { ptr, ptr, i64, [1 x i64], [1 x i64] } undef, ptr %59, 0

Popped off V-WL:   %59 = call ptr @malloc(i64 %58)

Popped off V-WL:   %58 = ptrtoint ptr %57 to i64

Popped off V-WL:   %57 = getelementptr i64, ptr null, i64 %12

Popped off V-WL:   %56 = alloca { ptr, ptr, i64, [1 x i64], [1 x i64] }, i64 1, align 8

Popped off V-WL:   %51 = icmp slt i64 %50, %10

Popped off V-WL:   %50 = phi i64 [ %54, %52 ], [ 0, %39 ]

Popped off V-WL:   %48 = insertvalue { ptr, ptr, i64, [1 x i64], [1 x i64] } %47, i64 1, 4, 0

Popped off V-WL:   %47 = insertvalue { ptr, ptr, i64, [1 x i64], [1 x i64] } %46, i64 %10, 3, 0

Popped off V-WL:   %46 = insertvalue { ptr, ptr, i64, [1 x i64], [1 x i64] } %45, i64 0, 2

Popped off V-WL:   %45 = insertvalue { ptr, ptr, i64, [1 x i64], [1 x i64] } %44, ptr %43, 1

Popped off V-WL:   %44 = insertvalue { ptr, ptr, i64, [1 x i64], [1 x i64] } undef, ptr %43, 0

Popped off V-WL:   %43 = call ptr @malloc(i64 %42)

Popped off V-WL:   %42 = ptrtoint ptr %41 to i64

Popped off V-WL:   %41 = getelementptr i64, ptr null, i64 %10

Popped off V-WL:   %40 = alloca { ptr, ptr, i64, [1 x i64], [1 x i64] }, i64 1, align 8

Popped off V-WL:   %35 = icmp slt i64 %34, %8

Popped off V-WL:   %34 = phi i64 [ %38, %36 ], [ 0, %0 ]

Popped off V-WL:   %32 = insertvalue { ptr, ptr, i64, [1 x i64], [1 x i64] } %31, i64 1, 4, 0

Popped off V-WL:   %31 = insertvalue { ptr, ptr, i64, [1 x i64], [1 x i64] } %30, i64 %8, 3, 0

Popped off V-WL:   %30 = insertvalue { ptr, ptr, i64, [1 x i64], [1 x i64] } %29, i64 0, 2

Popped off V-WL:   %29 = insertvalue { ptr, ptr, i64, [1 x i64], [1 x i64] } %28, ptr %27, 1

Popped off V-WL:   %28 = insertvalue { ptr, ptr, i64, [1 x i64], [1 x i64] } undef, ptr %27, 0

Popped off V-WL:   %27 = call ptr @malloc(i64 %26)

Popped off V-WL:   %26 = ptrtoint ptr %25 to i64

Popped off V-WL:   %25 = getelementptr i64, ptr null, i64 %8

Popped off V-WL:   %24 = load i64, ptr %23, align 4

Popped off V-WL:   %23 = getelementptr i64, ptr %1, i64 8

Popped off V-WL:   %22 = load i64, ptr %21, align 4

Popped off V-WL:   %21 = getelementptr i64, ptr %1, i64 7

Popped off V-WL:   %20 = load i64, ptr %19, align 4

Popped off V-WL:   %19 = getelementptr i64, ptr %1, i64 6

Popped off V-WL:   %18 = load i64, ptr %17, align 4

Popped off V-WL:   %17 = getelementptr i64, ptr %1, i64 5

Popped off V-WL:   %16 = load i64, ptr %15, align 4

Popped off V-WL:   %15 = getelementptr i64, ptr %1, i64 4

Popped off V-WL:   %14 = load i64, ptr %13, align 4

Popped off V-WL:   %13 = getelementptr i64, ptr %1, i64 3

Popped off V-WL:   %12 = load i64, ptr %11, align 4

Popped off V-WL:   %11 = getelementptr i64, ptr %1, i64 2

Popped off V-WL:   %10 = load i64, ptr %9, align 4

Popped off V-WL:   %9 = getelementptr i64, ptr %1, i64 1

Popped off V-WL:   %8 = load i64, ptr %1, align 4

Popped off V-WL:   %.fca.4.0.gep = getelementptr inbounds { ptr, ptr, i64, [1 x i64], [1 x i64] }, ptr %7, i32 0, i32 4, i32 0

Popped off V-WL:   %.fca.3.0.gep = getelementptr inbounds { ptr, ptr, i64, [1 x i64], [1 x i64] }, ptr %7, i32 0, i32 3, i32 0

Popped off V-WL:   %.fca.2.gep = getelementptr inbounds { ptr, ptr, i64, [1 x i64], [1 x i64] }, ptr %7, i32 0, i32 2

Popped off V-WL:   %.fca.1.gep = getelementptr inbounds { ptr, ptr, i64, [1 x i64], [1 x i64] }, ptr %7, i32 0, i32 1

Popped off V-WL:   %7 = alloca { ptr, ptr, i64, [1 x i64], [1 x i64] }, i64 1, align 8

Popped off V-WL:   %5 = insertvalue { ptr, ptr, i64, [1 x i64], [1 x i64] } %4, i64 7, 3, 0

Popped off V-WL:   %4 = insertvalue { ptr, ptr, i64, [1 x i64], [1 x i64] } %3, i64 0, 2

Popped off V-WL:   %3 = insertvalue { ptr, ptr, i64, [1 x i64], [1 x i64] } %2, ptr %1, 1

Popped off V-WL:   %2 = insertvalue { ptr, ptr, i64, [1 x i64], [1 x i64] } undef, ptr %1, 0

Popped off V-WL:   %1 = call ptr @malloc(i64 ptrtoint (ptr getelementptr (i64, ptr null, i32 7) to i64))
GLOBAL DEAD: ; Function Attrs: mustprogress nounwind willreturn allockind("free") memory(argmem: readwrite, inaccessiblemem: readwrite)
declare void @free(ptr allocptr nocapture noundef) #1

GLOBAL DEAD: declare void @quick_sort(i64, ptr, i64)



INSTCOMBINE ITERATION #1 on main
IC: ConstFold operand of:   %1 = call ptr @malloc(i64 ptrtoint (ptr getelementptr (i64, ptr null, i32 7) to i64))
    Old = i64 ptrtoint (ptr getelementptr (i64, ptr null, i32 7) to i64)
    New = i64 56
ADD:   br label %33
ADD:   %38 = add i64 %34, 1
ADD:   store i64 0, ptr %37, align 4
ADD:   %37 = getelementptr i64, ptr %27, i64 %34
ADD:   br label %49
ADD:   %54 = add i64 %50, 1
ADD:   store i64 0, ptr %53, align 4
ADD:   %53 = getelementptr i64, ptr %43, i64 %50
ADD:   br label %65
ADD:   %70 = add i64 %66, 1
ADD:   store i64 0, ptr %69, align 4
ADD:   %69 = getelementptr i64, ptr %59, i64 %66
ADD:   br label %81
ADD:   %86 = add i64 %82, 1
ADD:   store i64 0, ptr %85, align 4
ADD:   %85 = getelementptr i64, ptr %75, i64 %82
ADD:   br label %97
ADD:   %102 = add i64 %98, 1
ADD:   store i64 0, ptr %101, align 4
ADD:   %101 = getelementptr i64, ptr %91, i64 %98
ADD:   br label %113
ADD:   %118 = add i64 %114, 1
ADD:   store i64 0, ptr %117, align 4
ADD:   %117 = getelementptr i64, ptr %107, i64 %114
ADD:   br label %129
ADD:   %134 = add i64 %130, 1
ADD:   store i64 0, ptr %133, align 4
ADD:   %133 = getelementptr i64, ptr %123, i64 %130
ADD:   br label %145
ADD:   %150 = add i64 %146, 1
ADD:   store i64 0, ptr %149, align 4
ADD:   %149 = getelementptr i64, ptr %139, i64 %146
ADD:   br label %161
ADD:   %166 = add i64 %162, 1
ADD:   store double 0.000000e+00, ptr %165, align 8
ADD:   %165 = getelementptr double, ptr %155, i64 %162
ADD:   ret void
ADD:   call void @comet_print_memref_f64(i64 1, ptr %168)
ADD:   call void @comet_print_memref_i64(i64 1, ptr %152)
ADD:   call void @comet_print_memref_i64(i64 1, ptr %136)
ADD:   call void @comet_print_memref_i64(i64 1, ptr %120)
ADD:   call void @comet_print_memref_i64(i64 1, ptr %104)
ADD:   call void @comet_print_memref_i64(i64 1, ptr %88)
ADD:   call void @comet_print_memref_i64(i64 1, ptr %72)
ADD:   call void @comet_print_memref_i64(i64 1, ptr %56)
ADD:   call void @comet_print_memref_i64(i64 1, ptr %40)
ADD:   call void @read_input_2D_f64(i32 1, i64 0, i64 3, i64 0, i64 -1, i64 1, ptr %40, i64 1, ptr %56, i64 1, ptr %72, i64 1, ptr %88, i64 1, ptr %104, i64 1, ptr %120, i64 1, ptr %136, i64 1, ptr %152, i64 1, ptr %168, i32 1)
ADD:   store { ptr, ptr, i64, [1 x i64], [1 x i64] } %160, ptr %168, align 8
ADD:   %168 = alloca { ptr, ptr, i64, [1 x i64], [1 x i64] }, i64 1, align 8
ADD:   br i1 %163, label %164, label %167
ADD:   %163 = icmp slt i64 %162, %24
ADD:   %162 = phi i64 [ %166, %164 ], [ 0, %151 ]
ADD:   br label %161
ADD:   %160 = insertvalue { ptr, ptr, i64, [1 x i64], [1 x i64] } %159, i64 1, 4, 0
ADD:   %159 = insertvalue { ptr, ptr, i64, [1 x i64], [1 x i64] } %158, i64 %24, 3, 0
ADD:   %158 = insertvalue { ptr, ptr, i64, [1 x i64], [1 x i64] } %157, i64 0, 2
ADD:   %157 = insertvalue { ptr, ptr, i64, [1 x i64], [1 x i64] } %156, ptr %155, 1
ADD:   %156 = insertvalue { ptr, ptr, i64, [1 x i64], [1 x i64] } undef, ptr %155, 0
ADD:   %155 = call ptr @malloc(i64 %154)
ADD:   %154 = ptrtoint ptr %153 to i64
ADD:   %153 = getelementptr double, ptr null, i64 %24
ADD:   store { ptr, ptr, i64, [1 x i64], [1 x i64] } %144, ptr %152, align 8
ADD:   %152 = alloca { ptr, ptr, i64, [1 x i64], [1 x i64] }, i64 1, align 8
ADD:   br i1 %147, label %148, label %151
ADD:   %147 = icmp slt i64 %146, %22
ADD:   %146 = phi i64 [ %150, %148 ], [ 0, %135 ]
ADD:   br label %145
ADD:   %144 = insertvalue { ptr, ptr, i64, [1 x i64], [1 x i64] } %143, i64 1, 4, 0
ADD:   %143 = insertvalue { ptr, ptr, i64, [1 x i64], [1 x i64] } %142, i64 %22, 3, 0
ADD:   %142 = insertvalue { ptr, ptr, i64, [1 x i64], [1 x i64] } %141, i64 0, 2
ADD:   %141 = insertvalue { ptr, ptr, i64, [1 x i64], [1 x i64] } %140, ptr %139, 1
ADD:   %140 = insertvalue { ptr, ptr, i64, [1 x i64], [1 x i64] } undef, ptr %139, 0
ADD:   %139 = call ptr @malloc(i64 %138)
ADD:   %138 = ptrtoint ptr %137 to i64
ADD:   %137 = getelementptr i64, ptr null, i64 %22
ADD:   store { ptr, ptr, i64, [1 x i64], [1 x i64] } %128, ptr %136, align 8
ADD:   %136 = alloca { ptr, ptr, i64, [1 x i64], [1 x i64] }, i64 1, align 8
ADD:   br i1 %131, label %132, label %135
ADD:   %131 = icmp slt i64 %130, %20
ADD:   %130 = phi i64 [ %134, %132 ], [ 0, %119 ]
ADD:   br label %129
ADD:   %128 = insertvalue { ptr, ptr, i64, [1 x i64], [1 x i64] } %127, i64 1, 4, 0
ADD:   %127 = insertvalue { ptr, ptr, i64, [1 x i64], [1 x i64] } %126, i64 %20, 3, 0
ADD:   %126 = insertvalue { ptr, ptr, i64, [1 x i64], [1 x i64] } %125, i64 0, 2
ADD:   %125 = insertvalue { ptr, ptr, i64, [1 x i64], [1 x i64] } %124, ptr %123, 1
ADD:   %124 = insertvalue { ptr, ptr, i64, [1 x i64], [1 x i64] } undef, ptr %123, 0
ADD:   %123 = call ptr @malloc(i64 %122)
ADD:   %122 = ptrtoint ptr %121 to i64
ADD:   %121 = getelementptr i64, ptr null, i64 %20
ADD:   store { ptr, ptr, i64, [1 x i64], [1 x i64] } %112, ptr %120, align 8
ADD:   %120 = alloca { ptr, ptr, i64, [1 x i64], [1 x i64] }, i64 1, align 8
ADD:   br i1 %115, label %116, label %119
ADD:   %115 = icmp slt i64 %114, %18
ADD:   %114 = phi i64 [ %118, %116 ], [ 0, %103 ]
ADD:   br label %113
ADD:   %112 = insertvalue { ptr, ptr, i64, [1 x i64], [1 x i64] } %111, i64 1, 4, 0
ADD:   %111 = insertvalue { ptr, ptr, i64, [1 x i64], [1 x i64] } %110, i64 %18, 3, 0
ADD:   %110 = insertvalue { ptr, ptr, i64, [1 x i64], [1 x i64] } %109, i64 0, 2
ADD:   %109 = insertvalue { ptr, ptr, i64, [1 x i64], [1 x i64] } %108, ptr %107, 1
ADD:   %108 = insertvalue { ptr, ptr, i64, [1 x i64], [1 x i64] } undef, ptr %107, 0
ADD:   %107 = call ptr @malloc(i64 %106)
ADD:   %106 = ptrtoint ptr %105 to i64
ADD:   %105 = getelementptr i64, ptr null, i64 %18
ADD:   store { ptr, ptr, i64, [1 x i64], [1 x i64] } %96, ptr %104, align 8
ADD:   %104 = alloca { ptr, ptr, i64, [1 x i64], [1 x i64] }, i64 1, align 8
ADD:   br i1 %99, label %100, label %103
ADD:   %99 = icmp slt i64 %98, %16
ADD:   %98 = phi i64 [ %102, %100 ], [ 0, %87 ]
ADD:   br label %97
ADD:   %96 = insertvalue { ptr, ptr, i64, [1 x i64], [1 x i64] } %95, i64 1, 4, 0
ADD:   %95 = insertvalue { ptr, ptr, i64, [1 x i64], [1 x i64] } %94, i64 %16, 3, 0
ADD:   %94 = insertvalue { ptr, ptr, i64, [1 x i64], [1 x i64] } %93, i64 0, 2
ADD:   %93 = insertvalue { ptr, ptr, i64, [1 x i64], [1 x i64] } %92, ptr %91, 1
ADD:   %92 = insertvalue { ptr, ptr, i64, [1 x i64], [1 x i64] } undef, ptr %91, 0
ADD:   %91 = call ptr @malloc(i64 %90)
ADD:   %90 = ptrtoint ptr %89 to i64
ADD:   %89 = getelementptr i64, ptr null, i64 %16
ADD:   store { ptr, ptr, i64, [1 x i64], [1 x i64] } %80, ptr %88, align 8
ADD:   %88 = alloca { ptr, ptr, i64, [1 x i64], [1 x i64] }, i64 1, align 8
ADD:   br i1 %83, label %84, label %87
ADD:   %83 = icmp slt i64 %82, %14
ADD:   %82 = phi i64 [ %86, %84 ], [ 0, %71 ]
ADD:   br label %81
ADD:   %80 = insertvalue { ptr, ptr, i64, [1 x i64], [1 x i64] } %79, i64 1, 4, 0
ADD:   %79 = insertvalue { ptr, ptr, i64, [1 x i64], [1 x i64] } %78, i64 %14, 3, 0
ADD:   %78 = insertvalue { ptr, ptr, i64, [1 x i64], [1 x i64] } %77, i64 0, 2
ADD:   %77 = insertvalue { ptr, ptr, i64, [1 x i64], [1 x i64] } %76, ptr %75, 1
ADD:   %76 = insertvalue { ptr, ptr, i64, [1 x i64], [1 x i64] } undef, ptr %75, 0
ADD:   %75 = call ptr @malloc(i64 %74)
ADD:   %74 = ptrtoint ptr %73 to i64
ADD:   %73 = getelementptr i64, ptr null, i64 %14
ADD:   store { ptr, ptr, i64, [1 x i64], [1 x i64] } %64, ptr %72, align 8
ADD:   %72 = alloca { ptr, ptr, i64, [1 x i64], [1 x i64] }, i64 1, align 8
ADD:   br i1 %67, label %68, label %71
ADD:   %67 = icmp slt i64 %66, %12
ADD:   %66 = phi i64 [ %70, %68 ], [ 0, %55 ]
ADD:   br label %65
ADD:   %64 = insertvalue { ptr, ptr, i64, [1 x i64], [1 x i64] } %63, i64 1, 4, 0
ADD:   %63 = insertvalue { ptr, ptr, i64, [1 x i64], [1 x i64] } %62, i64 %12, 3, 0
ADD:   %62 = insertvalue { ptr, ptr, i64, [1 x i64], [1 x i64] } %61, i64 0, 2
ADD:   %61 = insertvalue { ptr, ptr, i64, [1 x i64], [1 x i64] } %60, ptr %59, 1
ADD:   %60 = insertvalue { ptr, ptr, i64, [1 x i64], [1 x i64] } undef, ptr %59, 0
ADD:   %59 = call ptr @malloc(i64 %58)
ADD:   %58 = ptrtoint ptr %57 to i64
ADD:   %57 = getelementptr i64, ptr null, i64 %12
ADD:   store { ptr, ptr, i64, [1 x i64], [1 x i64] } %48, ptr %56, align 8
ADD:   %56 = alloca { ptr, ptr, i64, [1 x i64], [1 x i64] }, i64 1, align 8
ADD:   br i1 %51, label %52, label %55
ADD:   %51 = icmp slt i64 %50, %10
ADD:   %50 = phi i64 [ %54, %52 ], [ 0, %39 ]
ADD:   br label %49
ADD:   %48 = insertvalue { ptr, ptr, i64, [1 x i64], [1 x i64] } %47, i64 1, 4, 0
ADD:   %47 = insertvalue { ptr, ptr, i64, [1 x i64], [1 x i64] } %46, i64 %10, 3, 0
ADD:   %46 = insertvalue { ptr, ptr, i64, [1 x i64], [1 x i64] } %45, i64 0, 2
ADD:   %45 = insertvalue { ptr, ptr, i64, [1 x i64], [1 x i64] } %44, ptr %43, 1
ADD:   %44 = insertvalue { ptr, ptr, i64, [1 x i64], [1 x i64] } undef, ptr %43, 0
ADD:   %43 = call ptr @malloc(i64 %42)
ADD:   %42 = ptrtoint ptr %41 to i64
ADD:   %41 = getelementptr i64, ptr null, i64 %10
ADD:   store { ptr, ptr, i64, [1 x i64], [1 x i64] } %32, ptr %40, align 8
ADD:   %40 = alloca { ptr, ptr, i64, [1 x i64], [1 x i64] }, i64 1, align 8
ADD:   br i1 %35, label %36, label %39
ADD:   %35 = icmp slt i64 %34, %8
ADD:   %34 = phi i64 [ %38, %36 ], [ 0, %0 ]
ADD:   br label %33
ADD:   %32 = insertvalue { ptr, ptr, i64, [1 x i64], [1 x i64] } %31, i64 1, 4, 0
ADD:   %31 = insertvalue { ptr, ptr, i64, [1 x i64], [1 x i64] } %30, i64 %8, 3, 0
ADD:   %30 = insertvalue { ptr, ptr, i64, [1 x i64], [1 x i64] } %29, i64 0, 2
ADD:   %29 = insertvalue { ptr, ptr, i64, [1 x i64], [1 x i64] } %28, ptr %27, 1
ADD:   %28 = insertvalue { ptr, ptr, i64, [1 x i64], [1 x i64] } undef, ptr %27, 0
ADD:   %27 = call ptr @malloc(i64 %26)
ADD:   %26 = ptrtoint ptr %25 to i64
ADD:   %25 = getelementptr i64, ptr null, i64 %8
ADD:   %24 = load i64, ptr %23, align 4
ADD:   %23 = getelementptr i64, ptr %1, i64 8
ADD:   %22 = load i64, ptr %21, align 4
ADD:   %21 = getelementptr i64, ptr %1, i64 7
ADD:   %20 = load i64, ptr %19, align 4
ADD:   %19 = getelementptr i64, ptr %1, i64 6
ADD:   %18 = load i64, ptr %17, align 4
ADD:   %17 = getelementptr i64, ptr %1, i64 5
ADD:   %16 = load i64, ptr %15, align 4
ADD:   %15 = getelementptr i64, ptr %1, i64 4
ADD:   %14 = load i64, ptr %13, align 4
ADD:   %13 = getelementptr i64, ptr %1, i64 3
ADD:   %12 = load i64, ptr %11, align 4
ADD:   %11 = getelementptr i64, ptr %1, i64 2
ADD:   %10 = load i64, ptr %9, align 4
ADD:   %9 = getelementptr i64, ptr %1, i64 1
ADD:   %8 = load i64, ptr %1, align 4
ADD:   call void @read_input_sizes_2D_f64(i32 1, i64 0, i64 3, i64 0, i64 -1, i64 1, ptr %7, i32 1)
ADD:   store i64 1, ptr %.fca.4.0.gep, align 8
ADD:   %.fca.4.0.gep = getelementptr inbounds { ptr, ptr, i64, [1 x i64], [1 x i64] }, ptr %7, i32 0, i32 4, i32 0
ADD:   store i64 7, ptr %.fca.3.0.gep, align 8
ADD:   %.fca.3.0.gep = getelementptr inbounds { ptr, ptr, i64, [1 x i64], [1 x i64] }, ptr %7, i32 0, i32 3, i32 0
ADD:   store i64 0, ptr %.fca.2.gep, align 8
ADD:   %.fca.2.gep = getelementptr inbounds { ptr, ptr, i64, [1 x i64], [1 x i64] }, ptr %7, i32 0, i32 2
ADD:   store ptr %1, ptr %.fca.1.gep, align 8
ADD:   %.fca.1.gep = getelementptr inbounds { ptr, ptr, i64, [1 x i64], [1 x i64] }, ptr %7, i32 0, i32 1
ADD:   store ptr %1, ptr %7, align 8
ADD:   %7 = alloca { ptr, ptr, i64, [1 x i64], [1 x i64] }, i64 1, align 8
IC: DCE:   %6 = insertvalue { ptr, ptr, i64, [1 x i64], [1 x i64] } %5, i64 1, 4, 0
IC: DCE:   %5 = insertvalue { ptr, ptr, i64, [1 x i64], [1 x i64] } %4, i64 7, 3, 0
IC: DCE:   %4 = insertvalue { ptr, ptr, i64, [1 x i64], [1 x i64] } %3, i64 0, 2
IC: DCE:   %3 = insertvalue { ptr, ptr, i64, [1 x i64], [1 x i64] } %2, ptr %1, 1
IC: DCE:   %2 = insertvalue { ptr, ptr, i64, [1 x i64], [1 x i64] } undef, ptr %1, 0
ADD:   %1 = call ptr @malloc(i64 56)
IC: Visiting:   %1 = call ptr @malloc(i64 56)
IC: Visiting:   %2 = alloca { ptr, ptr, i64, [1 x i64], [1 x i64] }, i64 1, align 8
IC: Mod =   %2 = alloca { ptr, ptr, i64, [1 x i64], [1 x i64] }, i64 1, align 8
    New =   %2 = alloca { ptr, ptr, i64, [1 x i64], [1 x i64] }, align 8
ADD:   %2 = alloca { ptr, ptr, i64, [1 x i64], [1 x i64] }, align 8
IC: Visiting:   %2 = alloca { ptr, ptr, i64, [1 x i64], [1 x i64] }, align 8
IC: Visiting:   store ptr %1, ptr %2, align 8
IC: Visiting:   %.fca.1.gep = getelementptr inbounds { ptr, ptr, i64, [1 x i64], [1 x i64] }, ptr %2, i32 0, i32 1
IC: Mod =   %.fca.1.gep = getelementptr inbounds { ptr, ptr, i64, [1 x i64], [1 x i64] }, ptr %2, i32 0, i32 1
    New =   %.fca.1.gep = getelementptr inbounds { ptr, ptr, i64, [1 x i64], [1 x i64] }, ptr %2, i64 0, i32 1
ADD:   %.fca.1.gep = getelementptr inbounds { ptr, ptr, i64, [1 x i64], [1 x i64] }, ptr %2, i64 0, i32 1
IC: Visiting:   %.fca.1.gep = getelementptr inbounds { ptr, ptr, i64, [1 x i64], [1 x i64] }, ptr %2, i64 0, i32 1
IC: Visiting:   store ptr %1, ptr %.fca.1.gep, align 8
IC: Visiting:   %.fca.2.gep = getelementptr inbounds { ptr, ptr, i64, [1 x i64], [1 x i64] }, ptr %2, i32 0, i32 2
IC: Mod =   %.fca.2.gep = getelementptr inbounds { ptr, ptr, i64, [1 x i64], [1 x i64] }, ptr %2, i32 0, i32 2
    New =   %.fca.2.gep = getelementptr inbounds { ptr, ptr, i64, [1 x i64], [1 x i64] }, ptr %2, i64 0, i32 2
ADD:   %.fca.2.gep = getelementptr inbounds { ptr, ptr, i64, [1 x i64], [1 x i64] }, ptr %2, i64 0, i32 2
IC: Visiting:   %.fca.2.gep = getelementptr inbounds { ptr, ptr, i64, [1 x i64], [1 x i64] }, ptr %2, i64 0, i32 2
IC: Visiting:   store i64 0, ptr %.fca.2.gep, align 8
IC: Visiting:   %.fca.3.0.gep = getelementptr inbounds { ptr, ptr, i64, [1 x i64], [1 x i64] }, ptr %2, i32 0, i32 3, i32 0
IC: Mod =   %.fca.3.0.gep = getelementptr inbounds { ptr, ptr, i64, [1 x i64], [1 x i64] }, ptr %2, i32 0, i32 3, i32 0
    New =   %.fca.3.0.gep = getelementptr inbounds { ptr, ptr, i64, [1 x i64], [1 x i64] }, ptr %2, i64 0, i32 3, i64 0
ADD:   %.fca.3.0.gep = getelementptr inbounds { ptr, ptr, i64, [1 x i64], [1 x i64] }, ptr %2, i64 0, i32 3, i64 0
IC: Visiting:   %.fca.3.0.gep = getelementptr inbounds { ptr, ptr, i64, [1 x i64], [1 x i64] }, ptr %2, i64 0, i32 3, i64 0
IC: Visiting:   store i64 7, ptr %.fca.3.0.gep, align 8
IC: Visiting:   %.fca.4.0.gep = getelementptr inbounds { ptr, ptr, i64, [1 x i64], [1 x i64] }, ptr %2, i32 0, i32 4, i32 0
IC: Mod =   %.fca.4.0.gep = getelementptr inbounds { ptr, ptr, i64, [1 x i64], [1 x i64] }, ptr %2, i32 0, i32 4, i32 0
    New =   %.fca.4.0.gep = getelementptr inbounds { ptr, ptr, i64, [1 x i64], [1 x i64] }, ptr %2, i64 0, i32 4, i64 0
ADD:   %.fca.4.0.gep = getelementptr inbounds { ptr, ptr, i64, [1 x i64], [1 x i64] }, ptr %2, i64 0, i32 4, i64 0
IC: Visiting:   %.fca.4.0.gep = getelementptr inbounds { ptr, ptr, i64, [1 x i64], [1 x i64] }, ptr %2, i64 0, i32 4, i64 0
IC: Visiting:   store i64 1, ptr %.fca.4.0.gep, align 8
IC: Visiting:   call void @read_input_sizes_2D_f64(i32 1, i64 0, i64 3, i64 0, i64 -1, i64 1, ptr %2, i32 1)
IC: Mod =   call void @read_input_sizes_2D_f64(i32 1, i64 0, i64 3, i64 0, i64 -1, i64 1, ptr %2, i32 1)
    New =   call void @read_input_sizes_2D_f64(i32 1, i64 0, i64 3, i64 0, i64 -1, i64 1, ptr nonnull %2, i32 1)
ADD:   call void @read_input_sizes_2D_f64(i32 1, i64 0, i64 3, i64 0, i64 -1, i64 1, ptr nonnull %2, i32 1)
IC: Visiting:   call void @read_input_sizes_2D_f64(i32 1, i64 0, i64 3, i64 0, i64 -1, i64 1, ptr nonnull %2, i32 1)
IC: Visiting:   %3 = load i64, ptr %1, align 4
IC: Visiting:   %4 = getelementptr i64, ptr %1, i64 1
IC: Visiting:   %5 = load i64, ptr %4, align 4
IC: Visiting:   %6 = getelementptr i64, ptr %1, i64 2
IC: Visiting:   %7 = load i64, ptr %6, align 4
IC: Visiting:   %8 = getelementptr i64, ptr %1, i64 3
IC: Visiting:   %9 = load i64, ptr %8, align 4
IC: Visiting:   %10 = getelementptr i64, ptr %1, i64 4
IC: Visiting:   %11 = load i64, ptr %10, align 4
IC: Visiting:   %12 = getelementptr i64, ptr %1, i64 5
IC: Visiting:   %13 = load i64, ptr %12, align 4
IC: Visiting:   %14 = getelementptr i64, ptr %1, i64 6
IC: Visiting:   %15 = load i64, ptr %14, align 4
IC: Visiting:   %16 = getelementptr i64, ptr %1, i64 7
IC: Visiting:   %17 = load i64, ptr %16, align 4
IC: Visiting:   %18 = getelementptr i64, ptr %1, i64 8
IC: Visiting:   %19 = load i64, ptr %18, align 4
IC: Visiting:   %20 = getelementptr i64, ptr null, i64 %3
IC: Visiting:   %21 = ptrtoint ptr %20 to i64
ADD DEFERRED:   %.idx = mul i64 %3, 8
IC: Replacing   %21 = ptrtoint ptr %20 to i64
    with   %.idx = mul i64 %3, 8
IC: Mod =   %21 = ptrtoint ptr %20 to i64
    New =   %21 = ptrtoint ptr %20 to i64
IC: ERASE   %21 = ptrtoint ptr %20 to i64
ADD DEFERRED:   %20 = getelementptr i64, ptr null, i64 %3
IC: ERASE   %20 = getelementptr i64, ptr null, i64 %3
ADD DEFERRED:   %3 = load i64, ptr %1, align 4
ADD:   %3 = load i64, ptr %1, align 4
ADD:   %.idx = mul i64 %3, 8
IC: Visiting:   %.idx = mul i64 %3, 8
IC: Old =   %.idx = mul i64 %3, 8
    New =   <badref> = shl i64 %3, 3
ADD:   %.idx = shl i64 %3, 3
IC: ERASE   %20 = mul i64 %3, 8
ADD DEFERRED:   %3 = load i64, ptr %1, align 4
IC: Visiting:   %.idx = shl i64 %3, 3
IC: Visiting:   %3 = load i64, ptr %1, align 4
IC: Visiting:   %20 = call ptr @malloc(i64 %.idx)
IC: Visiting:   %21 = insertvalue { ptr, ptr, i64, [1 x i64], [1 x i64] } undef, ptr %20, 0
IC: Visiting:   %22 = insertvalue { ptr, ptr, i64, [1 x i64], [1 x i64] } %21, ptr %20, 1
IC: Visiting:   %23 = insertvalue { ptr, ptr, i64, [1 x i64], [1 x i64] } %22, i64 0, 2
IC: Visiting:   %24 = insertvalue { ptr, ptr, i64, [1 x i64], [1 x i64] } %23, i64 %3, 3, 0
IC: Visiting:   %25 = insertvalue { ptr, ptr, i64, [1 x i64], [1 x i64] } %24, i64 1, 4, 0
IC: Visiting:   br label %26
IC: Visiting:   %27 = phi i64 [ %31, %29 ], [ 0, %0 ]
IC: Visiting:   %28 = icmp slt i64 %27, %3
IC: Visiting:   br i1 %28, label %29, label %32
IC: Visiting:   %33 = alloca { ptr, ptr, i64, [1 x i64], [1 x i64] }, i64 1, align 8
IC: Mod =   %33 = alloca { ptr, ptr, i64, [1 x i64], [1 x i64] }, i64 1, align 8
    New =   %33 = alloca { ptr, ptr, i64, [1 x i64], [1 x i64] }, align 8
ADD:   %33 = alloca { ptr, ptr, i64, [1 x i64], [1 x i64] }, align 8
IC: Visiting:   %33 = alloca { ptr, ptr, i64, [1 x i64], [1 x i64] }, align 8
IC: Visiting:   store { ptr, ptr, i64, [1 x i64], [1 x i64] } %25, ptr %33, align 8
ADD DEFERRED:   %.repack = getelementptr inbounds { ptr, ptr, i64, [1 x i64], [1 x i64] }, ptr %33, i32 0, i32 0
ADD DEFERRED:   %.elt = extractvalue { ptr, ptr, i64, [1 x i64], [1 x i64] } %25, 0
ADD DEFERRED:   store ptr %.elt, ptr %.repack, align 8
ADD DEFERRED:   %.repack9 = getelementptr inbounds { ptr, ptr, i64, [1 x i64], [1 x i64] }, ptr %33, i32 0, i32 1
ADD DEFERRED:   %.elt10 = extractvalue { ptr, ptr, i64, [1 x i64], [1 x i64] } %25, 1
ADD DEFERRED:   store ptr %.elt10, ptr %.repack9, align 8
ADD DEFERRED:   %.repack11 = getelementptr inbounds { ptr, ptr, i64, [1 x i64], [1 x i64] }, ptr %33, i32 0, i32 2
ADD DEFERRED:   %.elt12 = extractvalue { ptr, ptr, i64, [1 x i64], [1 x i64] } %25, 2
ADD DEFERRED:   store i64 %.elt12, ptr %.repack11, align 8
ADD DEFERRED:   %.repack13 = getelementptr inbounds { ptr, ptr, i64, [1 x i64], [1 x i64] }, ptr %33, i32 0, i32 3
ADD DEFERRED:   %.elt14 = extractvalue { ptr, ptr, i64, [1 x i64], [1 x i64] } %25, 3
ADD DEFERRED:   store [1 x i64] %.elt14, ptr %.repack13, align 8
ADD DEFERRED:   %.repack15 = getelementptr inbounds { ptr, ptr, i64, [1 x i64], [1 x i64] }, ptr %33, i32 0, i32 4
ADD DEFERRED:   %.elt16 = extractvalue { ptr, ptr, i64, [1 x i64], [1 x i64] } %25, 4
ADD DEFERRED:   store [1 x i64] %.elt16, ptr %.repack15, align 8
IC: ERASE   store { ptr, ptr, i64, [1 x i64], [1 x i64] } %25, ptr %33, align 8
ADD DEFERRED:   %25 = insertvalue { ptr, ptr, i64, [1 x i64], [1 x i64] } %24, i64 1, 4, 0
ADD DEFERRED:   %33 = alloca { ptr, ptr, i64, [1 x i64], [1 x i64] }, align 8
ADD:   %33 = alloca { ptr, ptr, i64, [1 x i64], [1 x i64] }, align 8
ADD:   %25 = insertvalue { ptr, ptr, i64, [1 x i64], [1 x i64] } %24, i64 1, 4, 0
ADD:   store [1 x i64] %.elt16, ptr %.repack15, align 8
ADD:   %.elt16 = extractvalue { ptr, ptr, i64, [1 x i64], [1 x i64] } %25, 4
ADD:   %.repack15 = getelementptr inbounds { ptr, ptr, i64, [1 x i64], [1 x i64] }, ptr %33, i32 0, i32 4
ADD:   store [1 x i64] %.elt14, ptr %.repack13, align 8
ADD:   %.elt14 = extractvalue { ptr, ptr, i64, [1 x i64], [1 x i64] } %25, 3
ADD:   %.repack13 = getelementptr inbounds { ptr, ptr, i64, [1 x i64], [1 x i64] }, ptr %33, i32 0, i32 3
ADD:   store i64 %.elt12, ptr %.repack11, align 8
ADD:   %.elt12 = extractvalue { ptr, ptr, i64, [1 x i64], [1 x i64] } %25, 2
ADD:   %.repack11 = getelementptr inbounds { ptr, ptr, i64, [1 x i64], [1 x i64] }, ptr %33, i32 0, i32 2
ADD:   store ptr %.elt10, ptr %.repack9, align 8
ADD:   %.elt10 = extractvalue { ptr, ptr, i64, [1 x i64], [1 x i64] } %25, 1
ADD:   %.repack9 = getelementptr inbounds { ptr, ptr, i64, [1 x i64], [1 x i64] }, ptr %33, i32 0, i32 1
ADD:   store ptr %.elt, ptr %.repack, align 8
ADD:   %.elt = extractvalue { ptr, ptr, i64, [1 x i64], [1 x i64] } %25, 0
ADD:   %.repack = getelementptr inbounds { ptr, ptr, i64, [1 x i64], [1 x i64] }, ptr %33, i32 0, i32 0
IC: Visiting:   %.repack = getelementptr inbounds { ptr, ptr, i64, [1 x i64], [1 x i64] }, ptr %33, i32 0, i32 0
IC: Replacing   %.repack = getelementptr inbounds { ptr, ptr, i64, [1 x i64], [1 x i64] }, ptr %33, i32 0, i32 0
    with   %33 = alloca { ptr, ptr, i64, [1 x i64], [1 x i64] }, align 8
IC: Mod =   %.repack = getelementptr inbounds { ptr, ptr, i64, [1 x i64], [1 x i64] }, ptr %33, i32 0, i32 0
    New =   %.repack = getelementptr inbounds { ptr, ptr, i64, [1 x i64], [1 x i64] }, ptr %33, i32 0, i32 0
IC: ERASE   %.repack = getelementptr inbounds { ptr, ptr, i64, [1 x i64], [1 x i64] }, ptr %33, i32 0, i32 0
ADD DEFERRED:   %33 = alloca { ptr, ptr, i64, [1 x i64], [1 x i64] }, align 8
IC: Visiting:   %.elt = extractvalue { ptr, ptr, i64, [1 x i64], [1 x i64] } %25, 0
IC: Replacing   %.elt = extractvalue { ptr, ptr, i64, [1 x i64], [1 x i64] } %25, 0
    with   %20 = call ptr @malloc(i64 %.idx)
IC: Mod =   %.elt = extractvalue { ptr, ptr, i64, [1 x i64], [1 x i64] } %25, 0
    New =   %.elt = extractvalue { ptr, ptr, i64, [1 x i64], [1 x i64] } %25, 0
IC: ERASE   %.elt = extractvalue { ptr, ptr, i64, [1 x i64], [1 x i64] } %25, 0
ADD DEFERRED:   %25 = insertvalue { ptr, ptr, i64, [1 x i64], [1 x i64] } %24, i64 1, 4, 0
IC: Visiting:   store ptr %20, ptr %33, align 8
IC: Visiting:   %.repack9 = getelementptr inbounds { ptr, ptr, i64, [1 x i64], [1 x i64] }, ptr %33, i32 0, i32 1
IC: Mod =   %.repack9 = getelementptr inbounds { ptr, ptr, i64, [1 x i64], [1 x i64] }, ptr %33, i32 0, i32 1
    New =   %.repack9 = getelementptr inbounds { ptr, ptr, i64, [1 x i64], [1 x i64] }, ptr %33, i64 0, i32 1
ADD:   %.repack9 = getelementptr inbounds { ptr, ptr, i64, [1 x i64], [1 x i64] }, ptr %33, i64 0, i32 1
IC: Visiting:   %.repack9 = getelementptr inbounds { ptr, ptr, i64, [1 x i64], [1 x i64] }, ptr %33, i64 0, i32 1
IC: Visiting:   %.elt10 = extractvalue { ptr, ptr, i64, [1 x i64], [1 x i64] } %25, 1
IC: Replacing   %.elt10 = extractvalue { ptr, ptr, i64, [1 x i64], [1 x i64] } %25, 1
    with   %20 = call ptr @malloc(i64 %.idx)
IC: Mod =   %.elt10 = extractvalue { ptr, ptr, i64, [1 x i64], [1 x i64] } %25, 1
    New =   %.elt10 = extractvalue { ptr, ptr, i64, [1 x i64], [1 x i64] } %25, 1
IC: ERASE   %.elt10 = extractvalue { ptr, ptr, i64, [1 x i64], [1 x i64] } %25, 1
ADD DEFERRED:   %25 = insertvalue { ptr, ptr, i64, [1 x i64], [1 x i64] } %24, i64 1, 4, 0
IC: Visiting:   store ptr %20, ptr %.repack9, align 8
IC: Visiting:   %.repack11 = getelementptr inbounds { ptr, ptr, i64, [1 x i64], [1 x i64] }, ptr %33, i32 0, i32 2
IC: Mod =   %.repack11 = getelementptr inbounds { ptr, ptr, i64, [1 x i64], [1 x i64] }, ptr %33, i32 0, i32 2
    New =   %.repack11 = getelementptr inbounds { ptr, ptr, i64, [1 x i64], [1 x i64] }, ptr %33, i64 0, i32 2
ADD:   %.repack11 = getelementptr inbounds { ptr, ptr, i64, [1 x i64], [1 x i64] }, ptr %33, i64 0, i32 2
IC: Visiting:   %.repack11 = getelementptr inbounds { ptr, ptr, i64, [1 x i64], [1 x i64] }, ptr %33, i64 0, i32 2
IC: Visiting:   %.elt12 = extractvalue { ptr, ptr, i64, [1 x i64], [1 x i64] } %25, 2
IC: Replacing   %.elt12 = extractvalue { ptr, ptr, i64, [1 x i64], [1 x i64] } %25, 2
    with i64 0
IC: Mod =   %.elt12 = extractvalue { ptr, ptr, i64, [1 x i64], [1 x i64] } %25, 2
    New =   %.elt12 = extractvalue { ptr, ptr, i64, [1 x i64], [1 x i64] } %25, 2
IC: ERASE   %.elt12 = extractvalue { ptr, ptr, i64, [1 x i64], [1 x i64] } %25, 2
ADD DEFERRED:   %25 = insertvalue { ptr, ptr, i64, [1 x i64], [1 x i64] } %24, i64 1, 4, 0
IC: Visiting:   store i64 0, ptr %.repack11, align 8
IC: Visiting:   %.repack13 = getelementptr inbounds { ptr, ptr, i64, [1 x i64], [1 x i64] }, ptr %33, i32 0, i32 3
IC: Mod =   %.repack13 = getelementptr inbounds { ptr, ptr, i64, [1 x i64], [1 x i64] }, ptr %33, i32 0, i32 3
    New =   %.repack13 = getelementptr inbounds { ptr, ptr, i64, [1 x i64], [1 x i64] }, ptr %33, i64 0, i32 3
ADD:   %.repack13 = getelementptr inbounds { ptr, ptr, i64, [1 x i64], [1 x i64] }, ptr %33, i64 0, i32 3
IC: Visiting:   %.repack13 = getelementptr inbounds { ptr, ptr, i64, [1 x i64], [1 x i64] }, ptr %33, i64 0, i32 3
IC: Visiting:   %.elt14 = extractvalue { ptr, ptr, i64, [1 x i64], [1 x i64] } %25, 3
IC: Old =   %.elt14 = extractvalue { ptr, ptr, i64, [1 x i64], [1 x i64] } %25, 3
    New =   <badref> = extractvalue { ptr, ptr, i64, [1 x i64], [1 x i64] } %24, 3
ADD:   %.elt14 = extractvalue { ptr, ptr, i64, [1 x i64], [1 x i64] } %24, 3
IC: ERASE   %34 = extractvalue { ptr, ptr, i64, [1 x i64], [1 x i64] } %25, 3
ADD DEFERRED:   %25 = insertvalue { ptr, ptr, i64, [1 x i64], [1 x i64] } %24, i64 1, 4, 0
IC: Visiting:   %.elt14 = extractvalue { ptr, ptr, i64, [1 x i64], [1 x i64] } %24, 3
ADD DEFERRED:   %34 = extractvalue { ptr, ptr, i64, [1 x i64], [1 x i64] } %23, 3
IC: Old =   %.elt14 = extractvalue { ptr, ptr, i64, [1 x i64], [1 x i64] } %24, 3
    New =   <badref> = insertvalue [1 x i64] %34, i64 %3, 0
ADD:   %.elt14 = insertvalue [1 x i64] %34, i64 %3, 0
IC: ERASE   %35 = extractvalue { ptr, ptr, i64, [1 x i64], [1 x i64] } %24, 3
ADD DEFERRED:   %24 = insertvalue { ptr, ptr, i64, [1 x i64], [1 x i64] } %23, i64 %3, 3, 0
ADD:   %24 = insertvalue { ptr, ptr, i64, [1 x i64], [1 x i64] } %23, i64 %3, 3, 0
ADD:   %34 = extractvalue { ptr, ptr, i64, [1 x i64], [1 x i64] } %23, 3
IC: Visiting:   %34 = extractvalue { ptr, ptr, i64, [1 x i64], [1 x i64] } %23, 3
IC: Old =   %34 = extractvalue { ptr, ptr, i64, [1 x i64], [1 x i64] } %23, 3
    New =   <badref> = extractvalue { ptr, ptr, i64, [1 x i64], [1 x i64] } %22, 3
ADD:   %34 = extractvalue { ptr, ptr, i64, [1 x i64], [1 x i64] } %22, 3
IC: ERASE   %35 = extractvalue { ptr, ptr, i64, [1 x i64], [1 x i64] } %23, 3
ADD DEFERRED:   %23 = insertvalue { ptr, ptr, i64, [1 x i64], [1 x i64] } %22, i64 0, 2
ADD:   %23 = insertvalue { ptr, ptr, i64, [1 x i64], [1 x i64] } %22, i64 0, 2
IC: Visiting:   %23 = insertvalue { ptr, ptr, i64, [1 x i64], [1 x i64] } %22, i64 0, 2
IC: Visiting:   %34 = extractvalue { ptr, ptr, i64, [1 x i64], [1 x i64] } %22, 3
IC: Old =   %34 = extractvalue { ptr, ptr, i64, [1 x i64], [1 x i64] } %22, 3
    New =   <badref> = extractvalue { ptr, ptr, i64, [1 x i64], [1 x i64] } %21, 3
ADD:   %34 = extractvalue { ptr, ptr, i64, [1 x i64], [1 x i64] } %21, 3
IC: ERASE   %35 = extractvalue { ptr, ptr, i64, [1 x i64], [1 x i64] } %22, 3
ADD DEFERRED:   %22 = insertvalue { ptr, ptr, i64, [1 x i64], [1 x i64] } %21, ptr %20, 1
ADD:   %22 = insertvalue { ptr, ptr, i64, [1 x i64], [1 x i64] } %21, ptr %20, 1
IC: Visiting:   %22 = insertvalue { ptr, ptr, i64, [1 x i64], [1 x i64] } %21, ptr %20, 1
IC: Visiting:   %34 = extractvalue { ptr, ptr, i64, [1 x i64], [1 x i64] } %21, 3
IC: Old =   %34 = extractvalue { ptr, ptr, i64, [1 x i64], [1 x i64] } %21, 3
    New =   <badref> = extractvalue { ptr, ptr, i64, [1 x i64], [1 x i64] } undef, 3
ADD:   %34 = extractvalue { ptr, ptr, i64, [1 x i64], [1 x i64] } undef, 3
IC: ERASE   %35 = extractvalue { ptr, ptr, i64, [1 x i64], [1 x i64] } %21, 3
ADD DEFERRED:   %21 = insertvalue { ptr, ptr, i64, [1 x i64], [1 x i64] } undef, ptr %20, 0
ADD:   %21 = insertvalue { ptr, ptr, i64, [1 x i64], [1 x i64] } undef, ptr %20, 0
IC: Visiting:   %21 = insertvalue { ptr, ptr, i64, [1 x i64], [1 x i64] } undef, ptr %20, 0
IC: ConstFold to: [1 x i64] undef from:   %34 = extractvalue { ptr, ptr, i64, [1 x i64], [1 x i64] } undef, 3
IC: Replacing   %34 = extractvalue { ptr, ptr, i64, [1 x i64], [1 x i64] } undef, 3
    with [1 x i64] undef
IC: ERASE   %34 = extractvalue { ptr, ptr, i64, [1 x i64], [1 x i64] } undef, 3
IC: Visiting:   %24 = insertvalue { ptr, ptr, i64, [1 x i64], [1 x i64] } %23, i64 %3, 3, 0
IC: Visiting:   %.elt14 = insertvalue [1 x i64] undef, i64 %3, 0
IC: Visiting:   store [1 x i64] %.elt14, ptr %.repack13, align 8
ADD DEFERRED:   %34 = extractvalue [1 x i64] %.elt14, 0
ADD DEFERRED:   store i64 %34, ptr %.repack13, align 8
IC: ERASE   store [1 x i64] %.elt14, ptr %.repack13, align 8
ADD DEFERRED:   %.elt14 = insertvalue [1 x i64] undef, i64 %3, 0
ADD DEFERRED:   %.repack13 = getelementptr inbounds { ptr, ptr, i64, [1 x i64], [1 x i64] }, ptr %33, i64 0, i32 3
ADD:   %.repack13 = getelementptr inbounds { ptr, ptr, i64, [1 x i64], [1 x i64] }, ptr %33, i64 0, i32 3
ADD:   %.elt14 = insertvalue [1 x i64] undef, i64 %3, 0
ADD:   store i64 %34, ptr %.repack13, align 8
ADD:   %34 = extractvalue [1 x i64] %.elt14, 0
IC: Visiting:   %34 = extractvalue [1 x i64] %.elt14, 0
IC: Replacing   %34 = extractvalue [1 x i64] %.elt14, 0
    with   %3 = load i64, ptr %1, align 4
IC: Mod =   %34 = extractvalue [1 x i64] %.elt14, 0
    New =   %34 = extractvalue [1 x i64] %.elt14, 0
IC: ERASE   %34 = extractvalue [1 x i64] %.elt14, 0
ADD DEFERRED:   %.elt14 = insertvalue [1 x i64] undef, i64 %3, 0
IC: ERASE   %.elt14 = insertvalue [1 x i64] undef, i64 %3, 0
ADD DEFERRED:   %3 = load i64, ptr %1, align 4
ADD:   %3 = load i64, ptr %1, align 4
IC: Visiting:   %3 = load i64, ptr %1, align 4
IC: Visiting:   store i64 %3, ptr %.repack13, align 8
IC: Visiting:   %.repack13 = getelementptr inbounds { ptr, ptr, i64, [1 x i64], [1 x i64] }, ptr %33, i64 0, i32 3
IC: Visiting:   %.repack15 = getelementptr inbounds { ptr, ptr, i64, [1 x i64], [1 x i64] }, ptr %33, i32 0, i32 4
IC: Mod =   %.repack15 = getelementptr inbounds { ptr, ptr, i64, [1 x i64], [1 x i64] }, ptr %33, i32 0, i32 4
    New =   %.repack15 = getelementptr inbounds { ptr, ptr, i64, [1 x i64], [1 x i64] }, ptr %33, i64 0, i32 4
ADD:   %.repack15 = getelementptr inbounds { ptr, ptr, i64, [1 x i64], [1 x i64] }, ptr %33, i64 0, i32 4
IC: Visiting:   %.repack15 = getelementptr inbounds { ptr, ptr, i64, [1 x i64], [1 x i64] }, ptr %33, i64 0, i32 4
IC: Visiting:   %.elt16 = extractvalue { ptr, ptr, i64, [1 x i64], [1 x i64] } %25, 4
ADD DEFERRED:   %34 = extractvalue { ptr, ptr, i64, [1 x i64], [1 x i64] } %24, 4
IC: Old =   %.elt16 = extractvalue { ptr, ptr, i64, [1 x i64], [1 x i64] } %25, 4
    New =   <badref> = insertvalue [1 x i64] %34, i64 1, 0
ADD:   %.elt16 = insertvalue [1 x i64] %34, i64 1, 0
IC: ERASE   %35 = extractvalue { ptr, ptr, i64, [1 x i64], [1 x i64] } %25, 4
ADD DEFERRED:   %25 = insertvalue { ptr, ptr, i64, [1 x i64], [1 x i64] } %24, i64 1, 4, 0
IC: ERASE   %25 = insertvalue { ptr, ptr, i64, [1 x i64], [1 x i64] } %24, i64 1, 4, 0
ADD DEFERRED:   %24 = insertvalue { ptr, ptr, i64, [1 x i64], [1 x i64] } %23, i64 %3, 3, 0
ADD:   %24 = insertvalue { ptr, ptr, i64, [1 x i64], [1 x i64] } %23, i64 %3, 3, 0
ADD:   %33 = extractvalue { ptr, ptr, i64, [1 x i64], [1 x i64] } %24, 4
IC: Visiting:   %33 = extractvalue { ptr, ptr, i64, [1 x i64], [1 x i64] } %24, 4
IC: Old =   %33 = extractvalue { ptr, ptr, i64, [1 x i64], [1 x i64] } %24, 4
    New =   <badref> = extractvalue { ptr, ptr, i64, [1 x i64], [1 x i64] } %23, 4
ADD:   %33 = extractvalue { ptr, ptr, i64, [1 x i64], [1 x i64] } %23, 4
IC: ERASE   %34 = extractvalue { ptr, ptr, i64, [1 x i64], [1 x i64] } %24, 4
ADD DEFERRED:   %24 = insertvalue { ptr, ptr, i64, [1 x i64], [1 x i64] } %23, i64 %3, 3, 0
IC: ERASE   %24 = insertvalue { ptr, ptr, i64, [1 x i64], [1 x i64] } %23, i64 %3, 3, 0
ADD DEFERRED:   %23 = insertvalue { ptr, ptr, i64, [1 x i64], [1 x i64] } %22, i64 0, 2
ADD DEFERRED:   %3 = load i64, ptr %1, align 4
ADD:   %3 = load i64, ptr %1, align 4
ADD:   %23 = insertvalue { ptr, ptr, i64, [1 x i64], [1 x i64] } %22, i64 0, 2
IC: Visiting:   %23 = insertvalue { ptr, ptr, i64, [1 x i64], [1 x i64] } %22, i64 0, 2
IC: Visiting:   %3 = load i64, ptr %1, align 4
IC: Visiting:   %32 = extractvalue { ptr, ptr, i64, [1 x i64], [1 x i64] } %23, 4
IC: Old =   %32 = extractvalue { ptr, ptr, i64, [1 x i64], [1 x i64] } %23, 4
    New =   <badref> = extractvalue { ptr, ptr, i64, [1 x i64], [1 x i64] } %22, 4
ADD:   %32 = extractvalue { ptr, ptr, i64, [1 x i64], [1 x i64] } %22, 4
IC: ERASE   %33 = extractvalue { ptr, ptr, i64, [1 x i64], [1 x i64] } %23, 4
ADD DEFERRED:   %23 = insertvalue { ptr, ptr, i64, [1 x i64], [1 x i64] } %22, i64 0, 2
IC: ERASE   %23 = insertvalue { ptr, ptr, i64, [1 x i64], [1 x i64] } %22, i64 0, 2
ADD DEFERRED:   %22 = insertvalue { ptr, ptr, i64, [1 x i64], [1 x i64] } %21, ptr %20, 1
ADD:   %22 = insertvalue { ptr, ptr, i64, [1 x i64], [1 x i64] } %21, ptr %20, 1
IC: Visiting:   %22 = insertvalue { ptr, ptr, i64, [1 x i64], [1 x i64] } %21, ptr %20, 1
IC: Visiting:   %31 = extractvalue { ptr, ptr, i64, [1 x i64], [1 x i64] } %22, 4
IC: Old =   %31 = extractvalue { ptr, ptr, i64, [1 x i64], [1 x i64] } %22, 4
    New =   <badref> = extractvalue { ptr, ptr, i64, [1 x i64], [1 x i64] } %21, 4
ADD:   %31 = extractvalue { ptr, ptr, i64, [1 x i64], [1 x i64] } %21, 4
IC: ERASE   %32 = extractvalue { ptr, ptr, i64, [1 x i64], [1 x i64] } %22, 4
ADD DEFERRED:   %22 = insertvalue { ptr, ptr, i64, [1 x i64], [1 x i64] } %21, ptr %20, 1
IC: ERASE   %22 = insertvalue { ptr, ptr, i64, [1 x i64], [1 x i64] } %21, ptr %20, 1
ADD DEFERRED:   %21 = insertvalue { ptr, ptr, i64, [1 x i64], [1 x i64] } undef, ptr %20, 0
ADD DEFERRED:   %20 = call ptr @malloc(i64 %.idx)
ADD:   %20 = call ptr @malloc(i64 %.idx)
ADD:   %21 = insertvalue { ptr, ptr, i64, [1 x i64], [1 x i64] } undef, ptr %20, 0
IC: Visiting:   %21 = insertvalue { ptr, ptr, i64, [1 x i64], [1 x i64] } undef, ptr %20, 0
IC: Visiting:   %20 = call ptr @malloc(i64 %.idx)
IC: Visiting:   %30 = extractvalue { ptr, ptr, i64, [1 x i64], [1 x i64] } %21, 4
IC: Old =   %30 = extractvalue { ptr, ptr, i64, [1 x i64], [1 x i64] } %21, 4
    New =   <badref> = extractvalue { ptr, ptr, i64, [1 x i64], [1 x i64] } undef, 4
ADD:   %30 = extractvalue { ptr, ptr, i64, [1 x i64], [1 x i64] } undef, 4
IC: ERASE   %31 = extractvalue { ptr, ptr, i64, [1 x i64], [1 x i64] } %21, 4
ADD DEFERRED:   %21 = insertvalue { ptr, ptr, i64, [1 x i64], [1 x i64] } undef, ptr %20, 0
IC: ERASE   %21 = insertvalue { ptr, ptr, i64, [1 x i64], [1 x i64] } undef, ptr %20, 0
ADD DEFERRED:   %20 = call ptr @malloc(i64 %.idx)
ADD:   %20 = call ptr @malloc(i64 %.idx)
IC: Visiting:   %20 = call ptr @malloc(i64 %.idx)
IC: ConstFold to: [1 x i64] undef from:   %29 = extractvalue { ptr, ptr, i64, [1 x i64], [1 x i64] } undef, 4
IC: Replacing   %29 = extractvalue { ptr, ptr, i64, [1 x i64], [1 x i64] } undef, 4
    with [1 x i64] undef
IC: ERASE   %29 = extractvalue { ptr, ptr, i64, [1 x i64], [1 x i64] } undef, 4
IC: ConstFold to: [1 x i64] [i64 1] from:   %.elt16 = insertvalue [1 x i64] undef, i64 1, 0
IC: Replacing   %.elt16 = insertvalue [1 x i64] undef, i64 1, 0
    with [1 x i64] [i64 1]
IC: ERASE   %.elt16 = insertvalue [1 x i64] undef, i64 1, 0
IC: Visiting:   store [1 x i64] [i64 1], ptr %.repack15, align 8
ADD DEFERRED:   store i64 1, ptr %.repack15, align 8
IC: ERASE   store [1 x i64] [i64 1], ptr %.repack15, align 8
ADD DEFERRED:   %.repack15 = getelementptr inbounds { ptr, ptr, i64, [1 x i64], [1 x i64] }, ptr %28, i64 0, i32 4
ADD:   %.repack15 = getelementptr inbounds { ptr, ptr, i64, [1 x i64], [1 x i64] }, ptr %28, i64 0, i32 4
ADD:   store i64 1, ptr %.repack15, align 8
IC: Visiting:   store i64 1, ptr %.repack15, align 8
IC: Visiting:   %.repack15 = getelementptr inbounds { ptr, ptr, i64, [1 x i64], [1 x i64] }, ptr %28, i64 0, i32 4
IC: Visiting:   %28 = alloca { ptr, ptr, i64, [1 x i64], [1 x i64] }, align 8
IC: Visiting:   %29 = getelementptr i64, ptr null, i64 %5
IC: Visiting:   %30 = ptrtoint ptr %29 to i64
ADD DEFERRED:   %.idx17 = mul i64 %5, 8
IC: Replacing   %30 = ptrtoint ptr %29 to i64
    with   %.idx17 = mul i64 %5, 8
IC: Mod =   %30 = ptrtoint ptr %29 to i64
    New =   %30 = ptrtoint ptr %29 to i64
IC: ERASE   %30 = ptrtoint ptr %29 to i64
ADD DEFERRED:   %29 = getelementptr i64, ptr null, i64 %5
IC: ERASE   %29 = getelementptr i64, ptr null, i64 %5
ADD DEFERRED:   %5 = load i64, ptr %4, align 4
ADD:   %5 = load i64, ptr %4, align 4
ADD:   %.idx17 = mul i64 %5, 8
IC: Visiting:   %.idx17 = mul i64 %5, 8
IC: Old =   %.idx17 = mul i64 %5, 8
    New =   <badref> = shl i64 %5, 3
ADD:   %.idx17 = shl i64 %5, 3
IC: ERASE   %29 = mul i64 %5, 8
ADD DEFERRED:   %5 = load i64, ptr %4, align 4
IC: Visiting:   %.idx17 = shl i64 %5, 3
IC: Visiting:   %5 = load i64, ptr %4, align 4
IC: Visiting:   %29 = call ptr @malloc(i64 %.idx17)
IC: Visiting:   %30 = insertvalue { ptr, ptr, i64, [1 x i64], [1 x i64] } undef, ptr %29, 0
IC: Visiting:   %31 = insertvalue { ptr, ptr, i64, [1 x i64], [1 x i64] } %30, ptr %29, 1
IC: Visiting:   %32 = insertvalue { ptr, ptr, i64, [1 x i64], [1 x i64] } %31, i64 0, 2
IC: Visiting:   %33 = insertvalue { ptr, ptr, i64, [1 x i64], [1 x i64] } %32, i64 %5, 3, 0
IC: Visiting:   %34 = insertvalue { ptr, ptr, i64, [1 x i64], [1 x i64] } %33, i64 1, 4, 0
IC: Visiting:   br label %35
IC: Visiting:   %36 = phi i64 [ %40, %38 ], [ 0, %27 ]
IC: Visiting:   %37 = icmp slt i64 %36, %5
IC: Visiting:   br i1 %37, label %38, label %41
IC: Visiting:   %42 = alloca { ptr, ptr, i64, [1 x i64], [1 x i64] }, i64 1, align 8
IC: Mod =   %42 = alloca { ptr, ptr, i64, [1 x i64], [1 x i64] }, i64 1, align 8
    New =   %42 = alloca { ptr, ptr, i64, [1 x i64], [1 x i64] }, align 8
ADD:   %42 = alloca { ptr, ptr, i64, [1 x i64], [1 x i64] }, align 8
IC: Visiting:   %42 = alloca { ptr, ptr, i64, [1 x i64], [1 x i64] }, align 8
IC: Visiting:   store { ptr, ptr, i64, [1 x i64], [1 x i64] } %34, ptr %42, align 8
ADD DEFERRED:   %.repack = getelementptr inbounds { ptr, ptr, i64, [1 x i64], [1 x i64] }, ptr %42, i32 0, i32 0
ADD DEFERRED:   %.elt = extractvalue { ptr, ptr, i64, [1 x i64], [1 x i64] } %34, 0
ADD DEFERRED:   store ptr %.elt, ptr %.repack, align 8
ADD DEFERRED:   %.repack18 = getelementptr inbounds { ptr, ptr, i64, [1 x i64], [1 x i64] }, ptr %42, i32 0, i32 1
ADD DEFERRED:   %.elt19 = extractvalue { ptr, ptr, i64, [1 x i64], [1 x i64] } %34, 1
ADD DEFERRED:   store ptr %.elt19, ptr %.repack18, align 8
ADD DEFERRED:   %.repack20 = getelementptr inbounds { ptr, ptr, i64, [1 x i64], [1 x i64] }, ptr %42, i32 0, i32 2
ADD DEFERRED:   %.elt21 = extractvalue { ptr, ptr, i64, [1 x i64], [1 x i64] } %34, 2
ADD DEFERRED:   store i64 %.elt21, ptr %.repack20, align 8
ADD DEFERRED:   %.repack22 = getelementptr inbounds { ptr, ptr, i64, [1 x i64], [1 x i64] }, ptr %42, i32 0, i32 3
ADD DEFERRED:   %.elt23 = extractvalue { ptr, ptr, i64, [1 x i64], [1 x i64] } %34, 3
ADD DEFERRED:   store [1 x i64] %.elt23, ptr %.repack22, align 8
ADD DEFERRED:   %.repack24 = getelementptr inbounds { ptr, ptr, i64, [1 x i64], [1 x i64] }, ptr %42, i32 0, i32 4
ADD DEFERRED:   %.elt25 = extractvalue { ptr, ptr, i64, [1 x i64], [1 x i64] } %34, 4
ADD DEFERRED:   store [1 x i64] %.elt25, ptr %.repack24, align 8
IC: ERASE   store { ptr, ptr, i64, [1 x i64], [1 x i64] } %34, ptr %42, align 8
ADD DEFERRED:   %34 = insertvalue { ptr, ptr, i64, [1 x i64], [1 x i64] } %33, i64 1, 4, 0
ADD DEFERRED:   %42 = alloca { ptr, ptr, i64, [1 x i64], [1 x i64] }, align 8
ADD:   %42 = alloca { ptr, ptr, i64, [1 x i64], [1 x i64] }, align 8
ADD:   %34 = insertvalue { ptr, ptr, i64, [1 x i64], [1 x i64] } %33, i64 1, 4, 0
ADD:   store [1 x i64] %.elt25, ptr %.repack24, align 8
ADD:   %.elt25 = extractvalue { ptr, ptr, i64, [1 x i64], [1 x i64] } %34, 4
ADD:   %.repack24 = getelementptr inbounds { ptr, ptr, i64, [1 x i64], [1 x i64] }, ptr %42, i32 0, i32 4
ADD:   store [1 x i64] %.elt23, ptr %.repack22, align 8
ADD:   %.elt23 = extractvalue { ptr, ptr, i64, [1 x i64], [1 x i64] } %34, 3
ADD:   %.repack22 = getelementptr inbounds { ptr, ptr, i64, [1 x i64], [1 x i64] }, ptr %42, i32 0, i32 3
ADD:   store i64 %.elt21, ptr %.repack20, align 8
ADD:   %.elt21 = extractvalue { ptr, ptr, i64, [1 x i64], [1 x i64] } %34, 2
ADD:   %.repack20 = getelementptr inbounds { ptr, ptr, i64, [1 x i64], [1 x i64] }, ptr %42, i32 0, i32 2
ADD:   store ptr %.elt19, ptr %.repack18, align 8
ADD:   %.elt19 = extractvalue { ptr, ptr, i64, [1 x i64], [1 x i64] } %34, 1
ADD:   %.repack18 = getelementptr inbounds { ptr, ptr, i64, [1 x i64], [1 x i64] }, ptr %42, i32 0, i32 1
ADD:   store ptr %.elt, ptr %.repack, align 8
ADD:   %.elt = extractvalue { ptr, ptr, i64, [1 x i64], [1 x i64] } %34, 0
ADD:   %.repack = getelementptr inbounds { ptr, ptr, i64, [1 x i64], [1 x i64] }, ptr %42, i32 0, i32 0
IC: Visiting:   %.repack = getelementptr inbounds { ptr, ptr, i64, [1 x i64], [1 x i64] }, ptr %42, i32 0, i32 0
IC: Replacing   %.repack = getelementptr inbounds { ptr, ptr, i64, [1 x i64], [1 x i64] }, ptr %42, i32 0, i32 0
    with   %42 = alloca { ptr, ptr, i64, [1 x i64], [1 x i64] }, align 8
IC: Mod =   %.repack = getelementptr inbounds { ptr, ptr, i64, [1 x i64], [1 x i64] }, ptr %42, i32 0, i32 0
    New =   %.repack = getelementptr inbounds { ptr, ptr, i64, [1 x i64], [1 x i64] }, ptr %42, i32 0, i32 0
IC: ERASE   %.repack = getelementptr inbounds { ptr, ptr, i64, [1 x i64], [1 x i64] }, ptr %42, i32 0, i32 0
ADD DEFERRED:   %42 = alloca { ptr, ptr, i64, [1 x i64], [1 x i64] }, align 8
IC: Visiting:   %.elt = extractvalue { ptr, ptr, i64, [1 x i64], [1 x i64] } %34, 0
IC: Replacing   %.elt = extractvalue { ptr, ptr, i64, [1 x i64], [1 x i64] } %34, 0
    with   %29 = call ptr @malloc(i64 %.idx17)
IC: Mod =   %.elt = extractvalue { ptr, ptr, i64, [1 x i64], [1 x i64] } %34, 0
    New =   %.elt = extractvalue { ptr, ptr, i64, [1 x i64], [1 x i64] } %34, 0
IC: ERASE   %.elt = extractvalue { ptr, ptr, i64, [1 x i64], [1 x i64] } %34, 0
ADD DEFERRED:   %34 = insertvalue { ptr, ptr, i64, [1 x i64], [1 x i64] } %33, i64 1, 4, 0
IC: Visiting:   store ptr %29, ptr %42, align 8
IC: Visiting:   %.repack18 = getelementptr inbounds { ptr, ptr, i64, [1 x i64], [1 x i64] }, ptr %42, i32 0, i32 1
IC: Mod =   %.repack18 = getelementptr inbounds { ptr, ptr, i64, [1 x i64], [1 x i64] }, ptr %42, i32 0, i32 1
    New =   %.repack18 = getelementptr inbounds { ptr, ptr, i64, [1 x i64], [1 x i64] }, ptr %42, i64 0, i32 1
ADD:   %.repack18 = getelementptr inbounds { ptr, ptr, i64, [1 x i64], [1 x i64] }, ptr %42, i64 0, i32 1
IC: Visiting:   %.repack18 = getelementptr inbounds { ptr, ptr, i64, [1 x i64], [1 x i64] }, ptr %42, i64 0, i32 1
IC: Visiting:   %.elt19 = extractvalue { ptr, ptr, i64, [1 x i64], [1 x i64] } %34, 1
IC: Replacing   %.elt19 = extractvalue { ptr, ptr, i64, [1 x i64], [1 x i64] } %34, 1
    with   %29 = call ptr @malloc(i64 %.idx17)
IC: Mod =   %.elt19 = extractvalue { ptr, ptr, i64, [1 x i64], [1 x i64] } %34, 1
    New =   %.elt19 = extractvalue { ptr, ptr, i64, [1 x i64], [1 x i64] } %34, 1
IC: ERASE   %.elt19 = extractvalue { ptr, ptr, i64, [1 x i64], [1 x i64] } %34, 1
ADD DEFERRED:   %34 = insertvalue { ptr, ptr, i64, [1 x i64], [1 x i64] } %33, i64 1, 4, 0
IC: Visiting:   store ptr %29, ptr %.repack18, align 8
IC: Visiting:   %.repack20 = getelementptr inbounds { ptr, ptr, i64, [1 x i64], [1 x i64] }, ptr %42, i32 0, i32 2
IC: Mod =   %.repack20 = getelementptr inbounds { ptr, ptr, i64, [1 x i64], [1 x i64] }, ptr %42, i32 0, i32 2
    New =   %.repack20 = getelementptr inbounds { ptr, ptr, i64, [1 x i64], [1 x i64] }, ptr %42, i64 0, i32 2
ADD:   %.repack20 = getelementptr inbounds { ptr, ptr, i64, [1 x i64], [1 x i64] }, ptr %42, i64 0, i32 2
IC: Visiting:   %.repack20 = getelementptr inbounds { ptr, ptr, i64, [1 x i64], [1 x i64] }, ptr %42, i64 0, i32 2
IC: Visiting:   %.elt21 = extractvalue { ptr, ptr, i64, [1 x i64], [1 x i64] } %34, 2
IC: Replacing   %.elt21 = extractvalue { ptr, ptr, i64, [1 x i64], [1 x i64] } %34, 2
    with i64 0
IC: Mod =   %.elt21 = extractvalue { ptr, ptr, i64, [1 x i64], [1 x i64] } %34, 2
    New =   %.elt21 = extractvalue { ptr, ptr, i64, [1 x i64], [1 x i64] } %34, 2
IC: ERASE   %.elt21 = extractvalue { ptr, ptr, i64, [1 x i64], [1 x i64] } %34, 2
ADD DEFERRED:   %34 = insertvalue { ptr, ptr, i64, [1 x i64], [1 x i64] } %33, i64 1, 4, 0
IC: Visiting:   store i64 0, ptr %.repack20, align 8
IC: Visiting:   %.repack22 = getelementptr inbounds { ptr, ptr, i64, [1 x i64], [1 x i64] }, ptr %42, i32 0, i32 3
IC: Mod =   %.repack22 = getelementptr inbounds { ptr, ptr, i64, [1 x i64], [1 x i64] }, ptr %42, i32 0, i32 3
    New =   %.repack22 = getelementptr inbounds { ptr, ptr, i64, [1 x i64], [1 x i64] }, ptr %42, i64 0, i32 3
ADD:   %.repack22 = getelementptr inbounds { ptr, ptr, i64, [1 x i64], [1 x i64] }, ptr %42, i64 0, i32 3
IC: Visiting:   %.repack22 = getelementptr inbounds { ptr, ptr, i64, [1 x i64], [1 x i64] }, ptr %42, i64 0, i32 3
IC: Visiting:   %.elt23 = extractvalue { ptr, ptr, i64, [1 x i64], [1 x i64] } %34, 3
IC: Old =   %.elt23 = extractvalue { ptr, ptr, i64, [1 x i64], [1 x i64] } %34, 3
    New =   <badref> = extractvalue { ptr, ptr, i64, [1 x i64], [1 x i64] } %33, 3
ADD:   %.elt23 = extractvalue { ptr, ptr, i64, [1 x i64], [1 x i64] } %33, 3
IC: ERASE   %43 = extractvalue { ptr, ptr, i64, [1 x i64], [1 x i64] } %34, 3
ADD DEFERRED:   %34 = insertvalue { ptr, ptr, i64, [1 x i64], [1 x i64] } %33, i64 1, 4, 0
IC: Visiting:   %.elt23 = extractvalue { ptr, ptr, i64, [1 x i64], [1 x i64] } %33, 3
ADD DEFERRED:   %43 = extractvalue { ptr, ptr, i64, [1 x i64], [1 x i64] } %32, 3
IC: Old =   %.elt23 = extractvalue { ptr, ptr, i64, [1 x i64], [1 x i64] } %33, 3
    New =   <badref> = insertvalue [1 x i64] %43, i64 %5, 0
ADD:   %.elt23 = insertvalue [1 x i64] %43, i64 %5, 0
IC: ERASE   %44 = extractvalue { ptr, ptr, i64, [1 x i64], [1 x i64] } %33, 3
ADD DEFERRED:   %33 = insertvalue { ptr, ptr, i64, [1 x i64], [1 x i64] } %32, i64 %5, 3, 0
ADD:   %33 = insertvalue { ptr, ptr, i64, [1 x i64], [1 x i64] } %32, i64 %5, 3, 0
ADD:   %43 = extractvalue { ptr, ptr, i64, [1 x i64], [1 x i64] } %32, 3
IC: Visiting:   %43 = extractvalue { ptr, ptr, i64, [1 x i64], [1 x i64] } %32, 3
IC: Old =   %43 = extractvalue { ptr, ptr, i64, [1 x i64], [1 x i64] } %32, 3
    New =   <badref> = extractvalue { ptr, ptr, i64, [1 x i64], [1 x i64] } %31, 3
ADD:   %43 = extractvalue { ptr, ptr, i64, [1 x i64], [1 x i64] } %31, 3
IC: ERASE   %44 = extractvalue { ptr, ptr, i64, [1 x i64], [1 x i64] } %32, 3
ADD DEFERRED:   %32 = insertvalue { ptr, ptr, i64, [1 x i64], [1 x i64] } %31, i64 0, 2
ADD:   %32 = insertvalue { ptr, ptr, i64, [1 x i64], [1 x i64] } %31, i64 0, 2
IC: Visiting:   %32 = insertvalue { ptr, ptr, i64, [1 x i64], [1 x i64] } %31, i64 0, 2
IC: Visiting:   %43 = extractvalue { ptr, ptr, i64, [1 x i64], [1 x i64] } %31, 3
IC: Old =   %43 = extractvalue { ptr, ptr, i64, [1 x i64], [1 x i64] } %31, 3
    New =   <badref> = extractvalue { ptr, ptr, i64, [1 x i64], [1 x i64] } %30, 3
ADD:   %43 = extractvalue { ptr, ptr, i64, [1 x i64], [1 x i64] } %30, 3
IC: ERASE   %44 = extractvalue { ptr, ptr, i64, [1 x i64], [1 x i64] } %31, 3
ADD DEFERRED:   %31 = insertvalue { ptr, ptr, i64, [1 x i64], [1 x i64] } %30, ptr %29, 1
ADD:   %31 = insertvalue { ptr, ptr, i64, [1 x i64], [1 x i64] } %30, ptr %29, 1
IC: Visiting:   %31 = insertvalue { ptr, ptr, i64, [1 x i64], [1 x i64] } %30, ptr %29, 1
IC: Visiting:   %43 = extractvalue { ptr, ptr, i64, [1 x i64], [1 x i64] } %30, 3
IC: Old =   %43 = extractvalue { ptr, ptr, i64, [1 x i64], [1 x i64] } %30, 3
    New =   <badref> = extractvalue { ptr, ptr, i64, [1 x i64], [1 x i64] } undef, 3
ADD:   %43 = extractvalue { ptr, ptr, i64, [1 x i64], [1 x i64] } undef, 3
IC: ERASE   %44 = extractvalue { ptr, ptr, i64, [1 x i64], [1 x i64] } %30, 3
ADD DEFERRED:   %30 = insertvalue { ptr, ptr, i64, [1 x i64], [1 x i64] } undef, ptr %29, 0
ADD:   %30 = insertvalue { ptr, ptr, i64, [1 x i64], [1 x i64] } undef, ptr %29, 0
IC: Visiting:   %30 = insertvalue { ptr, ptr, i64, [1 x i64], [1 x i64] } undef, ptr %29, 0
IC: ConstFold to: [1 x i64] undef from:   %43 = extractvalue { ptr, ptr, i64, [1 x i64], [1 x i64] } undef, 3
IC: Replacing   %43 = extractvalue { ptr, ptr, i64, [1 x i64], [1 x i64] } undef, 3
    with [1 x i64] undef
IC: ERASE   %43 = extractvalue { ptr, ptr, i64, [1 x i64], [1 x i64] } undef, 3
IC: Visiting:   %33 = insertvalue { ptr, ptr, i64, [1 x i64], [1 x i64] } %32, i64 %5, 3, 0
IC: Visiting:   %.elt23 = insertvalue [1 x i64] undef, i64 %5, 0
IC: Visiting:   store [1 x i64] %.elt23, ptr %.repack22, align 8
ADD DEFERRED:   %43 = extractvalue [1 x i64] %.elt23, 0
ADD DEFERRED:   store i64 %43, ptr %.repack22, align 8
IC: ERASE   store [1 x i64] %.elt23, ptr %.repack22, align 8
ADD DEFERRED:   %.elt23 = insertvalue [1 x i64] undef, i64 %5, 0
ADD DEFERRED:   %.repack22 = getelementptr inbounds { ptr, ptr, i64, [1 x i64], [1 x i64] }, ptr %42, i64 0, i32 3
ADD:   %.repack22 = getelementptr inbounds { ptr, ptr, i64, [1 x i64], [1 x i64] }, ptr %42, i64 0, i32 3
ADD:   %.elt23 = insertvalue [1 x i64] undef, i64 %5, 0
ADD:   store i64 %43, ptr %.repack22, align 8
ADD:   %43 = extractvalue [1 x i64] %.elt23, 0
IC: Visiting:   %43 = extractvalue [1 x i64] %.elt23, 0
IC: Replacing   %43 = extractvalue [1 x i64] %.elt23, 0
    with   %5 = load i64, ptr %4, align 4
IC: Mod =   %43 = extractvalue [1 x i64] %.elt23, 0
    New =   %43 = extractvalue [1 x i64] %.elt23, 0
IC: ERASE   %43 = extractvalue [1 x i64] %.elt23, 0
ADD DEFERRED:   %.elt23 = insertvalue [1 x i64] undef, i64 %5, 0
IC: ERASE   %.elt23 = insertvalue [1 x i64] undef, i64 %5, 0
ADD DEFERRED:   %5 = load i64, ptr %4, align 4
ADD:   %5 = load i64, ptr %4, align 4
IC: Visiting:   %5 = load i64, ptr %4, align 4
IC: Visiting:   store i64 %5, ptr %.repack22, align 8
IC: Visiting:   %.repack22 = getelementptr inbounds { ptr, ptr, i64, [1 x i64], [1 x i64] }, ptr %42, i64 0, i32 3
IC: Visiting:   %.repack24 = getelementptr inbounds { ptr, ptr, i64, [1 x i64], [1 x i64] }, ptr %42, i32 0, i32 4
IC: Mod =   %.repack24 = getelementptr inbounds { ptr, ptr, i64, [1 x i64], [1 x i64] }, ptr %42, i32 0, i32 4
    New =   %.repack24 = getelementptr inbounds { ptr, ptr, i64, [1 x i64], [1 x i64] }, ptr %42, i64 0, i32 4
ADD:   %.repack24 = getelementptr inbounds { ptr, ptr, i64, [1 x i64], [1 x i64] }, ptr %42, i64 0, i32 4
IC: Visiting:   %.repack24 = getelementptr inbounds { ptr, ptr, i64, [1 x i64], [1 x i64] }, ptr %42, i64 0, i32 4
IC: Visiting:   %.elt25 = extractvalue { ptr, ptr, i64, [1 x i64], [1 x i64] } %34, 4
ADD DEFERRED:   %43 = extractvalue { ptr, ptr, i64, [1 x i64], [1 x i64] } %33, 4
IC: Old =   %.elt25 = extractvalue { ptr, ptr, i64, [1 x i64], [1 x i64] } %34, 4
    New =   <badref> = insertvalue [1 x i64] %43, i64 1, 0
ADD:   %.elt25 = insertvalue [1 x i64] %43, i64 1, 0
IC: ERASE   %44 = extractvalue { ptr, ptr, i64, [1 x i64], [1 x i64] } %34, 4
ADD DEFERRED:   %34 = insertvalue { ptr, ptr, i64, [1 x i64], [1 x i64] } %33, i64 1, 4, 0
IC: ERASE   %34 = insertvalue { ptr, ptr, i64, [1 x i64], [1 x i64] } %33, i64 1, 4, 0
ADD DEFERRED:   %33 = insertvalue { ptr, ptr, i64, [1 x i64], [1 x i64] } %32, i64 %5, 3, 0
ADD:   %33 = insertvalue { ptr, ptr, i64, [1 x i64], [1 x i64] } %32, i64 %5, 3, 0
ADD:   %42 = extractvalue { ptr, ptr, i64, [1 x i64], [1 x i64] } %33, 4
IC: Visiting:   %42 = extractvalue { ptr, ptr, i64, [1 x i64], [1 x i64] } %33, 4
IC: Old =   %42 = extractvalue { ptr, ptr, i64, [1 x i64], [1 x i64] } %33, 4
    New =   <badref> = extractvalue { ptr, ptr, i64, [1 x i64], [1 x i64] } %32, 4
ADD:   %42 = extractvalue { ptr, ptr, i64, [1 x i64], [1 x i64] } %32, 4
IC: ERASE   %43 = extractvalue { ptr, ptr, i64, [1 x i64], [1 x i64] } %33, 4
ADD DEFERRED:   %33 = insertvalue { ptr, ptr, i64, [1 x i64], [1 x i64] } %32, i64 %5, 3, 0
IC: ERASE   %33 = insertvalue { ptr, ptr, i64, [1 x i64], [1 x i64] } %32, i64 %5, 3, 0
ADD DEFERRED:   %32 = insertvalue { ptr, ptr, i64, [1 x i64], [1 x i64] } %31, i64 0, 2
ADD DEFERRED:   %5 = load i64, ptr %4, align 4
ADD:   %5 = load i64, ptr %4, align 4
ADD:   %32 = insertvalue { ptr, ptr, i64, [1 x i64], [1 x i64] } %31, i64 0, 2
IC: Visiting:   %32 = insertvalue { ptr, ptr, i64, [1 x i64], [1 x i64] } %31, i64 0, 2
IC: Visiting:   %5 = load i64, ptr %4, align 4
IC: Visiting:   %41 = extractvalue { ptr, ptr, i64, [1 x i64], [1 x i64] } %32, 4
IC: Old =   %41 = extractvalue { ptr, ptr, i64, [1 x i64], [1 x i64] } %32, 4
    New =   <badref> = extractvalue { ptr, ptr, i64, [1 x i64], [1 x i64] } %31, 4
ADD:   %41 = extractvalue { ptr, ptr, i64, [1 x i64], [1 x i64] } %31, 4
IC: ERASE   %42 = extractvalue { ptr, ptr, i64, [1 x i64], [1 x i64] } %32, 4
ADD DEFERRED:   %32 = insertvalue { ptr, ptr, i64, [1 x i64], [1 x i64] } %31, i64 0, 2
IC: ERASE   %32 = insertvalue { ptr, ptr, i64, [1 x i64], [1 x i64] } %31, i64 0, 2
ADD DEFERRED:   %31 = insertvalue { ptr, ptr, i64, [1 x i64], [1 x i64] } %30, ptr %29, 1
ADD:   %31 = insertvalue { ptr, ptr, i64, [1 x i64], [1 x i64] } %30, ptr %29, 1
IC: Visiting:   %31 = insertvalue { ptr, ptr, i64, [1 x i64], [1 x i64] } %30, ptr %29, 1
IC: Visiting:   %40 = extractvalue { ptr, ptr, i64, [1 x i64], [1 x i64] } %31, 4
IC: Old =   %40 = extractvalue { ptr, ptr, i64, [1 x i64], [1 x i64] } %31, 4
    New =   <badref> = extractvalue { ptr, ptr, i64, [1 x i64], [1 x i64] } %30, 4
ADD:   %40 = extractvalue { ptr, ptr, i64, [1 x i64], [1 x i64] } %30, 4
IC: ERASE   %41 = extractvalue { ptr, ptr, i64, [1 x i64], [1 x i64] } %31, 4
ADD DEFERRED:   %31 = insertvalue { ptr, ptr, i64, [1 x i64], [1 x i64] } %30, ptr %29, 1
IC: ERASE   %31 = insertvalue { ptr, ptr, i64, [1 x i64], [1 x i64] } %30, ptr %29, 1
ADD DEFERRED:   %30 = insertvalue { ptr, ptr, i64, [1 x i64], [1 x i64] } undef, ptr %29, 0
ADD DEFERRED:   %29 = call ptr @malloc(i64 %.idx17)
ADD:   %29 = call ptr @malloc(i64 %.idx17)
ADD:   %30 = insertvalue { ptr, ptr, i64, [1 x i64], [1 x i64] } undef, ptr %29, 0
IC: Visiting:   %30 = insertvalue { ptr, ptr, i64, [1 x i64], [1 x i64] } undef, ptr %29, 0
IC: Visiting:   %29 = call ptr @malloc(i64 %.idx17)
IC: Visiting:   %39 = extractvalue { ptr, ptr, i64, [1 x i64], [1 x i64] } %30, 4
IC: Old =   %39 = extractvalue { ptr, ptr, i64, [1 x i64], [1 x i64] } %30, 4
    New =   <badref> = extractvalue { ptr, ptr, i64, [1 x i64], [1 x i64] } undef, 4
ADD:   %39 = extractvalue { ptr, ptr, i64, [1 x i64], [1 x i64] } undef, 4
IC: ERASE   %40 = extractvalue { ptr, ptr, i64, [1 x i64], [1 x i64] } %30, 4
ADD DEFERRED:   %30 = insertvalue { ptr, ptr, i64, [1 x i64], [1 x i64] } undef, ptr %29, 0
IC: ERASE   %30 = insertvalue { ptr, ptr, i64, [1 x i64], [1 x i64] } undef, ptr %29, 0
ADD DEFERRED:   %29 = call ptr @malloc(i64 %.idx17)
ADD:   %29 = call ptr @malloc(i64 %.idx17)
IC: Visiting:   %29 = call ptr @malloc(i64 %.idx17)
IC: ConstFold to: [1 x i64] undef from:   %38 = extractvalue { ptr, ptr, i64, [1 x i64], [1 x i64] } undef, 4
IC: Replacing   %38 = extractvalue { ptr, ptr, i64, [1 x i64], [1 x i64] } undef, 4
    with [1 x i64] undef
IC: ERASE   %38 = extractvalue { ptr, ptr, i64, [1 x i64], [1 x i64] } undef, 4
IC: ConstFold to: [1 x i64] [i64 1] from:   %.elt25 = insertvalue [1 x i64] undef, i64 1, 0
IC: Replacing   %.elt25 = insertvalue [1 x i64] undef, i64 1, 0
    with [1 x i64] [i64 1]
IC: ERASE   %.elt25 = insertvalue [1 x i64] undef, i64 1, 0
IC: Visiting:   store [1 x i64] [i64 1], ptr %.repack24, align 8
ADD DEFERRED:   store i64 1, ptr %.repack24, align 8
IC: ERASE   store [1 x i64] [i64 1], ptr %.repack24, align 8
ADD DEFERRED:   %.repack24 = getelementptr inbounds { ptr, ptr, i64, [1 x i64], [1 x i64] }, ptr %37, i64 0, i32 4
ADD:   %.repack24 = getelementptr inbounds { ptr, ptr, i64, [1 x i64], [1 x i64] }, ptr %37, i64 0, i32 4
ADD:   store i64 1, ptr %.repack24, align 8
IC: Visiting:   store i64 1, ptr %.repack24, align 8
IC: Visiting:   %.repack24 = getelementptr inbounds { ptr, ptr, i64, [1 x i64], [1 x i64] }, ptr %37, i64 0, i32 4
IC: Visiting:   %37 = alloca { ptr, ptr, i64, [1 x i64], [1 x i64] }, align 8
IC: Visiting:   %38 = getelementptr i64, ptr null, i64 %7
IC: Visiting:   %39 = ptrtoint ptr %38 to i64
ADD DEFERRED:   %.idx26 = mul i64 %7, 8
IC: Replacing   %39 = ptrtoint ptr %38 to i64
    with   %.idx26 = mul i64 %7, 8
IC: Mod =   %39 = ptrtoint ptr %38 to i64
    New =   %39 = ptrtoint ptr %38 to i64
IC: ERASE   %39 = ptrtoint ptr %38 to i64
ADD DEFERRED:   %38 = getelementptr i64, ptr null, i64 %7
IC: ERASE   %38 = getelementptr i64, ptr null, i64 %7
ADD DEFERRED:   %7 = load i64, ptr %6, align 4
ADD:   %7 = load i64, ptr %6, align 4
ADD:   %.idx26 = mul i64 %7, 8
IC: Visiting:   %.idx26 = mul i64 %7, 8
IC: Old =   %.idx26 = mul i64 %7, 8
    New =   <badref> = shl i64 %7, 3
ADD:   %.idx26 = shl i64 %7, 3
IC: ERASE   %38 = mul i64 %7, 8
ADD DEFERRED:   %7 = load i64, ptr %6, align 4
IC: Visiting:   %.idx26 = shl i64 %7, 3
IC: Visiting:   %7 = load i64, ptr %6, align 4
IC: Visiting:   %38 = call ptr @malloc(i64 %.idx26)
IC: Visiting:   %39 = insertvalue { ptr, ptr, i64, [1 x i64], [1 x i64] } undef, ptr %38, 0
IC: Visiting:   %40 = insertvalue { ptr, ptr, i64, [1 x i64], [1 x i64] } %39, ptr %38, 1
IC: Visiting:   %41 = insertvalue { ptr, ptr, i64, [1 x i64], [1 x i64] } %40, i64 0, 2
IC: Visiting:   %42 = insertvalue { ptr, ptr, i64, [1 x i64], [1 x i64] } %41, i64 %7, 3, 0
IC: Visiting:   %43 = insertvalue { ptr, ptr, i64, [1 x i64], [1 x i64] } %42, i64 1, 4, 0
IC: Visiting:   br label %44
IC: Visiting:   %45 = phi i64 [ %49, %47 ], [ 0, %36 ]
IC: Visiting:   %46 = icmp slt i64 %45, %7
IC: Visiting:   br i1 %46, label %47, label %50
IC: Visiting:   %51 = alloca { ptr, ptr, i64, [1 x i64], [1 x i64] }, i64 1, align 8
IC: Mod =   %51 = alloca { ptr, ptr, i64, [1 x i64], [1 x i64] }, i64 1, align 8
    New =   %51 = alloca { ptr, ptr, i64, [1 x i64], [1 x i64] }, align 8
ADD:   %51 = alloca { ptr, ptr, i64, [1 x i64], [1 x i64] }, align 8
IC: Visiting:   %51 = alloca { ptr, ptr, i64, [1 x i64], [1 x i64] }, align 8
IC: Visiting:   store { ptr, ptr, i64, [1 x i64], [1 x i64] } %43, ptr %51, align 8
ADD DEFERRED:   %.repack = getelementptr inbounds { ptr, ptr, i64, [1 x i64], [1 x i64] }, ptr %51, i32 0, i32 0
ADD DEFERRED:   %.elt = extractvalue { ptr, ptr, i64, [1 x i64], [1 x i64] } %43, 0
ADD DEFERRED:   store ptr %.elt, ptr %.repack, align 8
ADD DEFERRED:   %.repack27 = getelementptr inbounds { ptr, ptr, i64, [1 x i64], [1 x i64] }, ptr %51, i32 0, i32 1
ADD DEFERRED:   %.elt28 = extractvalue { ptr, ptr, i64, [1 x i64], [1 x i64] } %43, 1
ADD DEFERRED:   store ptr %.elt28, ptr %.repack27, align 8
ADD DEFERRED:   %.repack29 = getelementptr inbounds { ptr, ptr, i64, [1 x i64], [1 x i64] }, ptr %51, i32 0, i32 2
ADD DEFERRED:   %.elt30 = extractvalue { ptr, ptr, i64, [1 x i64], [1 x i64] } %43, 2
ADD DEFERRED:   store i64 %.elt30, ptr %.repack29, align 8
ADD DEFERRED:   %.repack31 = getelementptr inbounds { ptr, ptr, i64, [1 x i64], [1 x i64] }, ptr %51, i32 0, i32 3
ADD DEFERRED:   %.elt32 = extractvalue { ptr, ptr, i64, [1 x i64], [1 x i64] } %43, 3
ADD DEFERRED:   store [1 x i64] %.elt32, ptr %.repack31, align 8
ADD DEFERRED:   %.repack33 = getelementptr inbounds { ptr, ptr, i64, [1 x i64], [1 x i64] }, ptr %51, i32 0, i32 4
ADD DEFERRED:   %.elt34 = extractvalue { ptr, ptr, i64, [1 x i64], [1 x i64] } %43, 4
ADD DEFERRED:   store [1 x i64] %.elt34, ptr %.repack33, align 8
IC: ERASE   store { ptr, ptr, i64, [1 x i64], [1 x i64] } %43, ptr %51, align 8
ADD DEFERRED:   %43 = insertvalue { ptr, ptr, i64, [1 x i64], [1 x i64] } %42, i64 1, 4, 0
ADD DEFERRED:   %51 = alloca { ptr, ptr, i64, [1 x i64], [1 x i64] }, align 8
ADD:   %51 = alloca { ptr, ptr, i64, [1 x i64], [1 x i64] }, align 8
ADD:   %43 = insertvalue { ptr, ptr, i64, [1 x i64], [1 x i64] } %42, i64 1, 4, 0
ADD:   store [1 x i64] %.elt34, ptr %.repack33, align 8
ADD:   %.elt34 = extractvalue { ptr, ptr, i64, [1 x i64], [1 x i64] } %43, 4
ADD:   %.repack33 = getelementptr inbounds { ptr, ptr, i64, [1 x i64], [1 x i64] }, ptr %51, i32 0, i32 4
ADD:   store [1 x i64] %.elt32, ptr %.repack31, align 8
ADD:   %.elt32 = extractvalue { ptr, ptr, i64, [1 x i64], [1 x i64] } %43, 3
ADD:   %.repack31 = getelementptr inbounds { ptr, ptr, i64, [1 x i64], [1 x i64] }, ptr %51, i32 0, i32 3
ADD:   store i64 %.elt30, ptr %.repack29, align 8
ADD:   %.elt30 = extractvalue { ptr, ptr, i64, [1 x i64], [1 x i64] } %43, 2
ADD:   %.repack29 = getelementptr inbounds { ptr, ptr, i64, [1 x i64], [1 x i64] }, ptr %51, i32 0, i32 2
ADD:   store ptr %.elt28, ptr %.repack27, align 8
ADD:   %.elt28 = extractvalue { ptr, ptr, i64, [1 x i64], [1 x i64] } %43, 1
ADD:   %.repack27 = getelementptr inbounds { ptr, ptr, i64, [1 x i64], [1 x i64] }, ptr %51, i32 0, i32 1
ADD:   store ptr %.elt, ptr %.repack, align 8
ADD:   %.elt = extractvalue { ptr, ptr, i64, [1 x i64], [1 x i64] } %43, 0
ADD:   %.repack = getelementptr inbounds { ptr, ptr, i64, [1 x i64], [1 x i64] }, ptr %51, i32 0, i32 0
IC: Visiting:   %.repack = getelementptr inbounds { ptr, ptr, i64, [1 x i64], [1 x i64] }, ptr %51, i32 0, i32 0
IC: Replacing   %.repack = getelementptr inbounds { ptr, ptr, i64, [1 x i64], [1 x i64] }, ptr %51, i32 0, i32 0
    with   %51 = alloca { ptr, ptr, i64, [1 x i64], [1 x i64] }, align 8
IC: Mod =   %.repack = getelementptr inbounds { ptr, ptr, i64, [1 x i64], [1 x i64] }, ptr %51, i32 0, i32 0
    New =   %.repack = getelementptr inbounds { ptr, ptr, i64, [1 x i64], [1 x i64] }, ptr %51, i32 0, i32 0
IC: ERASE   %.repack = getelementptr inbounds { ptr, ptr, i64, [1 x i64], [1 x i64] }, ptr %51, i32 0, i32 0
ADD DEFERRED:   %51 = alloca { ptr, ptr, i64, [1 x i64], [1 x i64] }, align 8
IC: Visiting:   %.elt = extractvalue { ptr, ptr, i64, [1 x i64], [1 x i64] } %43, 0
IC: Replacing   %.elt = extractvalue { ptr, ptr, i64, [1 x i64], [1 x i64] } %43, 0
    with   %38 = call ptr @malloc(i64 %.idx26)
IC: Mod =   %.elt = extractvalue { ptr, ptr, i64, [1 x i64], [1 x i64] } %43, 0
    New =   %.elt = extractvalue { ptr, ptr, i64, [1 x i64], [1 x i64] } %43, 0
IC: ERASE   %.elt = extractvalue { ptr, ptr, i64, [1 x i64], [1 x i64] } %43, 0
ADD DEFERRED:   %43 = insertvalue { ptr, ptr, i64, [1 x i64], [1 x i64] } %42, i64 1, 4, 0
IC: Visiting:   store ptr %38, ptr %51, align 8
IC: Visiting:   %.repack27 = getelementptr inbounds { ptr, ptr, i64, [1 x i64], [1 x i64] }, ptr %51, i32 0, i32 1
IC: Mod =   %.repack27 = getelementptr inbounds { ptr, ptr, i64, [1 x i64], [1 x i64] }, ptr %51, i32 0, i32 1
    New =   %.repack27 = getelementptr inbounds { ptr, ptr, i64, [1 x i64], [1 x i64] }, ptr %51, i64 0, i32 1
ADD:   %.repack27 = getelementptr inbounds { ptr, ptr, i64, [1 x i64], [1 x i64] }, ptr %51, i64 0, i32 1
IC: Visiting:   %.repack27 = getelementptr inbounds { ptr, ptr, i64, [1 x i64], [1 x i64] }, ptr %51, i64 0, i32 1
IC: Visiting:   %.elt28 = extractvalue { ptr, ptr, i64, [1 x i64], [1 x i64] } %43, 1
IC: Replacing   %.elt28 = extractvalue { ptr, ptr, i64, [1 x i64], [1 x i64] } %43, 1
    with   %38 = call ptr @malloc(i64 %.idx26)
IC: Mod =   %.elt28 = extractvalue { ptr, ptr, i64, [1 x i64], [1 x i64] } %43, 1
    New =   %.elt28 = extractvalue { ptr, ptr, i64, [1 x i64], [1 x i64] } %43, 1
IC: ERASE   %.elt28 = extractvalue { ptr, ptr, i64, [1 x i64], [1 x i64] } %43, 1
ADD DEFERRED:   %43 = insertvalue { ptr, ptr, i64, [1 x i64], [1 x i64] } %42, i64 1, 4, 0
IC: Visiting:   store ptr %38, ptr %.repack27, align 8
IC: Visiting:   %.repack29 = getelementptr inbounds { ptr, ptr, i64, [1 x i64], [1 x i64] }, ptr %51, i32 0, i32 2
IC: Mod =   %.repack29 = getelementptr inbounds { ptr, ptr, i64, [1 x i64], [1 x i64] }, ptr %51, i32 0, i32 2
    New =   %.repack29 = getelementptr inbounds { ptr, ptr, i64, [1 x i64], [1 x i64] }, ptr %51, i64 0, i32 2
ADD:   %.repack29 = getelementptr inbounds { ptr, ptr, i64, [1 x i64], [1 x i64] }, ptr %51, i64 0, i32 2
IC: Visiting:   %.repack29 = getelementptr inbounds { ptr, ptr, i64, [1 x i64], [1 x i64] }, ptr %51, i64 0, i32 2
IC: Visiting:   %.elt30 = extractvalue { ptr, ptr, i64, [1 x i64], [1 x i64] } %43, 2
IC: Replacing   %.elt30 = extractvalue { ptr, ptr, i64, [1 x i64], [1 x i64] } %43, 2
    with i64 0
IC: Mod =   %.elt30 = extractvalue { ptr, ptr, i64, [1 x i64], [1 x i64] } %43, 2
    New =   %.elt30 = extractvalue { ptr, ptr, i64, [1 x i64], [1 x i64] } %43, 2
IC: ERASE   %.elt30 = extractvalue { ptr, ptr, i64, [1 x i64], [1 x i64] } %43, 2
ADD DEFERRED:   %43 = insertvalue { ptr, ptr, i64, [1 x i64], [1 x i64] } %42, i64 1, 4, 0
IC: Visiting:   store i64 0, ptr %.repack29, align 8
IC: Visiting:   %.repack31 = getelementptr inbounds { ptr, ptr, i64, [1 x i64], [1 x i64] }, ptr %51, i32 0, i32 3
IC: Mod =   %.repack31 = getelementptr inbounds { ptr, ptr, i64, [1 x i64], [1 x i64] }, ptr %51, i32 0, i32 3
    New =   %.repack31 = getelementptr inbounds { ptr, ptr, i64, [1 x i64], [1 x i64] }, ptr %51, i64 0, i32 3
ADD:   %.repack31 = getelementptr inbounds { ptr, ptr, i64, [1 x i64], [1 x i64] }, ptr %51, i64 0, i32 3
IC: Visiting:   %.repack31 = getelementptr inbounds { ptr, ptr, i64, [1 x i64], [1 x i64] }, ptr %51, i64 0, i32 3
IC: Visiting:   %.elt32 = extractvalue { ptr, ptr, i64, [1 x i64], [1 x i64] } %43, 3
IC: Old =   %.elt32 = extractvalue { ptr, ptr, i64, [1 x i64], [1 x i64] } %43, 3
    New =   <badref> = extractvalue { ptr, ptr, i64, [1 x i64], [1 x i64] } %42, 3
ADD:   %.elt32 = extractvalue { ptr, ptr, i64, [1 x i64], [1 x i64] } %42, 3
IC: ERASE   %52 = extractvalue { ptr, ptr, i64, [1 x i64], [1 x i64] } %43, 3
ADD DEFERRED:   %43 = insertvalue { ptr, ptr, i64, [1 x i64], [1 x i64] } %42, i64 1, 4, 0
IC: Visiting:   %.elt32 = extractvalue { ptr, ptr, i64, [1 x i64], [1 x i64] } %42, 3
ADD DEFERRED:   %52 = extractvalue { ptr, ptr, i64, [1 x i64], [1 x i64] } %41, 3
IC: Old =   %.elt32 = extractvalue { ptr, ptr, i64, [1 x i64], [1 x i64] } %42, 3
    New =   <badref> = insertvalue [1 x i64] %52, i64 %7, 0
ADD:   %.elt32 = insertvalue [1 x i64] %52, i64 %7, 0
IC: ERASE   %53 = extractvalue { ptr, ptr, i64, [1 x i64], [1 x i64] } %42, 3
ADD DEFERRED:   %42 = insertvalue { ptr, ptr, i64, [1 x i64], [1 x i64] } %41, i64 %7, 3, 0
ADD:   %42 = insertvalue { ptr, ptr, i64, [1 x i64], [1 x i64] } %41, i64 %7, 3, 0
ADD:   %52 = extractvalue { ptr, ptr, i64, [1 x i64], [1 x i64] } %41, 3
IC: Visiting:   %52 = extractvalue { ptr, ptr, i64, [1 x i64], [1 x i64] } %41, 3
IC: Old =   %52 = extractvalue { ptr, ptr, i64, [1 x i64], [1 x i64] } %41, 3
    New =   <badref> = extractvalue { ptr, ptr, i64, [1 x i64], [1 x i64] } %40, 3
ADD:   %52 = extractvalue { ptr, ptr, i64, [1 x i64], [1 x i64] } %40, 3
IC: ERASE   %53 = extractvalue { ptr, ptr, i64, [1 x i64], [1 x i64] } %41, 3
ADD DEFERRED:   %41 = insertvalue { ptr, ptr, i64, [1 x i64], [1 x i64] } %40, i64 0, 2
ADD:   %41 = insertvalue { ptr, ptr, i64, [1 x i64], [1 x i64] } %40, i64 0, 2
IC: Visiting:   %41 = insertvalue { ptr, ptr, i64, [1 x i64], [1 x i64] } %40, i64 0, 2
IC: Visiting:   %52 = extractvalue { ptr, ptr, i64, [1 x i64], [1 x i64] } %40, 3
IC: Old =   %52 = extractvalue { ptr, ptr, i64, [1 x i64], [1 x i64] } %40, 3
    New =   <badref> = extractvalue { ptr, ptr, i64, [1 x i64], [1 x i64] } %39, 3
ADD:   %52 = extractvalue { ptr, ptr, i64, [1 x i64], [1 x i64] } %39, 3
IC: ERASE   %53 = extractvalue { ptr, ptr, i64, [1 x i64], [1 x i64] } %40, 3
ADD DEFERRED:   %40 = insertvalue { ptr, ptr, i64, [1 x i64], [1 x i64] } %39, ptr %38, 1
ADD:   %40 = insertvalue { ptr, ptr, i64, [1 x i64], [1 x i64] } %39, ptr %38, 1
IC: Visiting:   %40 = insertvalue { ptr, ptr, i64, [1 x i64], [1 x i64] } %39, ptr %38, 1
IC: Visiting:   %52 = extractvalue { ptr, ptr, i64, [1 x i64], [1 x i64] } %39, 3
IC: Old =   %52 = extractvalue { ptr, ptr, i64, [1 x i64], [1 x i64] } %39, 3
    New =   <badref> = extractvalue { ptr, ptr, i64, [1 x i64], [1 x i64] } undef, 3
ADD:   %52 = extractvalue { ptr, ptr, i64, [1 x i64], [1 x i64] } undef, 3
IC: ERASE   %53 = extractvalue { ptr, ptr, i64, [1 x i64], [1 x i64] } %39, 3
ADD DEFERRED:   %39 = insertvalue { ptr, ptr, i64, [1 x i64], [1 x i64] } undef, ptr %38, 0
ADD:   %39 = insertvalue { ptr, ptr, i64, [1 x i64], [1 x i64] } undef, ptr %38, 0
IC: Visiting:   %39 = insertvalue { ptr, ptr, i64, [1 x i64], [1 x i64] } undef, ptr %38, 0
IC: ConstFold to: [1 x i64] undef from:   %52 = extractvalue { ptr, ptr, i64, [1 x i64], [1 x i64] } undef, 3
IC: Replacing   %52 = extractvalue { ptr, ptr, i64, [1 x i64], [1 x i64] } undef, 3
    with [1 x i64] undef
IC: ERASE   %52 = extractvalue { ptr, ptr, i64, [1 x i64], [1 x i64] } undef, 3
IC: Visiting:   %42 = insertvalue { ptr, ptr, i64, [1 x i64], [1 x i64] } %41, i64 %7, 3, 0
IC: Visiting:   %.elt32 = insertvalue [1 x i64] undef, i64 %7, 0
IC: Visiting:   store [1 x i64] %.elt32, ptr %.repack31, align 8
ADD DEFERRED:   %52 = extractvalue [1 x i64] %.elt32, 0
ADD DEFERRED:   store i64 %52, ptr %.repack31, align 8
IC: ERASE   store [1 x i64] %.elt32, ptr %.repack31, align 8
ADD DEFERRED:   %.elt32 = insertvalue [1 x i64] undef, i64 %7, 0
ADD DEFERRED:   %.repack31 = getelementptr inbounds { ptr, ptr, i64, [1 x i64], [1 x i64] }, ptr %51, i64 0, i32 3
ADD:   %.repack31 = getelementptr inbounds { ptr, ptr, i64, [1 x i64], [1 x i64] }, ptr %51, i64 0, i32 3
ADD:   %.elt32 = insertvalue [1 x i64] undef, i64 %7, 0
ADD:   store i64 %52, ptr %.repack31, align 8
ADD:   %52 = extractvalue [1 x i64] %.elt32, 0
IC: Visiting:   %52 = extractvalue [1 x i64] %.elt32, 0
IC: Replacing   %52 = extractvalue [1 x i64] %.elt32, 0
    with   %7 = load i64, ptr %6, align 4
IC: Mod =   %52 = extractvalue [1 x i64] %.elt32, 0
    New =   %52 = extractvalue [1 x i64] %.elt32, 0
IC: ERASE   %52 = extractvalue [1 x i64] %.elt32, 0
ADD DEFERRED:   %.elt32 = insertvalue [1 x i64] undef, i64 %7, 0
IC: ERASE   %.elt32 = insertvalue [1 x i64] undef, i64 %7, 0
ADD DEFERRED:   %7 = load i64, ptr %6, align 4
ADD:   %7 = load i64, ptr %6, align 4
IC: Visiting:   %7 = load i64, ptr %6, align 4
IC: Visiting:   store i64 %7, ptr %.repack31, align 8
IC: Visiting:   %.repack31 = getelementptr inbounds { ptr, ptr, i64, [1 x i64], [1 x i64] }, ptr %51, i64 0, i32 3
IC: Visiting:   %.repack33 = getelementptr inbounds { ptr, ptr, i64, [1 x i64], [1 x i64] }, ptr %51, i32 0, i32 4
IC: Mod =   %.repack33 = getelementptr inbounds { ptr, ptr, i64, [1 x i64], [1 x i64] }, ptr %51, i32 0, i32 4
    New =   %.repack33 = getelementptr inbounds { ptr, ptr, i64, [1 x i64], [1 x i64] }, ptr %51, i64 0, i32 4
ADD:   %.repack33 = getelementptr inbounds { ptr, ptr, i64, [1 x i64], [1 x i64] }, ptr %51, i64 0, i32 4
IC: Visiting:   %.repack33 = getelementptr inbounds { ptr, ptr, i64, [1 x i64], [1 x i64] }, ptr %51, i64 0, i32 4
IC: Visiting:   %.elt34 = extractvalue { ptr, ptr, i64, [1 x i64], [1 x i64] } %43, 4
ADD DEFERRED:   %52 = extractvalue { ptr, ptr, i64, [1 x i64], [1 x i64] } %42, 4
IC: Old =   %.elt34 = extractvalue { ptr, ptr, i64, [1 x i64], [1 x i64] } %43, 4
    New =   <badref> = insertvalue [1 x i64] %52, i64 1, 0
ADD:   %.elt34 = insertvalue [1 x i64] %52, i64 1, 0
IC: ERASE   %53 = extractvalue { ptr, ptr, i64, [1 x i64], [1 x i64] } %43, 4
ADD DEFERRED:   %43 = insertvalue { ptr, ptr, i64, [1 x i64], [1 x i64] } %42, i64 1, 4, 0
IC: ERASE   %43 = insertvalue { ptr, ptr, i64, [1 x i64], [1 x i64] } %42, i64 1, 4, 0
ADD DEFERRED:   %42 = insertvalue { ptr, ptr, i64, [1 x i64], [1 x i64] } %41, i64 %7, 3, 0
ADD:   %42 = insertvalue { ptr, ptr, i64, [1 x i64], [1 x i64] } %41, i64 %7, 3, 0
ADD:   %51 = extractvalue { ptr, ptr, i64, [1 x i64], [1 x i64] } %42, 4
IC: Visiting:   %51 = extractvalue { ptr, ptr, i64, [1 x i64], [1 x i64] } %42, 4
IC: Old =   %51 = extractvalue { ptr, ptr, i64, [1 x i64], [1 x i64] } %42, 4
    New =   <badref> = extractvalue { ptr, ptr, i64, [1 x i64], [1 x i64] } %41, 4
ADD:   %51 = extractvalue { ptr, ptr, i64, [1 x i64], [1 x i64] } %41, 4
IC: ERASE   %52 = extractvalue { ptr, ptr, i64, [1 x i64], [1 x i64] } %42, 4
ADD DEFERRED:   %42 = insertvalue { ptr, ptr, i64, [1 x i64], [1 x i64] } %41, i64 %7, 3, 0
IC: ERASE   %42 = insertvalue { ptr, ptr, i64, [1 x i64], [1 x i64] } %41, i64 %7, 3, 0
ADD DEFERRED:   %41 = insertvalue { ptr, ptr, i64, [1 x i64], [1 x i64] } %40, i64 0, 2
ADD DEFERRED:   %7 = load i64, ptr %6, align 4
ADD:   %7 = load i64, ptr %6, align 4
ADD:   %41 = insertvalue { ptr, ptr, i64, [1 x i64], [1 x i64] } %40, i64 0, 2
IC: Visiting:   %41 = insertvalue { ptr, ptr, i64, [1 x i64], [1 x i64] } %40, i64 0, 2
IC: Visiting:   %7 = load i64, ptr %6, align 4
IC: Visiting:   %50 = extractvalue { ptr, ptr, i64, [1 x i64], [1 x i64] } %41, 4
IC: Old =   %50 = extractvalue { ptr, ptr, i64, [1 x i64], [1 x i64] } %41, 4
    New =   <badref> = extractvalue { ptr, ptr, i64, [1 x i64], [1 x i64] } %40, 4
ADD:   %50 = extractvalue { ptr, ptr, i64, [1 x i64], [1 x i64] } %40, 4
IC: ERASE   %51 = extractvalue { ptr, ptr, i64, [1 x i64], [1 x i64] } %41, 4
ADD DEFERRED:   %41 = insertvalue { ptr, ptr, i64, [1 x i64], [1 x i64] } %40, i64 0, 2
IC: ERASE   %41 = insertvalue { ptr, ptr, i64, [1 x i64], [1 x i64] } %40, i64 0, 2
ADD DEFERRED:   %40 = insertvalue { ptr, ptr, i64, [1 x i64], [1 x i64] } %39, ptr %38, 1
ADD:   %40 = insertvalue { ptr, ptr, i64, [1 x i64], [1 x i64] } %39, ptr %38, 1
IC: Visiting:   %40 = insertvalue { ptr, ptr, i64, [1 x i64], [1 x i64] } %39, ptr %38, 1
IC: Visiting:   %49 = extractvalue { ptr, ptr, i64, [1 x i64], [1 x i64] } %40, 4
IC: Old =   %49 = extractvalue { ptr, ptr, i64, [1 x i64], [1 x i64] } %40, 4
    New =   <badref> = extractvalue { ptr, ptr, i64, [1 x i64], [1 x i64] } %39, 4
ADD:   %49 = extractvalue { ptr, ptr, i64, [1 x i64], [1 x i64] } %39, 4
IC: ERASE   %50 = extractvalue { ptr, ptr, i64, [1 x i64], [1 x i64] } %40, 4
ADD DEFERRED:   %40 = insertvalue { ptr, ptr, i64, [1 x i64], [1 x i64] } %39, ptr %38, 1
IC: ERASE   %40 = insertvalue { ptr, ptr, i64, [1 x i64], [1 x i64] } %39, ptr %38, 1
ADD DEFERRED:   %39 = insertvalue { ptr, ptr, i64, [1 x i64], [1 x i64] } undef, ptr %38, 0
ADD DEFERRED:   %38 = call ptr @malloc(i64 %.idx26)
ADD:   %38 = call ptr @malloc(i64 %.idx26)
ADD:   %39 = insertvalue { ptr, ptr, i64, [1 x i64], [1 x i64] } undef, ptr %38, 0
IC: Visiting:   %39 = insertvalue { ptr, ptr, i64, [1 x i64], [1 x i64] } undef, ptr %38, 0
IC: Visiting:   %38 = call ptr @malloc(i64 %.idx26)
IC: Visiting:   %48 = extractvalue { ptr, ptr, i64, [1 x i64], [1 x i64] } %39, 4
IC: Old =   %48 = extractvalue { ptr, ptr, i64, [1 x i64], [1 x i64] } %39, 4
    New =   <badref> = extractvalue { ptr, ptr, i64, [1 x i64], [1 x i64] } undef, 4
ADD:   %48 = extractvalue { ptr, ptr, i64, [1 x i64], [1 x i64] } undef, 4
IC: ERASE   %49 = extractvalue { ptr, ptr, i64, [1 x i64], [1 x i64] } %39, 4
ADD DEFERRED:   %39 = insertvalue { ptr, ptr, i64, [1 x i64], [1 x i64] } undef, ptr %38, 0
IC: ERASE   %39 = insertvalue { ptr, ptr, i64, [1 x i64], [1 x i64] } undef, ptr %38, 0
ADD DEFERRED:   %38 = call ptr @malloc(i64 %.idx26)
ADD:   %38 = call ptr @malloc(i64 %.idx26)
IC: Visiting:   %38 = call ptr @malloc(i64 %.idx26)
IC: ConstFold to: [1 x i64] undef from:   %47 = extractvalue { ptr, ptr, i64, [1 x i64], [1 x i64] } undef, 4
IC: Replacing   %47 = extractvalue { ptr, ptr, i64, [1 x i64], [1 x i64] } undef, 4
    with [1 x i64] undef
IC: ERASE   %47 = extractvalue { ptr, ptr, i64, [1 x i64], [1 x i64] } undef, 4
IC: ConstFold to: [1 x i64] [i64 1] from:   %.elt34 = insertvalue [1 x i64] undef, i64 1, 0
IC: Replacing   %.elt34 = insertvalue [1 x i64] undef, i64 1, 0
    with [1 x i64] [i64 1]
IC: ERASE   %.elt34 = insertvalue [1 x i64] undef, i64 1, 0
IC: Visiting:   store [1 x i64] [i64 1], ptr %.repack33, align 8
ADD DEFERRED:   store i64 1, ptr %.repack33, align 8
IC: ERASE   store [1 x i64] [i64 1], ptr %.repack33, align 8
ADD DEFERRED:   %.repack33 = getelementptr inbounds { ptr, ptr, i64, [1 x i64], [1 x i64] }, ptr %46, i64 0, i32 4
ADD:   %.repack33 = getelementptr inbounds { ptr, ptr, i64, [1 x i64], [1 x i64] }, ptr %46, i64 0, i32 4
ADD:   store i64 1, ptr %.repack33, align 8
IC: Visiting:   store i64 1, ptr %.repack33, align 8
IC: Visiting:   %.repack33 = getelementptr inbounds { ptr, ptr, i64, [1 x i64], [1 x i64] }, ptr %46, i64 0, i32 4
IC: Visiting:   %46 = alloca { ptr, ptr, i64, [1 x i64], [1 x i64] }, align 8
IC: Visiting:   %47 = getelementptr i64, ptr null, i64 %9
IC: Visiting:   %48 = ptrtoint ptr %47 to i64
ADD DEFERRED:   %.idx35 = mul i64 %9, 8
IC: Replacing   %48 = ptrtoint ptr %47 to i64
    with   %.idx35 = mul i64 %9, 8
IC: Mod =   %48 = ptrtoint ptr %47 to i64
    New =   %48 = ptrtoint ptr %47 to i64
IC: ERASE   %48 = ptrtoint ptr %47 to i64
ADD DEFERRED:   %47 = getelementptr i64, ptr null, i64 %9
IC: ERASE   %47 = getelementptr i64, ptr null, i64 %9
ADD DEFERRED:   %9 = load i64, ptr %8, align 4
ADD:   %9 = load i64, ptr %8, align 4
ADD:   %.idx35 = mul i64 %9, 8
IC: Visiting:   %.idx35 = mul i64 %9, 8
IC: Old =   %.idx35 = mul i64 %9, 8
    New =   <badref> = shl i64 %9, 3
ADD:   %.idx35 = shl i64 %9, 3
IC: ERASE   %47 = mul i64 %9, 8
ADD DEFERRED:   %9 = load i64, ptr %8, align 4
IC: Visiting:   %.idx35 = shl i64 %9, 3
IC: Visiting:   %9 = load i64, ptr %8, align 4
IC: Visiting:   %47 = call ptr @malloc(i64 %.idx35)
IC: Visiting:   %48 = insertvalue { ptr, ptr, i64, [1 x i64], [1 x i64] } undef, ptr %47, 0
IC: Visiting:   %49 = insertvalue { ptr, ptr, i64, [1 x i64], [1 x i64] } %48, ptr %47, 1
IC: Visiting:   %50 = insertvalue { ptr, ptr, i64, [1 x i64], [1 x i64] } %49, i64 0, 2
IC: Visiting:   %51 = insertvalue { ptr, ptr, i64, [1 x i64], [1 x i64] } %50, i64 %9, 3, 0
IC: Visiting:   %52 = insertvalue { ptr, ptr, i64, [1 x i64], [1 x i64] } %51, i64 1, 4, 0
IC: Visiting:   br label %53
IC: Visiting:   %54 = phi i64 [ %58, %56 ], [ 0, %45 ]
IC: Visiting:   %55 = icmp slt i64 %54, %9
IC: Visiting:   br i1 %55, label %56, label %59
IC: Visiting:   %60 = alloca { ptr, ptr, i64, [1 x i64], [1 x i64] }, i64 1, align 8
IC: Mod =   %60 = alloca { ptr, ptr, i64, [1 x i64], [1 x i64] }, i64 1, align 8
    New =   %60 = alloca { ptr, ptr, i64, [1 x i64], [1 x i64] }, align 8
ADD:   %60 = alloca { ptr, ptr, i64, [1 x i64], [1 x i64] }, align 8
IC: Visiting:   %60 = alloca { ptr, ptr, i64, [1 x i64], [1 x i64] }, align 8
IC: Visiting:   store { ptr, ptr, i64, [1 x i64], [1 x i64] } %52, ptr %60, align 8
ADD DEFERRED:   %.repack = getelementptr inbounds { ptr, ptr, i64, [1 x i64], [1 x i64] }, ptr %60, i32 0, i32 0
ADD DEFERRED:   %.elt = extractvalue { ptr, ptr, i64, [1 x i64], [1 x i64] } %52, 0
ADD DEFERRED:   store ptr %.elt, ptr %.repack, align 8
ADD DEFERRED:   %.repack36 = getelementptr inbounds { ptr, ptr, i64, [1 x i64], [1 x i64] }, ptr %60, i32 0, i32 1
ADD DEFERRED:   %.elt37 = extractvalue { ptr, ptr, i64, [1 x i64], [1 x i64] } %52, 1
ADD DEFERRED:   store ptr %.elt37, ptr %.repack36, align 8
ADD DEFERRED:   %.repack38 = getelementptr inbounds { ptr, ptr, i64, [1 x i64], [1 x i64] }, ptr %60, i32 0, i32 2
ADD DEFERRED:   %.elt39 = extractvalue { ptr, ptr, i64, [1 x i64], [1 x i64] } %52, 2
ADD DEFERRED:   store i64 %.elt39, ptr %.repack38, align 8
ADD DEFERRED:   %.repack40 = getelementptr inbounds { ptr, ptr, i64, [1 x i64], [1 x i64] }, ptr %60, i32 0, i32 3
ADD DEFERRED:   %.elt41 = extractvalue { ptr, ptr, i64, [1 x i64], [1 x i64] } %52, 3
ADD DEFERRED:   store [1 x i64] %.elt41, ptr %.repack40, align 8
ADD DEFERRED:   %.repack42 = getelementptr inbounds { ptr, ptr, i64, [1 x i64], [1 x i64] }, ptr %60, i32 0, i32 4
ADD DEFERRED:   %.elt43 = extractvalue { ptr, ptr, i64, [1 x i64], [1 x i64] } %52, 4
ADD DEFERRED:   store [1 x i64] %.elt43, ptr %.repack42, align 8
IC: ERASE   store { ptr, ptr, i64, [1 x i64], [1 x i64] } %52, ptr %60, align 8
ADD DEFERRED:   %52 = insertvalue { ptr, ptr, i64, [1 x i64], [1 x i64] } %51, i64 1, 4, 0
ADD DEFERRED:   %60 = alloca { ptr, ptr, i64, [1 x i64], [1 x i64] }, align 8
ADD:   %60 = alloca { ptr, ptr, i64, [1 x i64], [1 x i64] }, align 8
ADD:   %52 = insertvalue { ptr, ptr, i64, [1 x i64], [1 x i64] } %51, i64 1, 4, 0
ADD:   store [1 x i64] %.elt43, ptr %.repack42, align 8
ADD:   %.elt43 = extractvalue { ptr, ptr, i64, [1 x i64], [1 x i64] } %52, 4
ADD:   %.repack42 = getelementptr inbounds { ptr, ptr, i64, [1 x i64], [1 x i64] }, ptr %60, i32 0, i32 4
ADD:   store [1 x i64] %.elt41, ptr %.repack40, align 8
ADD:   %.elt41 = extractvalue { ptr, ptr, i64, [1 x i64], [1 x i64] } %52, 3
ADD:   %.repack40 = getelementptr inbounds { ptr, ptr, i64, [1 x i64], [1 x i64] }, ptr %60, i32 0, i32 3
ADD:   store i64 %.elt39, ptr %.repack38, align 8
ADD:   %.elt39 = extractvalue { ptr, ptr, i64, [1 x i64], [1 x i64] } %52, 2
ADD:   %.repack38 = getelementptr inbounds { ptr, ptr, i64, [1 x i64], [1 x i64] }, ptr %60, i32 0, i32 2
ADD:   store ptr %.elt37, ptr %.repack36, align 8
ADD:   %.elt37 = extractvalue { ptr, ptr, i64, [1 x i64], [1 x i64] } %52, 1
ADD:   %.repack36 = getelementptr inbounds { ptr, ptr, i64, [1 x i64], [1 x i64] }, ptr %60, i32 0, i32 1
ADD:   store ptr %.elt, ptr %.repack, align 8
ADD:   %.elt = extractvalue { ptr, ptr, i64, [1 x i64], [1 x i64] } %52, 0
ADD:   %.repack = getelementptr inbounds { ptr, ptr, i64, [1 x i64], [1 x i64] }, ptr %60, i32 0, i32 0
IC: Visiting:   %.repack = getelementptr inbounds { ptr, ptr, i64, [1 x i64], [1 x i64] }, ptr %60, i32 0, i32 0
IC: Replacing   %.repack = getelementptr inbounds { ptr, ptr, i64, [1 x i64], [1 x i64] }, ptr %60, i32 0, i32 0
    with   %60 = alloca { ptr, ptr, i64, [1 x i64], [1 x i64] }, align 8
IC: Mod =   %.repack = getelementptr inbounds { ptr, ptr, i64, [1 x i64], [1 x i64] }, ptr %60, i32 0, i32 0
    New =   %.repack = getelementptr inbounds { ptr, ptr, i64, [1 x i64], [1 x i64] }, ptr %60, i32 0, i32 0
IC: ERASE   %.repack = getelementptr inbounds { ptr, ptr, i64, [1 x i64], [1 x i64] }, ptr %60, i32 0, i32 0
ADD DEFERRED:   %60 = alloca { ptr, ptr, i64, [1 x i64], [1 x i64] }, align 8
IC: Visiting:   %.elt = extractvalue { ptr, ptr, i64, [1 x i64], [1 x i64] } %52, 0
IC: Replacing   %.elt = extractvalue { ptr, ptr, i64, [1 x i64], [1 x i64] } %52, 0
    with   %47 = call ptr @malloc(i64 %.idx35)
IC: Mod =   %.elt = extractvalue { ptr, ptr, i64, [1 x i64], [1 x i64] } %52, 0
    New =   %.elt = extractvalue { ptr, ptr, i64, [1 x i64], [1 x i64] } %52, 0
IC: ERASE   %.elt = extractvalue { ptr, ptr, i64, [1 x i64], [1 x i64] } %52, 0
ADD DEFERRED:   %52 = insertvalue { ptr, ptr, i64, [1 x i64], [1 x i64] } %51, i64 1, 4, 0
IC: Visiting:   store ptr %47, ptr %60, align 8
IC: Visiting:   %.repack36 = getelementptr inbounds { ptr, ptr, i64, [1 x i64], [1 x i64] }, ptr %60, i32 0, i32 1
IC: Mod =   %.repack36 = getelementptr inbounds { ptr, ptr, i64, [1 x i64], [1 x i64] }, ptr %60, i32 0, i32 1
    New =   %.repack36 = getelementptr inbounds { ptr, ptr, i64, [1 x i64], [1 x i64] }, ptr %60, i64 0, i32 1
ADD:   %.repack36 = getelementptr inbounds { ptr, ptr, i64, [1 x i64], [1 x i64] }, ptr %60, i64 0, i32 1
IC: Visiting:   %.repack36 = getelementptr inbounds { ptr, ptr, i64, [1 x i64], [1 x i64] }, ptr %60, i64 0, i32 1
IC: Visiting:   %.elt37 = extractvalue { ptr, ptr, i64, [1 x i64], [1 x i64] } %52, 1
IC: Replacing   %.elt37 = extractvalue { ptr, ptr, i64, [1 x i64], [1 x i64] } %52, 1
    with   %47 = call ptr @malloc(i64 %.idx35)
IC: Mod =   %.elt37 = extractvalue { ptr, ptr, i64, [1 x i64], [1 x i64] } %52, 1
    New =   %.elt37 = extractvalue { ptr, ptr, i64, [1 x i64], [1 x i64] } %52, 1
IC: ERASE   %.elt37 = extractvalue { ptr, ptr, i64, [1 x i64], [1 x i64] } %52, 1
ADD DEFERRED:   %52 = insertvalue { ptr, ptr, i64, [1 x i64], [1 x i64] } %51, i64 1, 4, 0
IC: Visiting:   store ptr %47, ptr %.repack36, align 8
IC: Visiting:   %.repack38 = getelementptr inbounds { ptr, ptr, i64, [1 x i64], [1 x i64] }, ptr %60, i32 0, i32 2
IC: Mod =   %.repack38 = getelementptr inbounds { ptr, ptr, i64, [1 x i64], [1 x i64] }, ptr %60, i32 0, i32 2
    New =   %.repack38 = getelementptr inbounds { ptr, ptr, i64, [1 x i64], [1 x i64] }, ptr %60, i64 0, i32 2
ADD:   %.repack38 = getelementptr inbounds { ptr, ptr, i64, [1 x i64], [1 x i64] }, ptr %60, i64 0, i32 2
IC: Visiting:   %.repack38 = getelementptr inbounds { ptr, ptr, i64, [1 x i64], [1 x i64] }, ptr %60, i64 0, i32 2
IC: Visiting:   %.elt39 = extractvalue { ptr, ptr, i64, [1 x i64], [1 x i64] } %52, 2
IC: Replacing   %.elt39 = extractvalue { ptr, ptr, i64, [1 x i64], [1 x i64] } %52, 2
    with i64 0
IC: Mod =   %.elt39 = extractvalue { ptr, ptr, i64, [1 x i64], [1 x i64] } %52, 2
    New =   %.elt39 = extractvalue { ptr, ptr, i64, [1 x i64], [1 x i64] } %52, 2
IC: ERASE   %.elt39 = extractvalue { ptr, ptr, i64, [1 x i64], [1 x i64] } %52, 2
ADD DEFERRED:   %52 = insertvalue { ptr, ptr, i64, [1 x i64], [1 x i64] } %51, i64 1, 4, 0
IC: Visiting:   store i64 0, ptr %.repack38, align 8
IC: Visiting:   %.repack40 = getelementptr inbounds { ptr, ptr, i64, [1 x i64], [1 x i64] }, ptr %60, i32 0, i32 3
IC: Mod =   %.repack40 = getelementptr inbounds { ptr, ptr, i64, [1 x i64], [1 x i64] }, ptr %60, i32 0, i32 3
    New =   %.repack40 = getelementptr inbounds { ptr, ptr, i64, [1 x i64], [1 x i64] }, ptr %60, i64 0, i32 3
ADD:   %.repack40 = getelementptr inbounds { ptr, ptr, i64, [1 x i64], [1 x i64] }, ptr %60, i64 0, i32 3
IC: Visiting:   %.repack40 = getelementptr inbounds { ptr, ptr, i64, [1 x i64], [1 x i64] }, ptr %60, i64 0, i32 3
IC: Visiting:   %.elt41 = extractvalue { ptr, ptr, i64, [1 x i64], [1 x i64] } %52, 3
IC: Old =   %.elt41 = extractvalue { ptr, ptr, i64, [1 x i64], [1 x i64] } %52, 3
    New =   <badref> = extractvalue { ptr, ptr, i64, [1 x i64], [1 x i64] } %51, 3
ADD:   %.elt41 = extractvalue { ptr, ptr, i64, [1 x i64], [1 x i64] } %51, 3
IC: ERASE   %61 = extractvalue { ptr, ptr, i64, [1 x i64], [1 x i64] } %52, 3
ADD DEFERRED:   %52 = insertvalue { ptr, ptr, i64, [1 x i64], [1 x i64] } %51, i64 1, 4, 0
IC: Visiting:   %.elt41 = extractvalue { ptr, ptr, i64, [1 x i64], [1 x i64] } %51, 3
ADD DEFERRED:   %61 = extractvalue { ptr, ptr, i64, [1 x i64], [1 x i64] } %50, 3
IC: Old =   %.elt41 = extractvalue { ptr, ptr, i64, [1 x i64], [1 x i64] } %51, 3
    New =   <badref> = insertvalue [1 x i64] %61, i64 %9, 0
ADD:   %.elt41 = insertvalue [1 x i64] %61, i64 %9, 0
IC: ERASE   %62 = extractvalue { ptr, ptr, i64, [1 x i64], [1 x i64] } %51, 3
ADD DEFERRED:   %51 = insertvalue { ptr, ptr, i64, [1 x i64], [1 x i64] } %50, i64 %9, 3, 0
ADD:   %51 = insertvalue { ptr, ptr, i64, [1 x i64], [1 x i64] } %50, i64 %9, 3, 0
ADD:   %61 = extractvalue { ptr, ptr, i64, [1 x i64], [1 x i64] } %50, 3
IC: Visiting:   %61 = extractvalue { ptr, ptr, i64, [1 x i64], [1 x i64] } %50, 3
IC: Old =   %61 = extractvalue { ptr, ptr, i64, [1 x i64], [1 x i64] } %50, 3
    New =   <badref> = extractvalue { ptr, ptr, i64, [1 x i64], [1 x i64] } %49, 3
ADD:   %61 = extractvalue { ptr, ptr, i64, [1 x i64], [1 x i64] } %49, 3
IC: ERASE   %62 = extractvalue { ptr, ptr, i64, [1 x i64], [1 x i64] } %50, 3
ADD DEFERRED:   %50 = insertvalue { ptr, ptr, i64, [1 x i64], [1 x i64] } %49, i64 0, 2
ADD:   %50 = insertvalue { ptr, ptr, i64, [1 x i64], [1 x i64] } %49, i64 0, 2
IC: Visiting:   %50 = insertvalue { ptr, ptr, i64, [1 x i64], [1 x i64] } %49, i64 0, 2
IC: Visiting:   %61 = extractvalue { ptr, ptr, i64, [1 x i64], [1 x i64] } %49, 3
IC: Old =   %61 = extractvalue { ptr, ptr, i64, [1 x i64], [1 x i64] } %49, 3
    New =   <badref> = extractvalue { ptr, ptr, i64, [1 x i64], [1 x i64] } %48, 3
ADD:   %61 = extractvalue { ptr, ptr, i64, [1 x i64], [1 x i64] } %48, 3
IC: ERASE   %62 = extractvalue { ptr, ptr, i64, [1 x i64], [1 x i64] } %49, 3
ADD DEFERRED:   %49 = insertvalue { ptr, ptr, i64, [1 x i64], [1 x i64] } %48, ptr %47, 1
ADD:   %49 = insertvalue { ptr, ptr, i64, [1 x i64], [1 x i64] } %48, ptr %47, 1
IC: Visiting:   %49 = insertvalue { ptr, ptr, i64, [1 x i64], [1 x i64] } %48, ptr %47, 1
IC: Visiting:   %61 = extractvalue { ptr, ptr, i64, [1 x i64], [1 x i64] } %48, 3
IC: Old =   %61 = extractvalue { ptr, ptr, i64, [1 x i64], [1 x i64] } %48, 3
    New =   <badref> = extractvalue { ptr, ptr, i64, [1 x i64], [1 x i64] } undef, 3
ADD:   %61 = extractvalue { ptr, ptr, i64, [1 x i64], [1 x i64] } undef, 3
IC: ERASE   %62 = extractvalue { ptr, ptr, i64, [1 x i64], [1 x i64] } %48, 3
ADD DEFERRED:   %48 = insertvalue { ptr, ptr, i64, [1 x i64], [1 x i64] } undef, ptr %47, 0
ADD:   %48 = insertvalue { ptr, ptr, i64, [1 x i64], [1 x i64] } undef, ptr %47, 0
IC: Visiting:   %48 = insertvalue { ptr, ptr, i64, [1 x i64], [1 x i64] } undef, ptr %47, 0
IC: ConstFold to: [1 x i64] undef from:   %61 = extractvalue { ptr, ptr, i64, [1 x i64], [1 x i64] } undef, 3
IC: Replacing   %61 = extractvalue { ptr, ptr, i64, [1 x i64], [1 x i64] } undef, 3
    with [1 x i64] undef
IC: ERASE   %61 = extractvalue { ptr, ptr, i64, [1 x i64], [1 x i64] } undef, 3
IC: Visiting:   %51 = insertvalue { ptr, ptr, i64, [1 x i64], [1 x i64] } %50, i64 %9, 3, 0
IC: Visiting:   %.elt41 = insertvalue [1 x i64] undef, i64 %9, 0
IC: Visiting:   store [1 x i64] %.elt41, ptr %.repack40, align 8
ADD DEFERRED:   %61 = extractvalue [1 x i64] %.elt41, 0
ADD DEFERRED:   store i64 %61, ptr %.repack40, align 8
IC: ERASE   store [1 x i64] %.elt41, ptr %.repack40, align 8
ADD DEFERRED:   %.elt41 = insertvalue [1 x i64] undef, i64 %9, 0
ADD DEFERRED:   %.repack40 = getelementptr inbounds { ptr, ptr, i64, [1 x i64], [1 x i64] }, ptr %60, i64 0, i32 3
ADD:   %.repack40 = getelementptr inbounds { ptr, ptr, i64, [1 x i64], [1 x i64] }, ptr %60, i64 0, i32 3
ADD:   %.elt41 = insertvalue [1 x i64] undef, i64 %9, 0
ADD:   store i64 %61, ptr %.repack40, align 8
ADD:   %61 = extractvalue [1 x i64] %.elt41, 0
IC: Visiting:   %61 = extractvalue [1 x i64] %.elt41, 0
IC: Replacing   %61 = extractvalue [1 x i64] %.elt41, 0
    with   %9 = load i64, ptr %8, align 4
IC: Mod =   %61 = extractvalue [1 x i64] %.elt41, 0
    New =   %61 = extractvalue [1 x i64] %.elt41, 0
IC: ERASE   %61 = extractvalue [1 x i64] %.elt41, 0
ADD DEFERRED:   %.elt41 = insertvalue [1 x i64] undef, i64 %9, 0
IC: ERASE   %.elt41 = insertvalue [1 x i64] undef, i64 %9, 0
ADD DEFERRED:   %9 = load i64, ptr %8, align 4
ADD:   %9 = load i64, ptr %8, align 4
IC: Visiting:   %9 = load i64, ptr %8, align 4
IC: Visiting:   store i64 %9, ptr %.repack40, align 8
IC: Visiting:   %.repack40 = getelementptr inbounds { ptr, ptr, i64, [1 x i64], [1 x i64] }, ptr %60, i64 0, i32 3
IC: Visiting:   %.repack42 = getelementptr inbounds { ptr, ptr, i64, [1 x i64], [1 x i64] }, ptr %60, i32 0, i32 4
IC: Mod =   %.repack42 = getelementptr inbounds { ptr, ptr, i64, [1 x i64], [1 x i64] }, ptr %60, i32 0, i32 4
    New =   %.repack42 = getelementptr inbounds { ptr, ptr, i64, [1 x i64], [1 x i64] }, ptr %60, i64 0, i32 4
ADD:   %.repack42 = getelementptr inbounds { ptr, ptr, i64, [1 x i64], [1 x i64] }, ptr %60, i64 0, i32 4
IC: Visiting:   %.repack42 = getelementptr inbounds { ptr, ptr, i64, [1 x i64], [1 x i64] }, ptr %60, i64 0, i32 4
IC: Visiting:   %.elt43 = extractvalue { ptr, ptr, i64, [1 x i64], [1 x i64] } %52, 4
ADD DEFERRED:   %61 = extractvalue { ptr, ptr, i64, [1 x i64], [1 x i64] } %51, 4
IC: Old =   %.elt43 = extractvalue { ptr, ptr, i64, [1 x i64], [1 x i64] } %52, 4
    New =   <badref> = insertvalue [1 x i64] %61, i64 1, 0
ADD:   %.elt43 = insertvalue [1 x i64] %61, i64 1, 0
IC: ERASE   %62 = extractvalue { ptr, ptr, i64, [1 x i64], [1 x i64] } %52, 4
ADD DEFERRED:   %52 = insertvalue { ptr, ptr, i64, [1 x i64], [1 x i64] } %51, i64 1, 4, 0
IC: ERASE   %52 = insertvalue { ptr, ptr, i64, [1 x i64], [1 x i64] } %51, i64 1, 4, 0
ADD DEFERRED:   %51 = insertvalue { ptr, ptr, i64, [1 x i64], [1 x i64] } %50, i64 %9, 3, 0
ADD:   %51 = insertvalue { ptr, ptr, i64, [1 x i64], [1 x i64] } %50, i64 %9, 3, 0
ADD:   %60 = extractvalue { ptr, ptr, i64, [1 x i64], [1 x i64] } %51, 4
IC: Visiting:   %60 = extractvalue { ptr, ptr, i64, [1 x i64], [1 x i64] } %51, 4
IC: Old =   %60 = extractvalue { ptr, ptr, i64, [1 x i64], [1 x i64] } %51, 4
    New =   <badref> = extractvalue { ptr, ptr, i64, [1 x i64], [1 x i64] } %50, 4
ADD:   %60 = extractvalue { ptr, ptr, i64, [1 x i64], [1 x i64] } %50, 4
IC: ERASE   %61 = extractvalue { ptr, ptr, i64, [1 x i64], [1 x i64] } %51, 4
ADD DEFERRED:   %51 = insertvalue { ptr, ptr, i64, [1 x i64], [1 x i64] } %50, i64 %9, 3, 0
IC: ERASE   %51 = insertvalue { ptr, ptr, i64, [1 x i64], [1 x i64] } %50, i64 %9, 3, 0
ADD DEFERRED:   %50 = insertvalue { ptr, ptr, i64, [1 x i64], [1 x i64] } %49, i64 0, 2
ADD DEFERRED:   %9 = load i64, ptr %8, align 4
ADD:   %9 = load i64, ptr %8, align 4
ADD:   %50 = insertvalue { ptr, ptr, i64, [1 x i64], [1 x i64] } %49, i64 0, 2
IC: Visiting:   %50 = insertvalue { ptr, ptr, i64, [1 x i64], [1 x i64] } %49, i64 0, 2
IC: Visiting:   %9 = load i64, ptr %8, align 4
IC: Visiting:   %59 = extractvalue { ptr, ptr, i64, [1 x i64], [1 x i64] } %50, 4
IC: Old =   %59 = extractvalue { ptr, ptr, i64, [1 x i64], [1 x i64] } %50, 4
    New =   <badref> = extractvalue { ptr, ptr, i64, [1 x i64], [1 x i64] } %49, 4
ADD:   %59 = extractvalue { ptr, ptr, i64, [1 x i64], [1 x i64] } %49, 4
IC: ERASE   %60 = extractvalue { ptr, ptr, i64, [1 x i64], [1 x i64] } %50, 4
ADD DEFERRED:   %50 = insertvalue { ptr, ptr, i64, [1 x i64], [1 x i64] } %49, i64 0, 2
IC: ERASE   %50 = insertvalue { ptr, ptr, i64, [1 x i64], [1 x i64] } %49, i64 0, 2
ADD DEFERRED:   %49 = insertvalue { ptr, ptr, i64, [1 x i64], [1 x i64] } %48, ptr %47, 1
ADD:   %49 = insertvalue { ptr, ptr, i64, [1 x i64], [1 x i64] } %48, ptr %47, 1
IC: Visiting:   %49 = insertvalue { ptr, ptr, i64, [1 x i64], [1 x i64] } %48, ptr %47, 1
IC: Visiting:   %58 = extractvalue { ptr, ptr, i64, [1 x i64], [1 x i64] } %49, 4
IC: Old =   %58 = extractvalue { ptr, ptr, i64, [1 x i64], [1 x i64] } %49, 4
    New =   <badref> = extractvalue { ptr, ptr, i64, [1 x i64], [1 x i64] } %48, 4
ADD:   %58 = extractvalue { ptr, ptr, i64, [1 x i64], [1 x i64] } %48, 4
IC: ERASE   %59 = extractvalue { ptr, ptr, i64, [1 x i64], [1 x i64] } %49, 4
ADD DEFERRED:   %49 = insertvalue { ptr, ptr, i64, [1 x i64], [1 x i64] } %48, ptr %47, 1
IC: ERASE   %49 = insertvalue { ptr, ptr, i64, [1 x i64], [1 x i64] } %48, ptr %47, 1
ADD DEFERRED:   %48 = insertvalue { ptr, ptr, i64, [1 x i64], [1 x i64] } undef, ptr %47, 0
ADD DEFERRED:   %47 = call ptr @malloc(i64 %.idx35)
ADD:   %47 = call ptr @malloc(i64 %.idx35)
ADD:   %48 = insertvalue { ptr, ptr, i64, [1 x i64], [1 x i64] } undef, ptr %47, 0
IC: Visiting:   %48 = insertvalue { ptr, ptr, i64, [1 x i64], [1 x i64] } undef, ptr %47, 0
IC: Visiting:   %47 = call ptr @malloc(i64 %.idx35)
IC: Visiting:   %57 = extractvalue { ptr, ptr, i64, [1 x i64], [1 x i64] } %48, 4
IC: Old =   %57 = extractvalue { ptr, ptr, i64, [1 x i64], [1 x i64] } %48, 4
    New =   <badref> = extractvalue { ptr, ptr, i64, [1 x i64], [1 x i64] } undef, 4
ADD:   %57 = extractvalue { ptr, ptr, i64, [1 x i64], [1 x i64] } undef, 4
IC: ERASE   %58 = extractvalue { ptr, ptr, i64, [1 x i64], [1 x i64] } %48, 4
ADD DEFERRED:   %48 = insertvalue { ptr, ptr, i64, [1 x i64], [1 x i64] } undef, ptr %47, 0
IC: ERASE   %48 = insertvalue { ptr, ptr, i64, [1 x i64], [1 x i64] } undef, ptr %47, 0
ADD DEFERRED:   %47 = call ptr @malloc(i64 %.idx35)
ADD:   %47 = call ptr @malloc(i64 %.idx35)
IC: Visiting:   %47 = call ptr @malloc(i64 %.idx35)
IC: ConstFold to: [1 x i64] undef from:   %56 = extractvalue { ptr, ptr, i64, [1 x i64], [1 x i64] } undef, 4
IC: Replacing   %56 = extractvalue { ptr, ptr, i64, [1 x i64], [1 x i64] } undef, 4
    with [1 x i64] undef
IC: ERASE   %56 = extractvalue { ptr, ptr, i64, [1 x i64], [1 x i64] } undef, 4
IC: ConstFold to: [1 x i64] [i64 1] from:   %.elt43 = insertvalue [1 x i64] undef, i64 1, 0
IC: Replacing   %.elt43 = insertvalue [1 x i64] undef, i64 1, 0
    with [1 x i64] [i64 1]
IC: ERASE   %.elt43 = insertvalue [1 x i64] undef, i64 1, 0
IC: Visiting:   store [1 x i64] [i64 1], ptr %.repack42, align 8
ADD DEFERRED:   store i64 1, ptr %.repack42, align 8
IC: ERASE   store [1 x i64] [i64 1], ptr %.repack42, align 8
ADD DEFERRED:   %.repack42 = getelementptr inbounds { ptr, ptr, i64, [1 x i64], [1 x i64] }, ptr %55, i64 0, i32 4
ADD:   %.repack42 = getelementptr inbounds { ptr, ptr, i64, [1 x i64], [1 x i64] }, ptr %55, i64 0, i32 4
ADD:   store i64 1, ptr %.repack42, align 8
IC: Visiting:   store i64 1, ptr %.repack42, align 8
IC: Visiting:   %.repack42 = getelementptr inbounds { ptr, ptr, i64, [1 x i64], [1 x i64] }, ptr %55, i64 0, i32 4
IC: Visiting:   %55 = alloca { ptr, ptr, i64, [1 x i64], [1 x i64] }, align 8
IC: Visiting:   %56 = getelementptr i64, ptr null, i64 %11
IC: Visiting:   %57 = ptrtoint ptr %56 to i64
ADD DEFERRED:   %.idx44 = mul i64 %11, 8
IC: Replacing   %57 = ptrtoint ptr %56 to i64
    with   %.idx44 = mul i64 %11, 8
IC: Mod =   %57 = ptrtoint ptr %56 to i64
    New =   %57 = ptrtoint ptr %56 to i64
IC: ERASE   %57 = ptrtoint ptr %56 to i64
ADD DEFERRED:   %56 = getelementptr i64, ptr null, i64 %11
IC: ERASE   %56 = getelementptr i64, ptr null, i64 %11
ADD DEFERRED:   %11 = load i64, ptr %10, align 4
ADD:   %11 = load i64, ptr %10, align 4
ADD:   %.idx44 = mul i64 %11, 8
IC: Visiting:   %.idx44 = mul i64 %11, 8
IC: Old =   %.idx44 = mul i64 %11, 8
    New =   <badref> = shl i64 %11, 3
ADD:   %.idx44 = shl i64 %11, 3
IC: ERASE   %56 = mul i64 %11, 8
ADD DEFERRED:   %11 = load i64, ptr %10, align 4
IC: Visiting:   %.idx44 = shl i64 %11, 3
IC: Visiting:   %11 = load i64, ptr %10, align 4
IC: Visiting:   %56 = call ptr @malloc(i64 %.idx44)
IC: Visiting:   %57 = insertvalue { ptr, ptr, i64, [1 x i64], [1 x i64] } undef, ptr %56, 0
IC: Visiting:   %58 = insertvalue { ptr, ptr, i64, [1 x i64], [1 x i64] } %57, ptr %56, 1
IC: Visiting:   %59 = insertvalue { ptr, ptr, i64, [1 x i64], [1 x i64] } %58, i64 0, 2
IC: Visiting:   %60 = insertvalue { ptr, ptr, i64, [1 x i64], [1 x i64] } %59, i64 %11, 3, 0
IC: Visiting:   %61 = insertvalue { ptr, ptr, i64, [1 x i64], [1 x i64] } %60, i64 1, 4, 0
IC: Visiting:   br label %62
IC: Visiting:   %63 = phi i64 [ %67, %65 ], [ 0, %54 ]
IC: Visiting:   %64 = icmp slt i64 %63, %11
IC: Visiting:   br i1 %64, label %65, label %68
IC: Visiting:   %69 = alloca { ptr, ptr, i64, [1 x i64], [1 x i64] }, i64 1, align 8
IC: Mod =   %69 = alloca { ptr, ptr, i64, [1 x i64], [1 x i64] }, i64 1, align 8
    New =   %69 = alloca { ptr, ptr, i64, [1 x i64], [1 x i64] }, align 8
ADD:   %69 = alloca { ptr, ptr, i64, [1 x i64], [1 x i64] }, align 8
IC: Visiting:   %69 = alloca { ptr, ptr, i64, [1 x i64], [1 x i64] }, align 8
IC: Visiting:   store { ptr, ptr, i64, [1 x i64], [1 x i64] } %61, ptr %69, align 8
ADD DEFERRED:   %.repack = getelementptr inbounds { ptr, ptr, i64, [1 x i64], [1 x i64] }, ptr %69, i32 0, i32 0
ADD DEFERRED:   %.elt = extractvalue { ptr, ptr, i64, [1 x i64], [1 x i64] } %61, 0
ADD DEFERRED:   store ptr %.elt, ptr %.repack, align 8
ADD DEFERRED:   %.repack45 = getelementptr inbounds { ptr, ptr, i64, [1 x i64], [1 x i64] }, ptr %69, i32 0, i32 1
ADD DEFERRED:   %.elt46 = extractvalue { ptr, ptr, i64, [1 x i64], [1 x i64] } %61, 1
ADD DEFERRED:   store ptr %.elt46, ptr %.repack45, align 8
ADD DEFERRED:   %.repack47 = getelementptr inbounds { ptr, ptr, i64, [1 x i64], [1 x i64] }, ptr %69, i32 0, i32 2
ADD DEFERRED:   %.elt48 = extractvalue { ptr, ptr, i64, [1 x i64], [1 x i64] } %61, 2
ADD DEFERRED:   store i64 %.elt48, ptr %.repack47, align 8
ADD DEFERRED:   %.repack49 = getelementptr inbounds { ptr, ptr, i64, [1 x i64], [1 x i64] }, ptr %69, i32 0, i32 3
ADD DEFERRED:   %.elt50 = extractvalue { ptr, ptr, i64, [1 x i64], [1 x i64] } %61, 3
ADD DEFERRED:   store [1 x i64] %.elt50, ptr %.repack49, align 8
ADD DEFERRED:   %.repack51 = getelementptr inbounds { ptr, ptr, i64, [1 x i64], [1 x i64] }, ptr %69, i32 0, i32 4
ADD DEFERRED:   %.elt52 = extractvalue { ptr, ptr, i64, [1 x i64], [1 x i64] } %61, 4
ADD DEFERRED:   store [1 x i64] %.elt52, ptr %.repack51, align 8
IC: ERASE   store { ptr, ptr, i64, [1 x i64], [1 x i64] } %61, ptr %69, align 8
ADD DEFERRED:   %61 = insertvalue { ptr, ptr, i64, [1 x i64], [1 x i64] } %60, i64 1, 4, 0
ADD DEFERRED:   %69 = alloca { ptr, ptr, i64, [1 x i64], [1 x i64] }, align 8
ADD:   %69 = alloca { ptr, ptr, i64, [1 x i64], [1 x i64] }, align 8
ADD:   %61 = insertvalue { ptr, ptr, i64, [1 x i64], [1 x i64] } %60, i64 1, 4, 0
ADD:   store [1 x i64] %.elt52, ptr %.repack51, align 8
ADD:   %.elt52 = extractvalue { ptr, ptr, i64, [1 x i64], [1 x i64] } %61, 4
ADD:   %.repack51 = getelementptr inbounds { ptr, ptr, i64, [1 x i64], [1 x i64] }, ptr %69, i32 0, i32 4
ADD:   store [1 x i64] %.elt50, ptr %.repack49, align 8
ADD:   %.elt50 = extractvalue { ptr, ptr, i64, [1 x i64], [1 x i64] } %61, 3
ADD:   %.repack49 = getelementptr inbounds { ptr, ptr, i64, [1 x i64], [1 x i64] }, ptr %69, i32 0, i32 3
ADD:   store i64 %.elt48, ptr %.repack47, align 8
ADD:   %.elt48 = extractvalue { ptr, ptr, i64, [1 x i64], [1 x i64] } %61, 2
ADD:   %.repack47 = getelementptr inbounds { ptr, ptr, i64, [1 x i64], [1 x i64] }, ptr %69, i32 0, i32 2
ADD:   store ptr %.elt46, ptr %.repack45, align 8
ADD:   %.elt46 = extractvalue { ptr, ptr, i64, [1 x i64], [1 x i64] } %61, 1
ADD:   %.repack45 = getelementptr inbounds { ptr, ptr, i64, [1 x i64], [1 x i64] }, ptr %69, i32 0, i32 1
ADD:   store ptr %.elt, ptr %.repack, align 8
ADD:   %.elt = extractvalue { ptr, ptr, i64, [1 x i64], [1 x i64] } %61, 0
ADD:   %.repack = getelementptr inbounds { ptr, ptr, i64, [1 x i64], [1 x i64] }, ptr %69, i32 0, i32 0
IC: Visiting:   %.repack = getelementptr inbounds { ptr, ptr, i64, [1 x i64], [1 x i64] }, ptr %69, i32 0, i32 0
IC: Replacing   %.repack = getelementptr inbounds { ptr, ptr, i64, [1 x i64], [1 x i64] }, ptr %69, i32 0, i32 0
    with   %69 = alloca { ptr, ptr, i64, [1 x i64], [1 x i64] }, align 8
IC: Mod =   %.repack = getelementptr inbounds { ptr, ptr, i64, [1 x i64], [1 x i64] }, ptr %69, i32 0, i32 0
    New =   %.repack = getelementptr inbounds { ptr, ptr, i64, [1 x i64], [1 x i64] }, ptr %69, i32 0, i32 0
IC: ERASE   %.repack = getelementptr inbounds { ptr, ptr, i64, [1 x i64], [1 x i64] }, ptr %69, i32 0, i32 0
ADD DEFERRED:   %69 = alloca { ptr, ptr, i64, [1 x i64], [1 x i64] }, align 8
IC: Visiting:   %.elt = extractvalue { ptr, ptr, i64, [1 x i64], [1 x i64] } %61, 0
IC: Replacing   %.elt = extractvalue { ptr, ptr, i64, [1 x i64], [1 x i64] } %61, 0
    with   %56 = call ptr @malloc(i64 %.idx44)
IC: Mod =   %.elt = extractvalue { ptr, ptr, i64, [1 x i64], [1 x i64] } %61, 0
    New =   %.elt = extractvalue { ptr, ptr, i64, [1 x i64], [1 x i64] } %61, 0
IC: ERASE   %.elt = extractvalue { ptr, ptr, i64, [1 x i64], [1 x i64] } %61, 0
ADD DEFERRED:   %61 = insertvalue { ptr, ptr, i64, [1 x i64], [1 x i64] } %60, i64 1, 4, 0
IC: Visiting:   store ptr %56, ptr %69, align 8
IC: Visiting:   %.repack45 = getelementptr inbounds { ptr, ptr, i64, [1 x i64], [1 x i64] }, ptr %69, i32 0, i32 1
IC: Mod =   %.repack45 = getelementptr inbounds { ptr, ptr, i64, [1 x i64], [1 x i64] }, ptr %69, i32 0, i32 1
    New =   %.repack45 = getelementptr inbounds { ptr, ptr, i64, [1 x i64], [1 x i64] }, ptr %69, i64 0, i32 1
ADD:   %.repack45 = getelementptr inbounds { ptr, ptr, i64, [1 x i64], [1 x i64] }, ptr %69, i64 0, i32 1
IC: Visiting:   %.repack45 = getelementptr inbounds { ptr, ptr, i64, [1 x i64], [1 x i64] }, ptr %69, i64 0, i32 1
IC: Visiting:   %.elt46 = extractvalue { ptr, ptr, i64, [1 x i64], [1 x i64] } %61, 1
IC: Replacing   %.elt46 = extractvalue { ptr, ptr, i64, [1 x i64], [1 x i64] } %61, 1
    with   %56 = call ptr @malloc(i64 %.idx44)
IC: Mod =   %.elt46 = extractvalue { ptr, ptr, i64, [1 x i64], [1 x i64] } %61, 1
    New =   %.elt46 = extractvalue { ptr, ptr, i64, [1 x i64], [1 x i64] } %61, 1
IC: ERASE   %.elt46 = extractvalue { ptr, ptr, i64, [1 x i64], [1 x i64] } %61, 1
ADD DEFERRED:   %61 = insertvalue { ptr, ptr, i64, [1 x i64], [1 x i64] } %60, i64 1, 4, 0
IC: Visiting:   store ptr %56, ptr %.repack45, align 8
IC: Visiting:   %.repack47 = getelementptr inbounds { ptr, ptr, i64, [1 x i64], [1 x i64] }, ptr %69, i32 0, i32 2
IC: Mod =   %.repack47 = getelementptr inbounds { ptr, ptr, i64, [1 x i64], [1 x i64] }, ptr %69, i32 0, i32 2
    New =   %.repack47 = getelementptr inbounds { ptr, ptr, i64, [1 x i64], [1 x i64] }, ptr %69, i64 0, i32 2
ADD:   %.repack47 = getelementptr inbounds { ptr, ptr, i64, [1 x i64], [1 x i64] }, ptr %69, i64 0, i32 2
IC: Visiting:   %.repack47 = getelementptr inbounds { ptr, ptr, i64, [1 x i64], [1 x i64] }, ptr %69, i64 0, i32 2
IC: Visiting:   %.elt48 = extractvalue { ptr, ptr, i64, [1 x i64], [1 x i64] } %61, 2
IC: Replacing   %.elt48 = extractvalue { ptr, ptr, i64, [1 x i64], [1 x i64] } %61, 2
    with i64 0
IC: Mod =   %.elt48 = extractvalue { ptr, ptr, i64, [1 x i64], [1 x i64] } %61, 2
    New =   %.elt48 = extractvalue { ptr, ptr, i64, [1 x i64], [1 x i64] } %61, 2
IC: ERASE   %.elt48 = extractvalue { ptr, ptr, i64, [1 x i64], [1 x i64] } %61, 2
ADD DEFERRED:   %61 = insertvalue { ptr, ptr, i64, [1 x i64], [1 x i64] } %60, i64 1, 4, 0
IC: Visiting:   store i64 0, ptr %.repack47, align 8
IC: Visiting:   %.repack49 = getelementptr inbounds { ptr, ptr, i64, [1 x i64], [1 x i64] }, ptr %69, i32 0, i32 3
IC: Mod =   %.repack49 = getelementptr inbounds { ptr, ptr, i64, [1 x i64], [1 x i64] }, ptr %69, i32 0, i32 3
    New =   %.repack49 = getelementptr inbounds { ptr, ptr, i64, [1 x i64], [1 x i64] }, ptr %69, i64 0, i32 3
ADD:   %.repack49 = getelementptr inbounds { ptr, ptr, i64, [1 x i64], [1 x i64] }, ptr %69, i64 0, i32 3
IC: Visiting:   %.repack49 = getelementptr inbounds { ptr, ptr, i64, [1 x i64], [1 x i64] }, ptr %69, i64 0, i32 3
IC: Visiting:   %.elt50 = extractvalue { ptr, ptr, i64, [1 x i64], [1 x i64] } %61, 3
IC: Old =   %.elt50 = extractvalue { ptr, ptr, i64, [1 x i64], [1 x i64] } %61, 3
    New =   <badref> = extractvalue { ptr, ptr, i64, [1 x i64], [1 x i64] } %60, 3
ADD:   %.elt50 = extractvalue { ptr, ptr, i64, [1 x i64], [1 x i64] } %60, 3
IC: ERASE   %70 = extractvalue { ptr, ptr, i64, [1 x i64], [1 x i64] } %61, 3
ADD DEFERRED:   %61 = insertvalue { ptr, ptr, i64, [1 x i64], [1 x i64] } %60, i64 1, 4, 0
IC: Visiting:   %.elt50 = extractvalue { ptr, ptr, i64, [1 x i64], [1 x i64] } %60, 3
ADD DEFERRED:   %70 = extractvalue { ptr, ptr, i64, [1 x i64], [1 x i64] } %59, 3
IC: Old =   %.elt50 = extractvalue { ptr, ptr, i64, [1 x i64], [1 x i64] } %60, 3
    New =   <badref> = insertvalue [1 x i64] %70, i64 %11, 0
ADD:   %.elt50 = insertvalue [1 x i64] %70, i64 %11, 0
IC: ERASE   %71 = extractvalue { ptr, ptr, i64, [1 x i64], [1 x i64] } %60, 3
ADD DEFERRED:   %60 = insertvalue { ptr, ptr, i64, [1 x i64], [1 x i64] } %59, i64 %11, 3, 0
ADD:   %60 = insertvalue { ptr, ptr, i64, [1 x i64], [1 x i64] } %59, i64 %11, 3, 0
ADD:   %70 = extractvalue { ptr, ptr, i64, [1 x i64], [1 x i64] } %59, 3
IC: Visiting:   %70 = extractvalue { ptr, ptr, i64, [1 x i64], [1 x i64] } %59, 3
IC: Old =   %70 = extractvalue { ptr, ptr, i64, [1 x i64], [1 x i64] } %59, 3
    New =   <badref> = extractvalue { ptr, ptr, i64, [1 x i64], [1 x i64] } %58, 3
ADD:   %70 = extractvalue { ptr, ptr, i64, [1 x i64], [1 x i64] } %58, 3
IC: ERASE   %71 = extractvalue { ptr, ptr, i64, [1 x i64], [1 x i64] } %59, 3
ADD DEFERRED:   %59 = insertvalue { ptr, ptr, i64, [1 x i64], [1 x i64] } %58, i64 0, 2
ADD:   %59 = insertvalue { ptr, ptr, i64, [1 x i64], [1 x i64] } %58, i64 0, 2
IC: Visiting:   %59 = insertvalue { ptr, ptr, i64, [1 x i64], [1 x i64] } %58, i64 0, 2
IC: Visiting:   %70 = extractvalue { ptr, ptr, i64, [1 x i64], [1 x i64] } %58, 3
IC: Old =   %70 = extractvalue { ptr, ptr, i64, [1 x i64], [1 x i64] } %58, 3
    New =   <badref> = extractvalue { ptr, ptr, i64, [1 x i64], [1 x i64] } %57, 3
ADD:   %70 = extractvalue { ptr, ptr, i64, [1 x i64], [1 x i64] } %57, 3
IC: ERASE   %71 = extractvalue { ptr, ptr, i64, [1 x i64], [1 x i64] } %58, 3
ADD DEFERRED:   %58 = insertvalue { ptr, ptr, i64, [1 x i64], [1 x i64] } %57, ptr %56, 1
ADD:   %58 = insertvalue { ptr, ptr, i64, [1 x i64], [1 x i64] } %57, ptr %56, 1
IC: Visiting:   %58 = insertvalue { ptr, ptr, i64, [1 x i64], [1 x i64] } %57, ptr %56, 1
IC: Visiting:   %70 = extractvalue { ptr, ptr, i64, [1 x i64], [1 x i64] } %57, 3
IC: Old =   %70 = extractvalue { ptr, ptr, i64, [1 x i64], [1 x i64] } %57, 3
    New =   <badref> = extractvalue { ptr, ptr, i64, [1 x i64], [1 x i64] } undef, 3
ADD:   %70 = extractvalue { ptr, ptr, i64, [1 x i64], [1 x i64] } undef, 3
IC: ERASE   %71 = extractvalue { ptr, ptr, i64, [1 x i64], [1 x i64] } %57, 3
ADD DEFERRED:   %57 = insertvalue { ptr, ptr, i64, [1 x i64], [1 x i64] } undef, ptr %56, 0
ADD:   %57 = insertvalue { ptr, ptr, i64, [1 x i64], [1 x i64] } undef, ptr %56, 0
IC: Visiting:   %57 = insertvalue { ptr, ptr, i64, [1 x i64], [1 x i64] } undef, ptr %56, 0
IC: ConstFold to: [1 x i64] undef from:   %70 = extractvalue { ptr, ptr, i64, [1 x i64], [1 x i64] } undef, 3
IC: Replacing   %70 = extractvalue { ptr, ptr, i64, [1 x i64], [1 x i64] } undef, 3
    with [1 x i64] undef
IC: ERASE   %70 = extractvalue { ptr, ptr, i64, [1 x i64], [1 x i64] } undef, 3
IC: Visiting:   %60 = insertvalue { ptr, ptr, i64, [1 x i64], [1 x i64] } %59, i64 %11, 3, 0
IC: Visiting:   %.elt50 = insertvalue [1 x i64] undef, i64 %11, 0
IC: Visiting:   store [1 x i64] %.elt50, ptr %.repack49, align 8
ADD DEFERRED:   %70 = extractvalue [1 x i64] %.elt50, 0
ADD DEFERRED:   store i64 %70, ptr %.repack49, align 8
IC: ERASE   store [1 x i64] %.elt50, ptr %.repack49, align 8
ADD DEFERRED:   %.elt50 = insertvalue [1 x i64] undef, i64 %11, 0
ADD DEFERRED:   %.repack49 = getelementptr inbounds { ptr, ptr, i64, [1 x i64], [1 x i64] }, ptr %69, i64 0, i32 3
ADD:   %.repack49 = getelementptr inbounds { ptr, ptr, i64, [1 x i64], [1 x i64] }, ptr %69, i64 0, i32 3
ADD:   %.elt50 = insertvalue [1 x i64] undef, i64 %11, 0
ADD:   store i64 %70, ptr %.repack49, align 8
ADD:   %70 = extractvalue [1 x i64] %.elt50, 0
IC: Visiting:   %70 = extractvalue [1 x i64] %.elt50, 0
IC: Replacing   %70 = extractvalue [1 x i64] %.elt50, 0
    with   %11 = load i64, ptr %10, align 4
IC: Mod =   %70 = extractvalue [1 x i64] %.elt50, 0
    New =   %70 = extractvalue [1 x i64] %.elt50, 0
IC: ERASE   %70 = extractvalue [1 x i64] %.elt50, 0
ADD DEFERRED:   %.elt50 = insertvalue [1 x i64] undef, i64 %11, 0
IC: ERASE   %.elt50 = insertvalue [1 x i64] undef, i64 %11, 0
ADD DEFERRED:   %11 = load i64, ptr %10, align 4
ADD:   %11 = load i64, ptr %10, align 4
IC: Visiting:   %11 = load i64, ptr %10, align 4
IC: Visiting:   store i64 %11, ptr %.repack49, align 8
IC: Visiting:   %.repack49 = getelementptr inbounds { ptr, ptr, i64, [1 x i64], [1 x i64] }, ptr %69, i64 0, i32 3
IC: Visiting:   %.repack51 = getelementptr inbounds { ptr, ptr, i64, [1 x i64], [1 x i64] }, ptr %69, i32 0, i32 4
IC: Mod =   %.repack51 = getelementptr inbounds { ptr, ptr, i64, [1 x i64], [1 x i64] }, ptr %69, i32 0, i32 4
    New =   %.repack51 = getelementptr inbounds { ptr, ptr, i64, [1 x i64], [1 x i64] }, ptr %69, i64 0, i32 4
ADD:   %.repack51 = getelementptr inbounds { ptr, ptr, i64, [1 x i64], [1 x i64] }, ptr %69, i64 0, i32 4
IC: Visiting:   %.repack51 = getelementptr inbounds { ptr, ptr, i64, [1 x i64], [1 x i64] }, ptr %69, i64 0, i32 4
IC: Visiting:   %.elt52 = extractvalue { ptr, ptr, i64, [1 x i64], [1 x i64] } %61, 4
ADD DEFERRED:   %70 = extractvalue { ptr, ptr, i64, [1 x i64], [1 x i64] } %60, 4
IC: Old =   %.elt52 = extractvalue { ptr, ptr, i64, [1 x i64], [1 x i64] } %61, 4
    New =   <badref> = insertvalue [1 x i64] %70, i64 1, 0
ADD:   %.elt52 = insertvalue [1 x i64] %70, i64 1, 0
IC: ERASE   %71 = extractvalue { ptr, ptr, i64, [1 x i64], [1 x i64] } %61, 4
ADD DEFERRED:   %61 = insertvalue { ptr, ptr, i64, [1 x i64], [1 x i64] } %60, i64 1, 4, 0
IC: ERASE   %61 = insertvalue { ptr, ptr, i64, [1 x i64], [1 x i64] } %60, i64 1, 4, 0
ADD DEFERRED:   %60 = insertvalue { ptr, ptr, i64, [1 x i64], [1 x i64] } %59, i64 %11, 3, 0
ADD:   %60 = insertvalue { ptr, ptr, i64, [1 x i64], [1 x i64] } %59, i64 %11, 3, 0
ADD:   %69 = extractvalue { ptr, ptr, i64, [1 x i64], [1 x i64] } %60, 4
IC: Visiting:   %69 = extractvalue { ptr, ptr, i64, [1 x i64], [1 x i64] } %60, 4
IC: Old =   %69 = extractvalue { ptr, ptr, i64, [1 x i64], [1 x i64] } %60, 4
    New =   <badref> = extractvalue { ptr, ptr, i64, [1 x i64], [1 x i64] } %59, 4
ADD:   %69 = extractvalue { ptr, ptr, i64, [1 x i64], [1 x i64] } %59, 4
IC: ERASE   %70 = extractvalue { ptr, ptr, i64, [1 x i64], [1 x i64] } %60, 4
ADD DEFERRED:   %60 = insertvalue { ptr, ptr, i64, [1 x i64], [1 x i64] } %59, i64 %11, 3, 0
IC: ERASE   %60 = insertvalue { ptr, ptr, i64, [1 x i64], [1 x i64] } %59, i64 %11, 3, 0
ADD DEFERRED:   %59 = insertvalue { ptr, ptr, i64, [1 x i64], [1 x i64] } %58, i64 0, 2
ADD DEFERRED:   %11 = load i64, ptr %10, align 4
ADD:   %11 = load i64, ptr %10, align 4
ADD:   %59 = insertvalue { ptr, ptr, i64, [1 x i64], [1 x i64] } %58, i64 0, 2
IC: Visiting:   %59 = insertvalue { ptr, ptr, i64, [1 x i64], [1 x i64] } %58, i64 0, 2
IC: Visiting:   %11 = load i64, ptr %10, align 4
IC: Visiting:   %68 = extractvalue { ptr, ptr, i64, [1 x i64], [1 x i64] } %59, 4
IC: Old =   %68 = extractvalue { ptr, ptr, i64, [1 x i64], [1 x i64] } %59, 4
    New =   <badref> = extractvalue { ptr, ptr, i64, [1 x i64], [1 x i64] } %58, 4
ADD:   %68 = extractvalue { ptr, ptr, i64, [1 x i64], [1 x i64] } %58, 4
IC: ERASE   %69 = extractvalue { ptr, ptr, i64, [1 x i64], [1 x i64] } %59, 4
ADD DEFERRED:   %59 = insertvalue { ptr, ptr, i64, [1 x i64], [1 x i64] } %58, i64 0, 2
IC: ERASE   %59 = insertvalue { ptr, ptr, i64, [1 x i64], [1 x i64] } %58, i64 0, 2
ADD DEFERRED:   %58 = insertvalue { ptr, ptr, i64, [1 x i64], [1 x i64] } %57, ptr %56, 1
ADD:   %58 = insertvalue { ptr, ptr, i64, [1 x i64], [1 x i64] } %57, ptr %56, 1
IC: Visiting:   %58 = insertvalue { ptr, ptr, i64, [1 x i64], [1 x i64] } %57, ptr %56, 1
IC: Visiting:   %67 = extractvalue { ptr, ptr, i64, [1 x i64], [1 x i64] } %58, 4
IC: Old =   %67 = extractvalue { ptr, ptr, i64, [1 x i64], [1 x i64] } %58, 4
    New =   <badref> = extractvalue { ptr, ptr, i64, [1 x i64], [1 x i64] } %57, 4
ADD:   %67 = extractvalue { ptr, ptr, i64, [1 x i64], [1 x i64] } %57, 4
IC: ERASE   %68 = extractvalue { ptr, ptr, i64, [1 x i64], [1 x i64] } %58, 4
ADD DEFERRED:   %58 = insertvalue { ptr, ptr, i64, [1 x i64], [1 x i64] } %57, ptr %56, 1
IC: ERASE   %58 = insertvalue { ptr, ptr, i64, [1 x i64], [1 x i64] } %57, ptr %56, 1
ADD DEFERRED:   %57 = insertvalue { ptr, ptr, i64, [1 x i64], [1 x i64] } undef, ptr %56, 0
ADD DEFERRED:   %56 = call ptr @malloc(i64 %.idx44)
ADD:   %56 = call ptr @malloc(i64 %.idx44)
ADD:   %57 = insertvalue { ptr, ptr, i64, [1 x i64], [1 x i64] } undef, ptr %56, 0
IC: Visiting:   %57 = insertvalue { ptr, ptr, i64, [1 x i64], [1 x i64] } undef, ptr %56, 0
IC: Visiting:   %56 = call ptr @malloc(i64 %.idx44)
IC: Visiting:   %66 = extractvalue { ptr, ptr, i64, [1 x i64], [1 x i64] } %57, 4
IC: Old =   %66 = extractvalue { ptr, ptr, i64, [1 x i64], [1 x i64] } %57, 4
    New =   <badref> = extractvalue { ptr, ptr, i64, [1 x i64], [1 x i64] } undef, 4
ADD:   %66 = extractvalue { ptr, ptr, i64, [1 x i64], [1 x i64] } undef, 4
IC: ERASE   %67 = extractvalue { ptr, ptr, i64, [1 x i64], [1 x i64] } %57, 4
ADD DEFERRED:   %57 = insertvalue { ptr, ptr, i64, [1 x i64], [1 x i64] } undef, ptr %56, 0
IC: ERASE   %57 = insertvalue { ptr, ptr, i64, [1 x i64], [1 x i64] } undef, ptr %56, 0
ADD DEFERRED:   %56 = call ptr @malloc(i64 %.idx44)
ADD:   %56 = call ptr @malloc(i64 %.idx44)
IC: Visiting:   %56 = call ptr @malloc(i64 %.idx44)
IC: ConstFold to: [1 x i64] undef from:   %65 = extractvalue { ptr, ptr, i64, [1 x i64], [1 x i64] } undef, 4
IC: Replacing   %65 = extractvalue { ptr, ptr, i64, [1 x i64], [1 x i64] } undef, 4
    with [1 x i64] undef
IC: ERASE   %65 = extractvalue { ptr, ptr, i64, [1 x i64], [1 x i64] } undef, 4
IC: ConstFold to: [1 x i64] [i64 1] from:   %.elt52 = insertvalue [1 x i64] undef, i64 1, 0
IC: Replacing   %.elt52 = insertvalue [1 x i64] undef, i64 1, 0
    with [1 x i64] [i64 1]
IC: ERASE   %.elt52 = insertvalue [1 x i64] undef, i64 1, 0
IC: Visiting:   store [1 x i64] [i64 1], ptr %.repack51, align 8
ADD DEFERRED:   store i64 1, ptr %.repack51, align 8
IC: ERASE   store [1 x i64] [i64 1], ptr %.repack51, align 8
ADD DEFERRED:   %.repack51 = getelementptr inbounds { ptr, ptr, i64, [1 x i64], [1 x i64] }, ptr %64, i64 0, i32 4
ADD:   %.repack51 = getelementptr inbounds { ptr, ptr, i64, [1 x i64], [1 x i64] }, ptr %64, i64 0, i32 4
ADD:   store i64 1, ptr %.repack51, align 8
IC: Visiting:   store i64 1, ptr %.repack51, align 8
IC: Visiting:   %.repack51 = getelementptr inbounds { ptr, ptr, i64, [1 x i64], [1 x i64] }, ptr %64, i64 0, i32 4
IC: Visiting:   %64 = alloca { ptr, ptr, i64, [1 x i64], [1 x i64] }, align 8
IC: Visiting:   %65 = getelementptr i64, ptr null, i64 %13
IC: Visiting:   %66 = ptrtoint ptr %65 to i64
ADD DEFERRED:   %.idx53 = mul i64 %13, 8
IC: Replacing   %66 = ptrtoint ptr %65 to i64
    with   %.idx53 = mul i64 %13, 8
IC: Mod =   %66 = ptrtoint ptr %65 to i64
    New =   %66 = ptrtoint ptr %65 to i64
IC: ERASE   %66 = ptrtoint ptr %65 to i64
ADD DEFERRED:   %65 = getelementptr i64, ptr null, i64 %13
IC: ERASE   %65 = getelementptr i64, ptr null, i64 %13
ADD DEFERRED:   %13 = load i64, ptr %12, align 4
ADD:   %13 = load i64, ptr %12, align 4
ADD:   %.idx53 = mul i64 %13, 8
IC: Visiting:   %.idx53 = mul i64 %13, 8
IC: Old =   %.idx53 = mul i64 %13, 8
    New =   <badref> = shl i64 %13, 3
ADD:   %.idx53 = shl i64 %13, 3
IC: ERASE   %65 = mul i64 %13, 8
ADD DEFERRED:   %13 = load i64, ptr %12, align 4
IC: Visiting:   %.idx53 = shl i64 %13, 3
IC: Visiting:   %13 = load i64, ptr %12, align 4
IC: Visiting:   %65 = call ptr @malloc(i64 %.idx53)
IC: Visiting:   %66 = insertvalue { ptr, ptr, i64, [1 x i64], [1 x i64] } undef, ptr %65, 0
IC: Visiting:   %67 = insertvalue { ptr, ptr, i64, [1 x i64], [1 x i64] } %66, ptr %65, 1
IC: Visiting:   %68 = insertvalue { ptr, ptr, i64, [1 x i64], [1 x i64] } %67, i64 0, 2
IC: Visiting:   %69 = insertvalue { ptr, ptr, i64, [1 x i64], [1 x i64] } %68, i64 %13, 3, 0
IC: Visiting:   %70 = insertvalue { ptr, ptr, i64, [1 x i64], [1 x i64] } %69, i64 1, 4, 0
IC: Visiting:   br label %71
IC: Visiting:   %72 = phi i64 [ %76, %74 ], [ 0, %63 ]
IC: Visiting:   %73 = icmp slt i64 %72, %13
IC: Visiting:   br i1 %73, label %74, label %77
IC: Visiting:   %78 = alloca { ptr, ptr, i64, [1 x i64], [1 x i64] }, i64 1, align 8
IC: Mod =   %78 = alloca { ptr, ptr, i64, [1 x i64], [1 x i64] }, i64 1, align 8
    New =   %78 = alloca { ptr, ptr, i64, [1 x i64], [1 x i64] }, align 8
ADD:   %78 = alloca { ptr, ptr, i64, [1 x i64], [1 x i64] }, align 8
IC: Visiting:   %78 = alloca { ptr, ptr, i64, [1 x i64], [1 x i64] }, align 8
IC: Visiting:   store { ptr, ptr, i64, [1 x i64], [1 x i64] } %70, ptr %78, align 8
ADD DEFERRED:   %.repack = getelementptr inbounds { ptr, ptr, i64, [1 x i64], [1 x i64] }, ptr %78, i32 0, i32 0
ADD DEFERRED:   %.elt = extractvalue { ptr, ptr, i64, [1 x i64], [1 x i64] } %70, 0
ADD DEFERRED:   store ptr %.elt, ptr %.repack, align 8
ADD DEFERRED:   %.repack54 = getelementptr inbounds { ptr, ptr, i64, [1 x i64], [1 x i64] }, ptr %78, i32 0, i32 1
ADD DEFERRED:   %.elt55 = extractvalue { ptr, ptr, i64, [1 x i64], [1 x i64] } %70, 1
ADD DEFERRED:   store ptr %.elt55, ptr %.repack54, align 8
ADD DEFERRED:   %.repack56 = getelementptr inbounds { ptr, ptr, i64, [1 x i64], [1 x i64] }, ptr %78, i32 0, i32 2
ADD DEFERRED:   %.elt57 = extractvalue { ptr, ptr, i64, [1 x i64], [1 x i64] } %70, 2
ADD DEFERRED:   store i64 %.elt57, ptr %.repack56, align 8
ADD DEFERRED:   %.repack58 = getelementptr inbounds { ptr, ptr, i64, [1 x i64], [1 x i64] }, ptr %78, i32 0, i32 3
ADD DEFERRED:   %.elt59 = extractvalue { ptr, ptr, i64, [1 x i64], [1 x i64] } %70, 3
ADD DEFERRED:   store [1 x i64] %.elt59, ptr %.repack58, align 8
ADD DEFERRED:   %.repack60 = getelementptr inbounds { ptr, ptr, i64, [1 x i64], [1 x i64] }, ptr %78, i32 0, i32 4
ADD DEFERRED:   %.elt61 = extractvalue { ptr, ptr, i64, [1 x i64], [1 x i64] } %70, 4
ADD DEFERRED:   store [1 x i64] %.elt61, ptr %.repack60, align 8
IC: ERASE   store { ptr, ptr, i64, [1 x i64], [1 x i64] } %70, ptr %78, align 8
ADD DEFERRED:   %70 = insertvalue { ptr, ptr, i64, [1 x i64], [1 x i64] } %69, i64 1, 4, 0
ADD DEFERRED:   %78 = alloca { ptr, ptr, i64, [1 x i64], [1 x i64] }, align 8
ADD:   %78 = alloca { ptr, ptr, i64, [1 x i64], [1 x i64] }, align 8
ADD:   %70 = insertvalue { ptr, ptr, i64, [1 x i64], [1 x i64] } %69, i64 1, 4, 0
ADD:   store [1 x i64] %.elt61, ptr %.repack60, align 8
ADD:   %.elt61 = extractvalue { ptr, ptr, i64, [1 x i64], [1 x i64] } %70, 4
ADD:   %.repack60 = getelementptr inbounds { ptr, ptr, i64, [1 x i64], [1 x i64] }, ptr %78, i32 0, i32 4
ADD:   store [1 x i64] %.elt59, ptr %.repack58, align 8
ADD:   %.elt59 = extractvalue { ptr, ptr, i64, [1 x i64], [1 x i64] } %70, 3
ADD:   %.repack58 = getelementptr inbounds { ptr, ptr, i64, [1 x i64], [1 x i64] }, ptr %78, i32 0, i32 3
ADD:   store i64 %.elt57, ptr %.repack56, align 8
ADD:   %.elt57 = extractvalue { ptr, ptr, i64, [1 x i64], [1 x i64] } %70, 2
ADD:   %.repack56 = getelementptr inbounds { ptr, ptr, i64, [1 x i64], [1 x i64] }, ptr %78, i32 0, i32 2
ADD:   store ptr %.elt55, ptr %.repack54, align 8
ADD:   %.elt55 = extractvalue { ptr, ptr, i64, [1 x i64], [1 x i64] } %70, 1
ADD:   %.repack54 = getelementptr inbounds { ptr, ptr, i64, [1 x i64], [1 x i64] }, ptr %78, i32 0, i32 1
ADD:   store ptr %.elt, ptr %.repack, align 8
ADD:   %.elt = extractvalue { ptr, ptr, i64, [1 x i64], [1 x i64] } %70, 0
ADD:   %.repack = getelementptr inbounds { ptr, ptr, i64, [1 x i64], [1 x i64] }, ptr %78, i32 0, i32 0
IC: Visiting:   %.repack = getelementptr inbounds { ptr, ptr, i64, [1 x i64], [1 x i64] }, ptr %78, i32 0, i32 0
IC: Replacing   %.repack = getelementptr inbounds { ptr, ptr, i64, [1 x i64], [1 x i64] }, ptr %78, i32 0, i32 0
    with   %78 = alloca { ptr, ptr, i64, [1 x i64], [1 x i64] }, align 8
IC: Mod =   %.repack = getelementptr inbounds { ptr, ptr, i64, [1 x i64], [1 x i64] }, ptr %78, i32 0, i32 0
    New =   %.repack = getelementptr inbounds { ptr, ptr, i64, [1 x i64], [1 x i64] }, ptr %78, i32 0, i32 0
IC: ERASE   %.repack = getelementptr inbounds { ptr, ptr, i64, [1 x i64], [1 x i64] }, ptr %78, i32 0, i32 0
ADD DEFERRED:   %78 = alloca { ptr, ptr, i64, [1 x i64], [1 x i64] }, align 8
IC: Visiting:   %.elt = extractvalue { ptr, ptr, i64, [1 x i64], [1 x i64] } %70, 0
IC: Replacing   %.elt = extractvalue { ptr, ptr, i64, [1 x i64], [1 x i64] } %70, 0
    with   %65 = call ptr @malloc(i64 %.idx53)
IC: Mod =   %.elt = extractvalue { ptr, ptr, i64, [1 x i64], [1 x i64] } %70, 0
    New =   %.elt = extractvalue { ptr, ptr, i64, [1 x i64], [1 x i64] } %70, 0
IC: ERASE   %.elt = extractvalue { ptr, ptr, i64, [1 x i64], [1 x i64] } %70, 0
ADD DEFERRED:   %70 = insertvalue { ptr, ptr, i64, [1 x i64], [1 x i64] } %69, i64 1, 4, 0
IC: Visiting:   store ptr %65, ptr %78, align 8
IC: Visiting:   %.repack54 = getelementptr inbounds { ptr, ptr, i64, [1 x i64], [1 x i64] }, ptr %78, i32 0, i32 1
IC: Mod =   %.repack54 = getelementptr inbounds { ptr, ptr, i64, [1 x i64], [1 x i64] }, ptr %78, i32 0, i32 1
    New =   %.repack54 = getelementptr inbounds { ptr, ptr, i64, [1 x i64], [1 x i64] }, ptr %78, i64 0, i32 1
ADD:   %.repack54 = getelementptr inbounds { ptr, ptr, i64, [1 x i64], [1 x i64] }, ptr %78, i64 0, i32 1
IC: Visiting:   %.repack54 = getelementptr inbounds { ptr, ptr, i64, [1 x i64], [1 x i64] }, ptr %78, i64 0, i32 1
IC: Visiting:   %.elt55 = extractvalue { ptr, ptr, i64, [1 x i64], [1 x i64] } %70, 1
IC: Replacing   %.elt55 = extractvalue { ptr, ptr, i64, [1 x i64], [1 x i64] } %70, 1
    with   %65 = call ptr @malloc(i64 %.idx53)
IC: Mod =   %.elt55 = extractvalue { ptr, ptr, i64, [1 x i64], [1 x i64] } %70, 1
    New =   %.elt55 = extractvalue { ptr, ptr, i64, [1 x i64], [1 x i64] } %70, 1
IC: ERASE   %.elt55 = extractvalue { ptr, ptr, i64, [1 x i64], [1 x i64] } %70, 1
ADD DEFERRED:   %70 = insertvalue { ptr, ptr, i64, [1 x i64], [1 x i64] } %69, i64 1, 4, 0
IC: Visiting:   store ptr %65, ptr %.repack54, align 8
IC: Visiting:   %.repack56 = getelementptr inbounds { ptr, ptr, i64, [1 x i64], [1 x i64] }, ptr %78, i32 0, i32 2
IC: Mod =   %.repack56 = getelementptr inbounds { ptr, ptr, i64, [1 x i64], [1 x i64] }, ptr %78, i32 0, i32 2
    New =   %.repack56 = getelementptr inbounds { ptr, ptr, i64, [1 x i64], [1 x i64] }, ptr %78, i64 0, i32 2
ADD:   %.repack56 = getelementptr inbounds { ptr, ptr, i64, [1 x i64], [1 x i64] }, ptr %78, i64 0, i32 2
IC: Visiting:   %.repack56 = getelementptr inbounds { ptr, ptr, i64, [1 x i64], [1 x i64] }, ptr %78, i64 0, i32 2
IC: Visiting:   %.elt57 = extractvalue { ptr, ptr, i64, [1 x i64], [1 x i64] } %70, 2
IC: Replacing   %.elt57 = extractvalue { ptr, ptr, i64, [1 x i64], [1 x i64] } %70, 2
    with i64 0
IC: Mod =   %.elt57 = extractvalue { ptr, ptr, i64, [1 x i64], [1 x i64] } %70, 2
    New =   %.elt57 = extractvalue { ptr, ptr, i64, [1 x i64], [1 x i64] } %70, 2
IC: ERASE   %.elt57 = extractvalue { ptr, ptr, i64, [1 x i64], [1 x i64] } %70, 2
ADD DEFERRED:   %70 = insertvalue { ptr, ptr, i64, [1 x i64], [1 x i64] } %69, i64 1, 4, 0
IC: Visiting:   store i64 0, ptr %.repack56, align 8
IC: Visiting:   %.repack58 = getelementptr inbounds { ptr, ptr, i64, [1 x i64], [1 x i64] }, ptr %78, i32 0, i32 3
IC: Mod =   %.repack58 = getelementptr inbounds { ptr, ptr, i64, [1 x i64], [1 x i64] }, ptr %78, i32 0, i32 3
    New =   %.repack58 = getelementptr inbounds { ptr, ptr, i64, [1 x i64], [1 x i64] }, ptr %78, i64 0, i32 3
ADD:   %.repack58 = getelementptr inbounds { ptr, ptr, i64, [1 x i64], [1 x i64] }, ptr %78, i64 0, i32 3
IC: Visiting:   %.repack58 = getelementptr inbounds { ptr, ptr, i64, [1 x i64], [1 x i64] }, ptr %78, i64 0, i32 3
IC: Visiting:   %.elt59 = extractvalue { ptr, ptr, i64, [1 x i64], [1 x i64] } %70, 3
IC: Old =   %.elt59 = extractvalue { ptr, ptr, i64, [1 x i64], [1 x i64] } %70, 3
    New =   <badref> = extractvalue { ptr, ptr, i64, [1 x i64], [1 x i64] } %69, 3
ADD:   %.elt59 = extractvalue { ptr, ptr, i64, [1 x i64], [1 x i64] } %69, 3
IC: ERASE   %79 = extractvalue { ptr, ptr, i64, [1 x i64], [1 x i64] } %70, 3
ADD DEFERRED:   %70 = insertvalue { ptr, ptr, i64, [1 x i64], [1 x i64] } %69, i64 1, 4, 0
IC: Visiting:   %.elt59 = extractvalue { ptr, ptr, i64, [1 x i64], [1 x i64] } %69, 3
ADD DEFERRED:   %79 = extractvalue { ptr, ptr, i64, [1 x i64], [1 x i64] } %68, 3
IC: Old =   %.elt59 = extractvalue { ptr, ptr, i64, [1 x i64], [1 x i64] } %69, 3
    New =   <badref> = insertvalue [1 x i64] %79, i64 %13, 0
ADD:   %.elt59 = insertvalue [1 x i64] %79, i64 %13, 0
IC: ERASE   %80 = extractvalue { ptr, ptr, i64, [1 x i64], [1 x i64] } %69, 3
ADD DEFERRED:   %69 = insertvalue { ptr, ptr, i64, [1 x i64], [1 x i64] } %68, i64 %13, 3, 0
ADD:   %69 = insertvalue { ptr, ptr, i64, [1 x i64], [1 x i64] } %68, i64 %13, 3, 0
ADD:   %79 = extractvalue { ptr, ptr, i64, [1 x i64], [1 x i64] } %68, 3
IC: Visiting:   %79 = extractvalue { ptr, ptr, i64, [1 x i64], [1 x i64] } %68, 3
IC: Old =   %79 = extractvalue { ptr, ptr, i64, [1 x i64], [1 x i64] } %68, 3
    New =   <badref> = extractvalue { ptr, ptr, i64, [1 x i64], [1 x i64] } %67, 3
ADD:   %79 = extractvalue { ptr, ptr, i64, [1 x i64], [1 x i64] } %67, 3
IC: ERASE   %80 = extractvalue { ptr, ptr, i64, [1 x i64], [1 x i64] } %68, 3
ADD DEFERRED:   %68 = insertvalue { ptr, ptr, i64, [1 x i64], [1 x i64] } %67, i64 0, 2
ADD:   %68 = insertvalue { ptr, ptr, i64, [1 x i64], [1 x i64] } %67, i64 0, 2
IC: Visiting:   %68 = insertvalue { ptr, ptr, i64, [1 x i64], [1 x i64] } %67, i64 0, 2
IC: Visiting:   %79 = extractvalue { ptr, ptr, i64, [1 x i64], [1 x i64] } %67, 3
IC: Old =   %79 = extractvalue { ptr, ptr, i64, [1 x i64], [1 x i64] } %67, 3
    New =   <badref> = extractvalue { ptr, ptr, i64, [1 x i64], [1 x i64] } %66, 3
ADD:   %79 = extractvalue { ptr, ptr, i64, [1 x i64], [1 x i64] } %66, 3
IC: ERASE   %80 = extractvalue { ptr, ptr, i64, [1 x i64], [1 x i64] } %67, 3
ADD DEFERRED:   %67 = insertvalue { ptr, ptr, i64, [1 x i64], [1 x i64] } %66, ptr %65, 1
ADD:   %67 = insertvalue { ptr, ptr, i64, [1 x i64], [1 x i64] } %66, ptr %65, 1
IC: Visiting:   %67 = insertvalue { ptr, ptr, i64, [1 x i64], [1 x i64] } %66, ptr %65, 1
IC: Visiting:   %79 = extractvalue { ptr, ptr, i64, [1 x i64], [1 x i64] } %66, 3
IC: Old =   %79 = extractvalue { ptr, ptr, i64, [1 x i64], [1 x i64] } %66, 3
    New =   <badref> = extractvalue { ptr, ptr, i64, [1 x i64], [1 x i64] } undef, 3
ADD:   %79 = extractvalue { ptr, ptr, i64, [1 x i64], [1 x i64] } undef, 3
IC: ERASE   %80 = extractvalue { ptr, ptr, i64, [1 x i64], [1 x i64] } %66, 3
ADD DEFERRED:   %66 = insertvalue { ptr, ptr, i64, [1 x i64], [1 x i64] } undef, ptr %65, 0
ADD:   %66 = insertvalue { ptr, ptr, i64, [1 x i64], [1 x i64] } undef, ptr %65, 0
IC: Visiting:   %66 = insertvalue { ptr, ptr, i64, [1 x i64], [1 x i64] } undef, ptr %65, 0
IC: ConstFold to: [1 x i64] undef from:   %79 = extractvalue { ptr, ptr, i64, [1 x i64], [1 x i64] } undef, 3
IC: Replacing   %79 = extractvalue { ptr, ptr, i64, [1 x i64], [1 x i64] } undef, 3
    with [1 x i64] undef
IC: ERASE   %79 = extractvalue { ptr, ptr, i64, [1 x i64], [1 x i64] } undef, 3
IC: Visiting:   %69 = insertvalue { ptr, ptr, i64, [1 x i64], [1 x i64] } %68, i64 %13, 3, 0
IC: Visiting:   %.elt59 = insertvalue [1 x i64] undef, i64 %13, 0
IC: Visiting:   store [1 x i64] %.elt59, ptr %.repack58, align 8
ADD DEFERRED:   %79 = extractvalue [1 x i64] %.elt59, 0
ADD DEFERRED:   store i64 %79, ptr %.repack58, align 8
IC: ERASE   store [1 x i64] %.elt59, ptr %.repack58, align 8
ADD DEFERRED:   %.elt59 = insertvalue [1 x i64] undef, i64 %13, 0
ADD DEFERRED:   %.repack58 = getelementptr inbounds { ptr, ptr, i64, [1 x i64], [1 x i64] }, ptr %78, i64 0, i32 3
ADD:   %.repack58 = getelementptr inbounds { ptr, ptr, i64, [1 x i64], [1 x i64] }, ptr %78, i64 0, i32 3
ADD:   %.elt59 = insertvalue [1 x i64] undef, i64 %13, 0
ADD:   store i64 %79, ptr %.repack58, align 8
ADD:   %79 = extractvalue [1 x i64] %.elt59, 0
IC: Visiting:   %79 = extractvalue [1 x i64] %.elt59, 0
IC: Replacing   %79 = extractvalue [1 x i64] %.elt59, 0
    with   %13 = load i64, ptr %12, align 4
IC: Mod =   %79 = extractvalue [1 x i64] %.elt59, 0
    New =   %79 = extractvalue [1 x i64] %.elt59, 0
IC: ERASE   %79 = extractvalue [1 x i64] %.elt59, 0
ADD DEFERRED:   %.elt59 = insertvalue [1 x i64] undef, i64 %13, 0
IC: ERASE   %.elt59 = insertvalue [1 x i64] undef, i64 %13, 0
ADD DEFERRED:   %13 = load i64, ptr %12, align 4
ADD:   %13 = load i64, ptr %12, align 4
IC: Visiting:   %13 = load i64, ptr %12, align 4
IC: Visiting:   store i64 %13, ptr %.repack58, align 8
IC: Visiting:   %.repack58 = getelementptr inbounds { ptr, ptr, i64, [1 x i64], [1 x i64] }, ptr %78, i64 0, i32 3
IC: Visiting:   %.repack60 = getelementptr inbounds { ptr, ptr, i64, [1 x i64], [1 x i64] }, ptr %78, i32 0, i32 4
IC: Mod =   %.repack60 = getelementptr inbounds { ptr, ptr, i64, [1 x i64], [1 x i64] }, ptr %78, i32 0, i32 4
    New =   %.repack60 = getelementptr inbounds { ptr, ptr, i64, [1 x i64], [1 x i64] }, ptr %78, i64 0, i32 4
ADD:   %.repack60 = getelementptr inbounds { ptr, ptr, i64, [1 x i64], [1 x i64] }, ptr %78, i64 0, i32 4
IC: Visiting:   %.repack60 = getelementptr inbounds { ptr, ptr, i64, [1 x i64], [1 x i64] }, ptr %78, i64 0, i32 4
IC: Visiting:   %.elt61 = extractvalue { ptr, ptr, i64, [1 x i64], [1 x i64] } %70, 4
ADD DEFERRED:   %79 = extractvalue { ptr, ptr, i64, [1 x i64], [1 x i64] } %69, 4
IC: Old =   %.elt61 = extractvalue { ptr, ptr, i64, [1 x i64], [1 x i64] } %70, 4
    New =   <badref> = insertvalue [1 x i64] %79, i64 1, 0
ADD:   %.elt61 = insertvalue [1 x i64] %79, i64 1, 0
IC: ERASE   %80 = extractvalue { ptr, ptr, i64, [1 x i64], [1 x i64] } %70, 4
ADD DEFERRED:   %70 = insertvalue { ptr, ptr, i64, [1 x i64], [1 x i64] } %69, i64 1, 4, 0
IC: ERASE   %70 = insertvalue { ptr, ptr, i64, [1 x i64], [1 x i64] } %69, i64 1, 4, 0
ADD DEFERRED:   %69 = insertvalue { ptr, ptr, i64, [1 x i64], [1 x i64] } %68, i64 %13, 3, 0
ADD:   %69 = insertvalue { ptr, ptr, i64, [1 x i64], [1 x i64] } %68, i64 %13, 3, 0
ADD:   %78 = extractvalue { ptr, ptr, i64, [1 x i64], [1 x i64] } %69, 4
IC: Visiting:   %78 = extractvalue { ptr, ptr, i64, [1 x i64], [1 x i64] } %69, 4
IC: Old =   %78 = extractvalue { ptr, ptr, i64, [1 x i64], [1 x i64] } %69, 4
    New =   <badref> = extractvalue { ptr, ptr, i64, [1 x i64], [1 x i64] } %68, 4
ADD:   %78 = extractvalue { ptr, ptr, i64, [1 x i64], [1 x i64] } %68, 4
IC: ERASE   %79 = extractvalue { ptr, ptr, i64, [1 x i64], [1 x i64] } %69, 4
ADD DEFERRED:   %69 = insertvalue { ptr, ptr, i64, [1 x i64], [1 x i64] } %68, i64 %13, 3, 0
IC: ERASE   %69 = insertvalue { ptr, ptr, i64, [1 x i64], [1 x i64] } %68, i64 %13, 3, 0
ADD DEFERRED:   %68 = insertvalue { ptr, ptr, i64, [1 x i64], [1 x i64] } %67, i64 0, 2
ADD DEFERRED:   %13 = load i64, ptr %12, align 4
ADD:   %13 = load i64, ptr %12, align 4
ADD:   %68 = insertvalue { ptr, ptr, i64, [1 x i64], [1 x i64] } %67, i64 0, 2
IC: Visiting:   %68 = insertvalue { ptr, ptr, i64, [1 x i64], [1 x i64] } %67, i64 0, 2
IC: Visiting:   %13 = load i64, ptr %12, align 4
IC: Visiting:   %77 = extractvalue { ptr, ptr, i64, [1 x i64], [1 x i64] } %68, 4
IC: Old =   %77 = extractvalue { ptr, ptr, i64, [1 x i64], [1 x i64] } %68, 4
    New =   <badref> = extractvalue { ptr, ptr, i64, [1 x i64], [1 x i64] } %67, 4
ADD:   %77 = extractvalue { ptr, ptr, i64, [1 x i64], [1 x i64] } %67, 4
IC: ERASE   %78 = extractvalue { ptr, ptr, i64, [1 x i64], [1 x i64] } %68, 4
ADD DEFERRED:   %68 = insertvalue { ptr, ptr, i64, [1 x i64], [1 x i64] } %67, i64 0, 2
IC: ERASE   %68 = insertvalue { ptr, ptr, i64, [1 x i64], [1 x i64] } %67, i64 0, 2
ADD DEFERRED:   %67 = insertvalue { ptr, ptr, i64, [1 x i64], [1 x i64] } %66, ptr %65, 1
ADD:   %67 = insertvalue { ptr, ptr, i64, [1 x i64], [1 x i64] } %66, ptr %65, 1
IC: Visiting:   %67 = insertvalue { ptr, ptr, i64, [1 x i64], [1 x i64] } %66, ptr %65, 1
IC: Visiting:   %76 = extractvalue { ptr, ptr, i64, [1 x i64], [1 x i64] } %67, 4
IC: Old =   %76 = extractvalue { ptr, ptr, i64, [1 x i64], [1 x i64] } %67, 4
    New =   <badref> = extractvalue { ptr, ptr, i64, [1 x i64], [1 x i64] } %66, 4
ADD:   %76 = extractvalue { ptr, ptr, i64, [1 x i64], [1 x i64] } %66, 4
IC: ERASE   %77 = extractvalue { ptr, ptr, i64, [1 x i64], [1 x i64] } %67, 4
ADD DEFERRED:   %67 = insertvalue { ptr, ptr, i64, [1 x i64], [1 x i64] } %66, ptr %65, 1
IC: ERASE   %67 = insertvalue { ptr, ptr, i64, [1 x i64], [1 x i64] } %66, ptr %65, 1
ADD DEFERRED:   %66 = insertvalue { ptr, ptr, i64, [1 x i64], [1 x i64] } undef, ptr %65, 0
ADD DEFERRED:   %65 = call ptr @malloc(i64 %.idx53)
ADD:   %65 = call ptr @malloc(i64 %.idx53)
ADD:   %66 = insertvalue { ptr, ptr, i64, [1 x i64], [1 x i64] } undef, ptr %65, 0
IC: Visiting:   %66 = insertvalue { ptr, ptr, i64, [1 x i64], [1 x i64] } undef, ptr %65, 0
IC: Visiting:   %65 = call ptr @malloc(i64 %.idx53)
IC: Visiting:   %75 = extractvalue { ptr, ptr, i64, [1 x i64], [1 x i64] } %66, 4
IC: Old =   %75 = extractvalue { ptr, ptr, i64, [1 x i64], [1 x i64] } %66, 4
    New =   <badref> = extractvalue { ptr, ptr, i64, [1 x i64], [1 x i64] } undef, 4
ADD:   %75 = extractvalue { ptr, ptr, i64, [1 x i64], [1 x i64] } undef, 4
IC: ERASE   %76 = extractvalue { ptr, ptr, i64, [1 x i64], [1 x i64] } %66, 4
ADD DEFERRED:   %66 = insertvalue { ptr, ptr, i64, [1 x i64], [1 x i64] } undef, ptr %65, 0
IC: ERASE   %66 = insertvalue { ptr, ptr, i64, [1 x i64], [1 x i64] } undef, ptr %65, 0
ADD DEFERRED:   %65 = call ptr @malloc(i64 %.idx53)
ADD:   %65 = call ptr @malloc(i64 %.idx53)
IC: Visiting:   %65 = call ptr @malloc(i64 %.idx53)
IC: ConstFold to: [1 x i64] undef from:   %74 = extractvalue { ptr, ptr, i64, [1 x i64], [1 x i64] } undef, 4
IC: Replacing   %74 = extractvalue { ptr, ptr, i64, [1 x i64], [1 x i64] } undef, 4
    with [1 x i64] undef
IC: ERASE   %74 = extractvalue { ptr, ptr, i64, [1 x i64], [1 x i64] } undef, 4
IC: ConstFold to: [1 x i64] [i64 1] from:   %.elt61 = insertvalue [1 x i64] undef, i64 1, 0
IC: Replacing   %.elt61 = insertvalue [1 x i64] undef, i64 1, 0
    with [1 x i64] [i64 1]
IC: ERASE   %.elt61 = insertvalue [1 x i64] undef, i64 1, 0
IC: Visiting:   store [1 x i64] [i64 1], ptr %.repack60, align 8
ADD DEFERRED:   store i64 1, ptr %.repack60, align 8
IC: ERASE   store [1 x i64] [i64 1], ptr %.repack60, align 8
ADD DEFERRED:   %.repack60 = getelementptr inbounds { ptr, ptr, i64, [1 x i64], [1 x i64] }, ptr %73, i64 0, i32 4
ADD:   %.repack60 = getelementptr inbounds { ptr, ptr, i64, [1 x i64], [1 x i64] }, ptr %73, i64 0, i32 4
ADD:   store i64 1, ptr %.repack60, align 8
IC: Visiting:   store i64 1, ptr %.repack60, align 8
IC: Visiting:   %.repack60 = getelementptr inbounds { ptr, ptr, i64, [1 x i64], [1 x i64] }, ptr %73, i64 0, i32 4
IC: Visiting:   %73 = alloca { ptr, ptr, i64, [1 x i64], [1 x i64] }, align 8
IC: Visiting:   %74 = getelementptr i64, ptr null, i64 %15
IC: Visiting:   %75 = ptrtoint ptr %74 to i64
ADD DEFERRED:   %.idx62 = mul i64 %15, 8
IC: Replacing   %75 = ptrtoint ptr %74 to i64
    with   %.idx62 = mul i64 %15, 8
IC: Mod =   %75 = ptrtoint ptr %74 to i64
    New =   %75 = ptrtoint ptr %74 to i64
IC: ERASE   %75 = ptrtoint ptr %74 to i64
ADD DEFERRED:   %74 = getelementptr i64, ptr null, i64 %15
IC: ERASE   %74 = getelementptr i64, ptr null, i64 %15
ADD DEFERRED:   %15 = load i64, ptr %14, align 4
ADD:   %15 = load i64, ptr %14, align 4
ADD:   %.idx62 = mul i64 %15, 8
IC: Visiting:   %.idx62 = mul i64 %15, 8
IC: Old =   %.idx62 = mul i64 %15, 8
    New =   <badref> = shl i64 %15, 3
ADD:   %.idx62 = shl i64 %15, 3
IC: ERASE   %74 = mul i64 %15, 8
ADD DEFERRED:   %15 = load i64, ptr %14, align 4
IC: Visiting:   %.idx62 = shl i64 %15, 3
IC: Visiting:   %15 = load i64, ptr %14, align 4
IC: Visiting:   %74 = call ptr @malloc(i64 %.idx62)
IC: Visiting:   %75 = insertvalue { ptr, ptr, i64, [1 x i64], [1 x i64] } undef, ptr %74, 0
IC: Visiting:   %76 = insertvalue { ptr, ptr, i64, [1 x i64], [1 x i64] } %75, ptr %74, 1
IC: Visiting:   %77 = insertvalue { ptr, ptr, i64, [1 x i64], [1 x i64] } %76, i64 0, 2
IC: Visiting:   %78 = insertvalue { ptr, ptr, i64, [1 x i64], [1 x i64] } %77, i64 %15, 3, 0
IC: Visiting:   %79 = insertvalue { ptr, ptr, i64, [1 x i64], [1 x i64] } %78, i64 1, 4, 0
IC: Visiting:   br label %80
IC: Visiting:   %81 = phi i64 [ %85, %83 ], [ 0, %72 ]
IC: Visiting:   %82 = icmp slt i64 %81, %15
IC: Visiting:   br i1 %82, label %83, label %86
IC: Visiting:   %87 = alloca { ptr, ptr, i64, [1 x i64], [1 x i64] }, i64 1, align 8
IC: Mod =   %87 = alloca { ptr, ptr, i64, [1 x i64], [1 x i64] }, i64 1, align 8
    New =   %87 = alloca { ptr, ptr, i64, [1 x i64], [1 x i64] }, align 8
ADD:   %87 = alloca { ptr, ptr, i64, [1 x i64], [1 x i64] }, align 8
IC: Visiting:   %87 = alloca { ptr, ptr, i64, [1 x i64], [1 x i64] }, align 8
IC: Visiting:   store { ptr, ptr, i64, [1 x i64], [1 x i64] } %79, ptr %87, align 8
ADD DEFERRED:   %.repack = getelementptr inbounds { ptr, ptr, i64, [1 x i64], [1 x i64] }, ptr %87, i32 0, i32 0
ADD DEFERRED:   %.elt = extractvalue { ptr, ptr, i64, [1 x i64], [1 x i64] } %79, 0
ADD DEFERRED:   store ptr %.elt, ptr %.repack, align 8
ADD DEFERRED:   %.repack63 = getelementptr inbounds { ptr, ptr, i64, [1 x i64], [1 x i64] }, ptr %87, i32 0, i32 1
ADD DEFERRED:   %.elt64 = extractvalue { ptr, ptr, i64, [1 x i64], [1 x i64] } %79, 1
ADD DEFERRED:   store ptr %.elt64, ptr %.repack63, align 8
ADD DEFERRED:   %.repack65 = getelementptr inbounds { ptr, ptr, i64, [1 x i64], [1 x i64] }, ptr %87, i32 0, i32 2
ADD DEFERRED:   %.elt66 = extractvalue { ptr, ptr, i64, [1 x i64], [1 x i64] } %79, 2
ADD DEFERRED:   store i64 %.elt66, ptr %.repack65, align 8
ADD DEFERRED:   %.repack67 = getelementptr inbounds { ptr, ptr, i64, [1 x i64], [1 x i64] }, ptr %87, i32 0, i32 3
ADD DEFERRED:   %.elt68 = extractvalue { ptr, ptr, i64, [1 x i64], [1 x i64] } %79, 3
ADD DEFERRED:   store [1 x i64] %.elt68, ptr %.repack67, align 8
ADD DEFERRED:   %.repack69 = getelementptr inbounds { ptr, ptr, i64, [1 x i64], [1 x i64] }, ptr %87, i32 0, i32 4
ADD DEFERRED:   %.elt70 = extractvalue { ptr, ptr, i64, [1 x i64], [1 x i64] } %79, 4
ADD DEFERRED:   store [1 x i64] %.elt70, ptr %.repack69, align 8
IC: ERASE   store { ptr, ptr, i64, [1 x i64], [1 x i64] } %79, ptr %87, align 8
ADD DEFERRED:   %79 = insertvalue { ptr, ptr, i64, [1 x i64], [1 x i64] } %78, i64 1, 4, 0
ADD DEFERRED:   %87 = alloca { ptr, ptr, i64, [1 x i64], [1 x i64] }, align 8
ADD:   %87 = alloca { ptr, ptr, i64, [1 x i64], [1 x i64] }, align 8
ADD:   %79 = insertvalue { ptr, ptr, i64, [1 x i64], [1 x i64] } %78, i64 1, 4, 0
ADD:   store [1 x i64] %.elt70, ptr %.repack69, align 8
ADD:   %.elt70 = extractvalue { ptr, ptr, i64, [1 x i64], [1 x i64] } %79, 4
ADD:   %.repack69 = getelementptr inbounds { ptr, ptr, i64, [1 x i64], [1 x i64] }, ptr %87, i32 0, i32 4
ADD:   store [1 x i64] %.elt68, ptr %.repack67, align 8
ADD:   %.elt68 = extractvalue { ptr, ptr, i64, [1 x i64], [1 x i64] } %79, 3
ADD:   %.repack67 = getelementptr inbounds { ptr, ptr, i64, [1 x i64], [1 x i64] }, ptr %87, i32 0, i32 3
ADD:   store i64 %.elt66, ptr %.repack65, align 8
ADD:   %.elt66 = extractvalue { ptr, ptr, i64, [1 x i64], [1 x i64] } %79, 2
ADD:   %.repack65 = getelementptr inbounds { ptr, ptr, i64, [1 x i64], [1 x i64] }, ptr %87, i32 0, i32 2
ADD:   store ptr %.elt64, ptr %.repack63, align 8
ADD:   %.elt64 = extractvalue { ptr, ptr, i64, [1 x i64], [1 x i64] } %79, 1
ADD:   %.repack63 = getelementptr inbounds { ptr, ptr, i64, [1 x i64], [1 x i64] }, ptr %87, i32 0, i32 1
ADD:   store ptr %.elt, ptr %.repack, align 8
ADD:   %.elt = extractvalue { ptr, ptr, i64, [1 x i64], [1 x i64] } %79, 0
ADD:   %.repack = getelementptr inbounds { ptr, ptr, i64, [1 x i64], [1 x i64] }, ptr %87, i32 0, i32 0
IC: Visiting:   %.repack = getelementptr inbounds { ptr, ptr, i64, [1 x i64], [1 x i64] }, ptr %87, i32 0, i32 0
IC: Replacing   %.repack = getelementptr inbounds { ptr, ptr, i64, [1 x i64], [1 x i64] }, ptr %87, i32 0, i32 0
    with   %87 = alloca { ptr, ptr, i64, [1 x i64], [1 x i64] }, align 8
IC: Mod =   %.repack = getelementptr inbounds { ptr, ptr, i64, [1 x i64], [1 x i64] }, ptr %87, i32 0, i32 0
    New =   %.repack = getelementptr inbounds { ptr, ptr, i64, [1 x i64], [1 x i64] }, ptr %87, i32 0, i32 0
IC: ERASE   %.repack = getelementptr inbounds { ptr, ptr, i64, [1 x i64], [1 x i64] }, ptr %87, i32 0, i32 0
ADD DEFERRED:   %87 = alloca { ptr, ptr, i64, [1 x i64], [1 x i64] }, align 8
IC: Visiting:   %.elt = extractvalue { ptr, ptr, i64, [1 x i64], [1 x i64] } %79, 0
IC: Replacing   %.elt = extractvalue { ptr, ptr, i64, [1 x i64], [1 x i64] } %79, 0
    with   %74 = call ptr @malloc(i64 %.idx62)
IC: Mod =   %.elt = extractvalue { ptr, ptr, i64, [1 x i64], [1 x i64] } %79, 0
    New =   %.elt = extractvalue { ptr, ptr, i64, [1 x i64], [1 x i64] } %79, 0
IC: ERASE   %.elt = extractvalue { ptr, ptr, i64, [1 x i64], [1 x i64] } %79, 0
ADD DEFERRED:   %79 = insertvalue { ptr, ptr, i64, [1 x i64], [1 x i64] } %78, i64 1, 4, 0
IC: Visiting:   store ptr %74, ptr %87, align 8
IC: Visiting:   %.repack63 = getelementptr inbounds { ptr, ptr, i64, [1 x i64], [1 x i64] }, ptr %87, i32 0, i32 1
IC: Mod =   %.repack63 = getelementptr inbounds { ptr, ptr, i64, [1 x i64], [1 x i64] }, ptr %87, i32 0, i32 1
    New =   %.repack63 = getelementptr inbounds { ptr, ptr, i64, [1 x i64], [1 x i64] }, ptr %87, i64 0, i32 1
ADD:   %.repack63 = getelementptr inbounds { ptr, ptr, i64, [1 x i64], [1 x i64] }, ptr %87, i64 0, i32 1
IC: Visiting:   %.repack63 = getelementptr inbounds { ptr, ptr, i64, [1 x i64], [1 x i64] }, ptr %87, i64 0, i32 1
IC: Visiting:   %.elt64 = extractvalue { ptr, ptr, i64, [1 x i64], [1 x i64] } %79, 1
IC: Replacing   %.elt64 = extractvalue { ptr, ptr, i64, [1 x i64], [1 x i64] } %79, 1
    with   %74 = call ptr @malloc(i64 %.idx62)
IC: Mod =   %.elt64 = extractvalue { ptr, ptr, i64, [1 x i64], [1 x i64] } %79, 1
    New =   %.elt64 = extractvalue { ptr, ptr, i64, [1 x i64], [1 x i64] } %79, 1
IC: ERASE   %.elt64 = extractvalue { ptr, ptr, i64, [1 x i64], [1 x i64] } %79, 1
ADD DEFERRED:   %79 = insertvalue { ptr, ptr, i64, [1 x i64], [1 x i64] } %78, i64 1, 4, 0
IC: Visiting:   store ptr %74, ptr %.repack63, align 8
IC: Visiting:   %.repack65 = getelementptr inbounds { ptr, ptr, i64, [1 x i64], [1 x i64] }, ptr %87, i32 0, i32 2
IC: Mod =   %.repack65 = getelementptr inbounds { ptr, ptr, i64, [1 x i64], [1 x i64] }, ptr %87, i32 0, i32 2
    New =   %.repack65 = getelementptr inbounds { ptr, ptr, i64, [1 x i64], [1 x i64] }, ptr %87, i64 0, i32 2
ADD:   %.repack65 = getelementptr inbounds { ptr, ptr, i64, [1 x i64], [1 x i64] }, ptr %87, i64 0, i32 2
IC: Visiting:   %.repack65 = getelementptr inbounds { ptr, ptr, i64, [1 x i64], [1 x i64] }, ptr %87, i64 0, i32 2
IC: Visiting:   %.elt66 = extractvalue { ptr, ptr, i64, [1 x i64], [1 x i64] } %79, 2
IC: Replacing   %.elt66 = extractvalue { ptr, ptr, i64, [1 x i64], [1 x i64] } %79, 2
    with i64 0
IC: Mod =   %.elt66 = extractvalue { ptr, ptr, i64, [1 x i64], [1 x i64] } %79, 2
    New =   %.elt66 = extractvalue { ptr, ptr, i64, [1 x i64], [1 x i64] } %79, 2
IC: ERASE   %.elt66 = extractvalue { ptr, ptr, i64, [1 x i64], [1 x i64] } %79, 2
ADD DEFERRED:   %79 = insertvalue { ptr, ptr, i64, [1 x i64], [1 x i64] } %78, i64 1, 4, 0
IC: Visiting:   store i64 0, ptr %.repack65, align 8
IC: Visiting:   %.repack67 = getelementptr inbounds { ptr, ptr, i64, [1 x i64], [1 x i64] }, ptr %87, i32 0, i32 3
IC: Mod =   %.repack67 = getelementptr inbounds { ptr, ptr, i64, [1 x i64], [1 x i64] }, ptr %87, i32 0, i32 3
    New =   %.repack67 = getelementptr inbounds { ptr, ptr, i64, [1 x i64], [1 x i64] }, ptr %87, i64 0, i32 3
ADD:   %.repack67 = getelementptr inbounds { ptr, ptr, i64, [1 x i64], [1 x i64] }, ptr %87, i64 0, i32 3
IC: Visiting:   %.repack67 = getelementptr inbounds { ptr, ptr, i64, [1 x i64], [1 x i64] }, ptr %87, i64 0, i32 3
IC: Visiting:   %.elt68 = extractvalue { ptr, ptr, i64, [1 x i64], [1 x i64] } %79, 3
IC: Old =   %.elt68 = extractvalue { ptr, ptr, i64, [1 x i64], [1 x i64] } %79, 3
    New =   <badref> = extractvalue { ptr, ptr, i64, [1 x i64], [1 x i64] } %78, 3
ADD:   %.elt68 = extractvalue { ptr, ptr, i64, [1 x i64], [1 x i64] } %78, 3
IC: ERASE   %88 = extractvalue { ptr, ptr, i64, [1 x i64], [1 x i64] } %79, 3
ADD DEFERRED:   %79 = insertvalue { ptr, ptr, i64, [1 x i64], [1 x i64] } %78, i64 1, 4, 0
IC: Visiting:   %.elt68 = extractvalue { ptr, ptr, i64, [1 x i64], [1 x i64] } %78, 3
ADD DEFERRED:   %88 = extractvalue { ptr, ptr, i64, [1 x i64], [1 x i64] } %77, 3
IC: Old =   %.elt68 = extractvalue { ptr, ptr, i64, [1 x i64], [1 x i64] } %78, 3
    New =   <badref> = insertvalue [1 x i64] %88, i64 %15, 0
ADD:   %.elt68 = insertvalue [1 x i64] %88, i64 %15, 0
IC: ERASE   %89 = extractvalue { ptr, ptr, i64, [1 x i64], [1 x i64] } %78, 3
ADD DEFERRED:   %78 = insertvalue { ptr, ptr, i64, [1 x i64], [1 x i64] } %77, i64 %15, 3, 0
ADD:   %78 = insertvalue { ptr, ptr, i64, [1 x i64], [1 x i64] } %77, i64 %15, 3, 0
ADD:   %88 = extractvalue { ptr, ptr, i64, [1 x i64], [1 x i64] } %77, 3
IC: Visiting:   %88 = extractvalue { ptr, ptr, i64, [1 x i64], [1 x i64] } %77, 3
IC: Old =   %88 = extractvalue { ptr, ptr, i64, [1 x i64], [1 x i64] } %77, 3
    New =   <badref> = extractvalue { ptr, ptr, i64, [1 x i64], [1 x i64] } %76, 3
ADD:   %88 = extractvalue { ptr, ptr, i64, [1 x i64], [1 x i64] } %76, 3
IC: ERASE   %89 = extractvalue { ptr, ptr, i64, [1 x i64], [1 x i64] } %77, 3
ADD DEFERRED:   %77 = insertvalue { ptr, ptr, i64, [1 x i64], [1 x i64] } %76, i64 0, 2
ADD:   %77 = insertvalue { ptr, ptr, i64, [1 x i64], [1 x i64] } %76, i64 0, 2
IC: Visiting:   %77 = insertvalue { ptr, ptr, i64, [1 x i64], [1 x i64] } %76, i64 0, 2
IC: Visiting:   %88 = extractvalue { ptr, ptr, i64, [1 x i64], [1 x i64] } %76, 3
IC: Old =   %88 = extractvalue { ptr, ptr, i64, [1 x i64], [1 x i64] } %76, 3
    New =   <badref> = extractvalue { ptr, ptr, i64, [1 x i64], [1 x i64] } %75, 3
ADD:   %88 = extractvalue { ptr, ptr, i64, [1 x i64], [1 x i64] } %75, 3
IC: ERASE   %89 = extractvalue { ptr, ptr, i64, [1 x i64], [1 x i64] } %76, 3
ADD DEFERRED:   %76 = insertvalue { ptr, ptr, i64, [1 x i64], [1 x i64] } %75, ptr %74, 1
ADD:   %76 = insertvalue { ptr, ptr, i64, [1 x i64], [1 x i64] } %75, ptr %74, 1
IC: Visiting:   %76 = insertvalue { ptr, ptr, i64, [1 x i64], [1 x i64] } %75, ptr %74, 1
IC: Visiting:   %88 = extractvalue { ptr, ptr, i64, [1 x i64], [1 x i64] } %75, 3
IC: Old =   %88 = extractvalue { ptr, ptr, i64, [1 x i64], [1 x i64] } %75, 3
    New =   <badref> = extractvalue { ptr, ptr, i64, [1 x i64], [1 x i64] } undef, 3
ADD:   %88 = extractvalue { ptr, ptr, i64, [1 x i64], [1 x i64] } undef, 3
IC: ERASE   %89 = extractvalue { ptr, ptr, i64, [1 x i64], [1 x i64] } %75, 3
ADD DEFERRED:   %75 = insertvalue { ptr, ptr, i64, [1 x i64], [1 x i64] } undef, ptr %74, 0
ADD:   %75 = insertvalue { ptr, ptr, i64, [1 x i64], [1 x i64] } undef, ptr %74, 0
IC: Visiting:   %75 = insertvalue { ptr, ptr, i64, [1 x i64], [1 x i64] } undef, ptr %74, 0
IC: ConstFold to: [1 x i64] undef from:   %88 = extractvalue { ptr, ptr, i64, [1 x i64], [1 x i64] } undef, 3
IC: Replacing   %88 = extractvalue { ptr, ptr, i64, [1 x i64], [1 x i64] } undef, 3
    with [1 x i64] undef
IC: ERASE   %88 = extractvalue { ptr, ptr, i64, [1 x i64], [1 x i64] } undef, 3
IC: Visiting:   %78 = insertvalue { ptr, ptr, i64, [1 x i64], [1 x i64] } %77, i64 %15, 3, 0
IC: Visiting:   %.elt68 = insertvalue [1 x i64] undef, i64 %15, 0
IC: Visiting:   store [1 x i64] %.elt68, ptr %.repack67, align 8
ADD DEFERRED:   %88 = extractvalue [1 x i64] %.elt68, 0
ADD DEFERRED:   store i64 %88, ptr %.repack67, align 8
IC: ERASE   store [1 x i64] %.elt68, ptr %.repack67, align 8
ADD DEFERRED:   %.elt68 = insertvalue [1 x i64] undef, i64 %15, 0
ADD DEFERRED:   %.repack67 = getelementptr inbounds { ptr, ptr, i64, [1 x i64], [1 x i64] }, ptr %87, i64 0, i32 3
ADD:   %.repack67 = getelementptr inbounds { ptr, ptr, i64, [1 x i64], [1 x i64] }, ptr %87, i64 0, i32 3
ADD:   %.elt68 = insertvalue [1 x i64] undef, i64 %15, 0
ADD:   store i64 %88, ptr %.repack67, align 8
ADD:   %88 = extractvalue [1 x i64] %.elt68, 0
IC: Visiting:   %88 = extractvalue [1 x i64] %.elt68, 0
IC: Replacing   %88 = extractvalue [1 x i64] %.elt68, 0
    with   %15 = load i64, ptr %14, align 4
IC: Mod =   %88 = extractvalue [1 x i64] %.elt68, 0
    New =   %88 = extractvalue [1 x i64] %.elt68, 0
IC: ERASE   %88 = extractvalue [1 x i64] %.elt68, 0
ADD DEFERRED:   %.elt68 = insertvalue [1 x i64] undef, i64 %15, 0
IC: ERASE   %.elt68 = insertvalue [1 x i64] undef, i64 %15, 0
ADD DEFERRED:   %15 = load i64, ptr %14, align 4
ADD:   %15 = load i64, ptr %14, align 4
IC: Visiting:   %15 = load i64, ptr %14, align 4
IC: Visiting:   store i64 %15, ptr %.repack67, align 8
IC: Visiting:   %.repack67 = getelementptr inbounds { ptr, ptr, i64, [1 x i64], [1 x i64] }, ptr %87, i64 0, i32 3
IC: Visiting:   %.repack69 = getelementptr inbounds { ptr, ptr, i64, [1 x i64], [1 x i64] }, ptr %87, i32 0, i32 4
IC: Mod =   %.repack69 = getelementptr inbounds { ptr, ptr, i64, [1 x i64], [1 x i64] }, ptr %87, i32 0, i32 4
    New =   %.repack69 = getelementptr inbounds { ptr, ptr, i64, [1 x i64], [1 x i64] }, ptr %87, i64 0, i32 4
ADD:   %.repack69 = getelementptr inbounds { ptr, ptr, i64, [1 x i64], [1 x i64] }, ptr %87, i64 0, i32 4
IC: Visiting:   %.repack69 = getelementptr inbounds { ptr, ptr, i64, [1 x i64], [1 x i64] }, ptr %87, i64 0, i32 4
IC: Visiting:   %.elt70 = extractvalue { ptr, ptr, i64, [1 x i64], [1 x i64] } %79, 4
ADD DEFERRED:   %88 = extractvalue { ptr, ptr, i64, [1 x i64], [1 x i64] } %78, 4
IC: Old =   %.elt70 = extractvalue { ptr, ptr, i64, [1 x i64], [1 x i64] } %79, 4
    New =   <badref> = insertvalue [1 x i64] %88, i64 1, 0
ADD:   %.elt70 = insertvalue [1 x i64] %88, i64 1, 0
IC: ERASE   %89 = extractvalue { ptr, ptr, i64, [1 x i64], [1 x i64] } %79, 4
ADD DEFERRED:   %79 = insertvalue { ptr, ptr, i64, [1 x i64], [1 x i64] } %78, i64 1, 4, 0
IC: ERASE   %79 = insertvalue { ptr, ptr, i64, [1 x i64], [1 x i64] } %78, i64 1, 4, 0
ADD DEFERRED:   %78 = insertvalue { ptr, ptr, i64, [1 x i64], [1 x i64] } %77, i64 %15, 3, 0
ADD:   %78 = insertvalue { ptr, ptr, i64, [1 x i64], [1 x i64] } %77, i64 %15, 3, 0
ADD:   %87 = extractvalue { ptr, ptr, i64, [1 x i64], [1 x i64] } %78, 4
IC: Visiting:   %87 = extractvalue { ptr, ptr, i64, [1 x i64], [1 x i64] } %78, 4
IC: Old =   %87 = extractvalue { ptr, ptr, i64, [1 x i64], [1 x i64] } %78, 4
    New =   <badref> = extractvalue { ptr, ptr, i64, [1 x i64], [1 x i64] } %77, 4
ADD:   %87 = extractvalue { ptr, ptr, i64, [1 x i64], [1 x i64] } %77, 4
IC: ERASE   %88 = extractvalue { ptr, ptr, i64, [1 x i64], [1 x i64] } %78, 4
ADD DEFERRED:   %78 = insertvalue { ptr, ptr, i64, [1 x i64], [1 x i64] } %77, i64 %15, 3, 0
IC: ERASE   %78 = insertvalue { ptr, ptr, i64, [1 x i64], [1 x i64] } %77, i64 %15, 3, 0
ADD DEFERRED:   %77 = insertvalue { ptr, ptr, i64, [1 x i64], [1 x i64] } %76, i64 0, 2
ADD DEFERRED:   %15 = load i64, ptr %14, align 4
ADD:   %15 = load i64, ptr %14, align 4
ADD:   %77 = insertvalue { ptr, ptr, i64, [1 x i64], [1 x i64] } %76, i64 0, 2
IC: Visiting:   %77 = insertvalue { ptr, ptr, i64, [1 x i64], [1 x i64] } %76, i64 0, 2
IC: Visiting:   %15 = load i64, ptr %14, align 4
IC: Visiting:   %86 = extractvalue { ptr, ptr, i64, [1 x i64], [1 x i64] } %77, 4
IC: Old =   %86 = extractvalue { ptr, ptr, i64, [1 x i64], [1 x i64] } %77, 4
    New =   <badref> = extractvalue { ptr, ptr, i64, [1 x i64], [1 x i64] } %76, 4
ADD:   %86 = extractvalue { ptr, ptr, i64, [1 x i64], [1 x i64] } %76, 4
IC: ERASE   %87 = extractvalue { ptr, ptr, i64, [1 x i64], [1 x i64] } %77, 4
ADD DEFERRED:   %77 = insertvalue { ptr, ptr, i64, [1 x i64], [1 x i64] } %76, i64 0, 2
IC: ERASE   %77 = insertvalue { ptr, ptr, i64, [1 x i64], [1 x i64] } %76, i64 0, 2
ADD DEFERRED:   %76 = insertvalue { ptr, ptr, i64, [1 x i64], [1 x i64] } %75, ptr %74, 1
ADD:   %76 = insertvalue { ptr, ptr, i64, [1 x i64], [1 x i64] } %75, ptr %74, 1
IC: Visiting:   %76 = insertvalue { ptr, ptr, i64, [1 x i64], [1 x i64] } %75, ptr %74, 1
IC: Visiting:   %85 = extractvalue { ptr, ptr, i64, [1 x i64], [1 x i64] } %76, 4
IC: Old =   %85 = extractvalue { ptr, ptr, i64, [1 x i64], [1 x i64] } %76, 4
    New =   <badref> = extractvalue { ptr, ptr, i64, [1 x i64], [1 x i64] } %75, 4
ADD:   %85 = extractvalue { ptr, ptr, i64, [1 x i64], [1 x i64] } %75, 4
IC: ERASE   %86 = extractvalue { ptr, ptr, i64, [1 x i64], [1 x i64] } %76, 4
ADD DEFERRED:   %76 = insertvalue { ptr, ptr, i64, [1 x i64], [1 x i64] } %75, ptr %74, 1
IC: ERASE   %76 = insertvalue { ptr, ptr, i64, [1 x i64], [1 x i64] } %75, ptr %74, 1
ADD DEFERRED:   %75 = insertvalue { ptr, ptr, i64, [1 x i64], [1 x i64] } undef, ptr %74, 0
ADD DEFERRED:   %74 = call ptr @malloc(i64 %.idx62)
ADD:   %74 = call ptr @malloc(i64 %.idx62)
ADD:   %75 = insertvalue { ptr, ptr, i64, [1 x i64], [1 x i64] } undef, ptr %74, 0
IC: Visiting:   %75 = insertvalue { ptr, ptr, i64, [1 x i64], [1 x i64] } undef, ptr %74, 0
IC: Visiting:   %74 = call ptr @malloc(i64 %.idx62)
IC: Visiting:   %84 = extractvalue { ptr, ptr, i64, [1 x i64], [1 x i64] } %75, 4
IC: Old =   %84 = extractvalue { ptr, ptr, i64, [1 x i64], [1 x i64] } %75, 4
    New =   <badref> = extractvalue { ptr, ptr, i64, [1 x i64], [1 x i64] } undef, 4
ADD:   %84 = extractvalue { ptr, ptr, i64, [1 x i64], [1 x i64] } undef, 4
IC: ERASE   %85 = extractvalue { ptr, ptr, i64, [1 x i64], [1 x i64] } %75, 4
ADD DEFERRED:   %75 = insertvalue { ptr, ptr, i64, [1 x i64], [1 x i64] } undef, ptr %74, 0
IC: ERASE   %75 = insertvalue { ptr, ptr, i64, [1 x i64], [1 x i64] } undef, ptr %74, 0
ADD DEFERRED:   %74 = call ptr @malloc(i64 %.idx62)
ADD:   %74 = call ptr @malloc(i64 %.idx62)
IC: Visiting:   %74 = call ptr @malloc(i64 %.idx62)
IC: ConstFold to: [1 x i64] undef from:   %83 = extractvalue { ptr, ptr, i64, [1 x i64], [1 x i64] } undef, 4
IC: Replacing   %83 = extractvalue { ptr, ptr, i64, [1 x i64], [1 x i64] } undef, 4
    with [1 x i64] undef
IC: ERASE   %83 = extractvalue { ptr, ptr, i64, [1 x i64], [1 x i64] } undef, 4
IC: ConstFold to: [1 x i64] [i64 1] from:   %.elt70 = insertvalue [1 x i64] undef, i64 1, 0
IC: Replacing   %.elt70 = insertvalue [1 x i64] undef, i64 1, 0
    with [1 x i64] [i64 1]
IC: ERASE   %.elt70 = insertvalue [1 x i64] undef, i64 1, 0
IC: Visiting:   store [1 x i64] [i64 1], ptr %.repack69, align 8
ADD DEFERRED:   store i64 1, ptr %.repack69, align 8
IC: ERASE   store [1 x i64] [i64 1], ptr %.repack69, align 8
ADD DEFERRED:   %.repack69 = getelementptr inbounds { ptr, ptr, i64, [1 x i64], [1 x i64] }, ptr %82, i64 0, i32 4
ADD:   %.repack69 = getelementptr inbounds { ptr, ptr, i64, [1 x i64], [1 x i64] }, ptr %82, i64 0, i32 4
ADD:   store i64 1, ptr %.repack69, align 8
IC: Visiting:   store i64 1, ptr %.repack69, align 8
IC: Visiting:   %.repack69 = getelementptr inbounds { ptr, ptr, i64, [1 x i64], [1 x i64] }, ptr %82, i64 0, i32 4
IC: Visiting:   %82 = alloca { ptr, ptr, i64, [1 x i64], [1 x i64] }, align 8
IC: Visiting:   %83 = getelementptr i64, ptr null, i64 %17
IC: Visiting:   %84 = ptrtoint ptr %83 to i64
ADD DEFERRED:   %.idx71 = mul i64 %17, 8
IC: Replacing   %84 = ptrtoint ptr %83 to i64
    with   %.idx71 = mul i64 %17, 8
IC: Mod =   %84 = ptrtoint ptr %83 to i64
    New =   %84 = ptrtoint ptr %83 to i64
IC: ERASE   %84 = ptrtoint ptr %83 to i64
ADD DEFERRED:   %83 = getelementptr i64, ptr null, i64 %17
IC: ERASE   %83 = getelementptr i64, ptr null, i64 %17
ADD DEFERRED:   %17 = load i64, ptr %16, align 4
ADD:   %17 = load i64, ptr %16, align 4
ADD:   %.idx71 = mul i64 %17, 8
IC: Visiting:   %.idx71 = mul i64 %17, 8
IC: Old =   %.idx71 = mul i64 %17, 8
    New =   <badref> = shl i64 %17, 3
ADD:   %.idx71 = shl i64 %17, 3
IC: ERASE   %83 = mul i64 %17, 8
ADD DEFERRED:   %17 = load i64, ptr %16, align 4
IC: Visiting:   %.idx71 = shl i64 %17, 3
IC: Visiting:   %17 = load i64, ptr %16, align 4
IC: Visiting:   %83 = call ptr @malloc(i64 %.idx71)
IC: Visiting:   %84 = insertvalue { ptr, ptr, i64, [1 x i64], [1 x i64] } undef, ptr %83, 0
IC: Visiting:   %85 = insertvalue { ptr, ptr, i64, [1 x i64], [1 x i64] } %84, ptr %83, 1
IC: Visiting:   %86 = insertvalue { ptr, ptr, i64, [1 x i64], [1 x i64] } %85, i64 0, 2
IC: Visiting:   %87 = insertvalue { ptr, ptr, i64, [1 x i64], [1 x i64] } %86, i64 %17, 3, 0
IC: Visiting:   %88 = insertvalue { ptr, ptr, i64, [1 x i64], [1 x i64] } %87, i64 1, 4, 0
IC: Visiting:   br label %89
IC: Visiting:   %90 = phi i64 [ %94, %92 ], [ 0, %81 ]
IC: Visiting:   %91 = icmp slt i64 %90, %17
IC: Visiting:   br i1 %91, label %92, label %95
IC: Visiting:   %96 = alloca { ptr, ptr, i64, [1 x i64], [1 x i64] }, i64 1, align 8
IC: Mod =   %96 = alloca { ptr, ptr, i64, [1 x i64], [1 x i64] }, i64 1, align 8
    New =   %96 = alloca { ptr, ptr, i64, [1 x i64], [1 x i64] }, align 8
ADD:   %96 = alloca { ptr, ptr, i64, [1 x i64], [1 x i64] }, align 8
IC: Visiting:   %96 = alloca { ptr, ptr, i64, [1 x i64], [1 x i64] }, align 8
IC: Visiting:   store { ptr, ptr, i64, [1 x i64], [1 x i64] } %88, ptr %96, align 8
ADD DEFERRED:   %.repack = getelementptr inbounds { ptr, ptr, i64, [1 x i64], [1 x i64] }, ptr %96, i32 0, i32 0
ADD DEFERRED:   %.elt = extractvalue { ptr, ptr, i64, [1 x i64], [1 x i64] } %88, 0
ADD DEFERRED:   store ptr %.elt, ptr %.repack, align 8
ADD DEFERRED:   %.repack72 = getelementptr inbounds { ptr, ptr, i64, [1 x i64], [1 x i64] }, ptr %96, i32 0, i32 1
ADD DEFERRED:   %.elt73 = extractvalue { ptr, ptr, i64, [1 x i64], [1 x i64] } %88, 1
ADD DEFERRED:   store ptr %.elt73, ptr %.repack72, align 8
ADD DEFERRED:   %.repack74 = getelementptr inbounds { ptr, ptr, i64, [1 x i64], [1 x i64] }, ptr %96, i32 0, i32 2
ADD DEFERRED:   %.elt75 = extractvalue { ptr, ptr, i64, [1 x i64], [1 x i64] } %88, 2
ADD DEFERRED:   store i64 %.elt75, ptr %.repack74, align 8
ADD DEFERRED:   %.repack76 = getelementptr inbounds { ptr, ptr, i64, [1 x i64], [1 x i64] }, ptr %96, i32 0, i32 3
ADD DEFERRED:   %.elt77 = extractvalue { ptr, ptr, i64, [1 x i64], [1 x i64] } %88, 3
ADD DEFERRED:   store [1 x i64] %.elt77, ptr %.repack76, align 8
ADD DEFERRED:   %.repack78 = getelementptr inbounds { ptr, ptr, i64, [1 x i64], [1 x i64] }, ptr %96, i32 0, i32 4
ADD DEFERRED:   %.elt79 = extractvalue { ptr, ptr, i64, [1 x i64], [1 x i64] } %88, 4
ADD DEFERRED:   store [1 x i64] %.elt79, ptr %.repack78, align 8
IC: ERASE   store { ptr, ptr, i64, [1 x i64], [1 x i64] } %88, ptr %96, align 8
ADD DEFERRED:   %88 = insertvalue { ptr, ptr, i64, [1 x i64], [1 x i64] } %87, i64 1, 4, 0
ADD DEFERRED:   %96 = alloca { ptr, ptr, i64, [1 x i64], [1 x i64] }, align 8
ADD:   %96 = alloca { ptr, ptr, i64, [1 x i64], [1 x i64] }, align 8
ADD:   %88 = insertvalue { ptr, ptr, i64, [1 x i64], [1 x i64] } %87, i64 1, 4, 0
ADD:   store [1 x i64] %.elt79, ptr %.repack78, align 8
ADD:   %.elt79 = extractvalue { ptr, ptr, i64, [1 x i64], [1 x i64] } %88, 4
ADD:   %.repack78 = getelementptr inbounds { ptr, ptr, i64, [1 x i64], [1 x i64] }, ptr %96, i32 0, i32 4
ADD:   store [1 x i64] %.elt77, ptr %.repack76, align 8
ADD:   %.elt77 = extractvalue { ptr, ptr, i64, [1 x i64], [1 x i64] } %88, 3
ADD:   %.repack76 = getelementptr inbounds { ptr, ptr, i64, [1 x i64], [1 x i64] }, ptr %96, i32 0, i32 3
ADD:   store i64 %.elt75, ptr %.repack74, align 8
ADD:   %.elt75 = extractvalue { ptr, ptr, i64, [1 x i64], [1 x i64] } %88, 2
ADD:   %.repack74 = getelementptr inbounds { ptr, ptr, i64, [1 x i64], [1 x i64] }, ptr %96, i32 0, i32 2
ADD:   store ptr %.elt73, ptr %.repack72, align 8
ADD:   %.elt73 = extractvalue { ptr, ptr, i64, [1 x i64], [1 x i64] } %88, 1
ADD:   %.repack72 = getelementptr inbounds { ptr, ptr, i64, [1 x i64], [1 x i64] }, ptr %96, i32 0, i32 1
ADD:   store ptr %.elt, ptr %.repack, align 8
ADD:   %.elt = extractvalue { ptr, ptr, i64, [1 x i64], [1 x i64] } %88, 0
ADD:   %.repack = getelementptr inbounds { ptr, ptr, i64, [1 x i64], [1 x i64] }, ptr %96, i32 0, i32 0
IC: Visiting:   %.repack = getelementptr inbounds { ptr, ptr, i64, [1 x i64], [1 x i64] }, ptr %96, i32 0, i32 0
IC: Replacing   %.repack = getelementptr inbounds { ptr, ptr, i64, [1 x i64], [1 x i64] }, ptr %96, i32 0, i32 0
    with   %96 = alloca { ptr, ptr, i64, [1 x i64], [1 x i64] }, align 8
IC: Mod =   %.repack = getelementptr inbounds { ptr, ptr, i64, [1 x i64], [1 x i64] }, ptr %96, i32 0, i32 0
    New =   %.repack = getelementptr inbounds { ptr, ptr, i64, [1 x i64], [1 x i64] }, ptr %96, i32 0, i32 0
IC: ERASE   %.repack = getelementptr inbounds { ptr, ptr, i64, [1 x i64], [1 x i64] }, ptr %96, i32 0, i32 0
ADD DEFERRED:   %96 = alloca { ptr, ptr, i64, [1 x i64], [1 x i64] }, align 8
IC: Visiting:   %.elt = extractvalue { ptr, ptr, i64, [1 x i64], [1 x i64] } %88, 0
IC: Replacing   %.elt = extractvalue { ptr, ptr, i64, [1 x i64], [1 x i64] } %88, 0
    with   %83 = call ptr @malloc(i64 %.idx71)
IC: Mod =   %.elt = extractvalue { ptr, ptr, i64, [1 x i64], [1 x i64] } %88, 0
    New =   %.elt = extractvalue { ptr, ptr, i64, [1 x i64], [1 x i64] } %88, 0
IC: ERASE   %.elt = extractvalue { ptr, ptr, i64, [1 x i64], [1 x i64] } %88, 0
ADD DEFERRED:   %88 = insertvalue { ptr, ptr, i64, [1 x i64], [1 x i64] } %87, i64 1, 4, 0
IC: Visiting:   store ptr %83, ptr %96, align 8
IC: Visiting:   %.repack72 = getelementptr inbounds { ptr, ptr, i64, [1 x i64], [1 x i64] }, ptr %96, i32 0, i32 1
IC: Mod =   %.repack72 = getelementptr inbounds { ptr, ptr, i64, [1 x i64], [1 x i64] }, ptr %96, i32 0, i32 1
    New =   %.repack72 = getelementptr inbounds { ptr, ptr, i64, [1 x i64], [1 x i64] }, ptr %96, i64 0, i32 1
ADD:   %.repack72 = getelementptr inbounds { ptr, ptr, i64, [1 x i64], [1 x i64] }, ptr %96, i64 0, i32 1
IC: Visiting:   %.repack72 = getelementptr inbounds { ptr, ptr, i64, [1 x i64], [1 x i64] }, ptr %96, i64 0, i32 1
IC: Visiting:   %.elt73 = extractvalue { ptr, ptr, i64, [1 x i64], [1 x i64] } %88, 1
IC: Replacing   %.elt73 = extractvalue { ptr, ptr, i64, [1 x i64], [1 x i64] } %88, 1
    with   %83 = call ptr @malloc(i64 %.idx71)
IC: Mod =   %.elt73 = extractvalue { ptr, ptr, i64, [1 x i64], [1 x i64] } %88, 1
    New =   %.elt73 = extractvalue { ptr, ptr, i64, [1 x i64], [1 x i64] } %88, 1
IC: ERASE   %.elt73 = extractvalue { ptr, ptr, i64, [1 x i64], [1 x i64] } %88, 1
ADD DEFERRED:   %88 = insertvalue { ptr, ptr, i64, [1 x i64], [1 x i64] } %87, i64 1, 4, 0
IC: Visiting:   store ptr %83, ptr %.repack72, align 8
IC: Visiting:   %.repack74 = getelementptr inbounds { ptr, ptr, i64, [1 x i64], [1 x i64] }, ptr %96, i32 0, i32 2
IC: Mod =   %.repack74 = getelementptr inbounds { ptr, ptr, i64, [1 x i64], [1 x i64] }, ptr %96, i32 0, i32 2
    New =   %.repack74 = getelementptr inbounds { ptr, ptr, i64, [1 x i64], [1 x i64] }, ptr %96, i64 0, i32 2
ADD:   %.repack74 = getelementptr inbounds { ptr, ptr, i64, [1 x i64], [1 x i64] }, ptr %96, i64 0, i32 2
IC: Visiting:   %.repack74 = getelementptr inbounds { ptr, ptr, i64, [1 x i64], [1 x i64] }, ptr %96, i64 0, i32 2
IC: Visiting:   %.elt75 = extractvalue { ptr, ptr, i64, [1 x i64], [1 x i64] } %88, 2
IC: Replacing   %.elt75 = extractvalue { ptr, ptr, i64, [1 x i64], [1 x i64] } %88, 2
    with i64 0
IC: Mod =   %.elt75 = extractvalue { ptr, ptr, i64, [1 x i64], [1 x i64] } %88, 2
    New =   %.elt75 = extractvalue { ptr, ptr, i64, [1 x i64], [1 x i64] } %88, 2
IC: ERASE   %.elt75 = extractvalue { ptr, ptr, i64, [1 x i64], [1 x i64] } %88, 2
ADD DEFERRED:   %88 = insertvalue { ptr, ptr, i64, [1 x i64], [1 x i64] } %87, i64 1, 4, 0
IC: Visiting:   store i64 0, ptr %.repack74, align 8
IC: Visiting:   %.repack76 = getelementptr inbounds { ptr, ptr, i64, [1 x i64], [1 x i64] }, ptr %96, i32 0, i32 3
IC: Mod =   %.repack76 = getelementptr inbounds { ptr, ptr, i64, [1 x i64], [1 x i64] }, ptr %96, i32 0, i32 3
    New =   %.repack76 = getelementptr inbounds { ptr, ptr, i64, [1 x i64], [1 x i64] }, ptr %96, i64 0, i32 3
ADD:   %.repack76 = getelementptr inbounds { ptr, ptr, i64, [1 x i64], [1 x i64] }, ptr %96, i64 0, i32 3
IC: Visiting:   %.repack76 = getelementptr inbounds { ptr, ptr, i64, [1 x i64], [1 x i64] }, ptr %96, i64 0, i32 3
IC: Visiting:   %.elt77 = extractvalue { ptr, ptr, i64, [1 x i64], [1 x i64] } %88, 3
IC: Old =   %.elt77 = extractvalue { ptr, ptr, i64, [1 x i64], [1 x i64] } %88, 3
    New =   <badref> = extractvalue { ptr, ptr, i64, [1 x i64], [1 x i64] } %87, 3
ADD:   %.elt77 = extractvalue { ptr, ptr, i64, [1 x i64], [1 x i64] } %87, 3
IC: ERASE   %97 = extractvalue { ptr, ptr, i64, [1 x i64], [1 x i64] } %88, 3
ADD DEFERRED:   %88 = insertvalue { ptr, ptr, i64, [1 x i64], [1 x i64] } %87, i64 1, 4, 0
IC: Visiting:   %.elt77 = extractvalue { ptr, ptr, i64, [1 x i64], [1 x i64] } %87, 3
ADD DEFERRED:   %97 = extractvalue { ptr, ptr, i64, [1 x i64], [1 x i64] } %86, 3
IC: Old =   %.elt77 = extractvalue { ptr, ptr, i64, [1 x i64], [1 x i64] } %87, 3
    New =   <badref> = insertvalue [1 x i64] %97, i64 %17, 0
ADD:   %.elt77 = insertvalue [1 x i64] %97, i64 %17, 0
IC: ERASE   %98 = extractvalue { ptr, ptr, i64, [1 x i64], [1 x i64] } %87, 3
ADD DEFERRED:   %87 = insertvalue { ptr, ptr, i64, [1 x i64], [1 x i64] } %86, i64 %17, 3, 0
ADD:   %87 = insertvalue { ptr, ptr, i64, [1 x i64], [1 x i64] } %86, i64 %17, 3, 0
ADD:   %97 = extractvalue { ptr, ptr, i64, [1 x i64], [1 x i64] } %86, 3
IC: Visiting:   %97 = extractvalue { ptr, ptr, i64, [1 x i64], [1 x i64] } %86, 3
IC: Old =   %97 = extractvalue { ptr, ptr, i64, [1 x i64], [1 x i64] } %86, 3
    New =   <badref> = extractvalue { ptr, ptr, i64, [1 x i64], [1 x i64] } %85, 3
ADD:   %97 = extractvalue { ptr, ptr, i64, [1 x i64], [1 x i64] } %85, 3
IC: ERASE   %98 = extractvalue { ptr, ptr, i64, [1 x i64], [1 x i64] } %86, 3
ADD DEFERRED:   %86 = insertvalue { ptr, ptr, i64, [1 x i64], [1 x i64] } %85, i64 0, 2
ADD:   %86 = insertvalue { ptr, ptr, i64, [1 x i64], [1 x i64] } %85, i64 0, 2
IC: Visiting:   %86 = insertvalue { ptr, ptr, i64, [1 x i64], [1 x i64] } %85, i64 0, 2
IC: Visiting:   %97 = extractvalue { ptr, ptr, i64, [1 x i64], [1 x i64] } %85, 3
IC: Old =   %97 = extractvalue { ptr, ptr, i64, [1 x i64], [1 x i64] } %85, 3
    New =   <badref> = extractvalue { ptr, ptr, i64, [1 x i64], [1 x i64] } %84, 3
ADD:   %97 = extractvalue { ptr, ptr, i64, [1 x i64], [1 x i64] } %84, 3
IC: ERASE   %98 = extractvalue { ptr, ptr, i64, [1 x i64], [1 x i64] } %85, 3
ADD DEFERRED:   %85 = insertvalue { ptr, ptr, i64, [1 x i64], [1 x i64] } %84, ptr %83, 1
ADD:   %85 = insertvalue { ptr, ptr, i64, [1 x i64], [1 x i64] } %84, ptr %83, 1
IC: Visiting:   %85 = insertvalue { ptr, ptr, i64, [1 x i64], [1 x i64] } %84, ptr %83, 1
IC: Visiting:   %97 = extractvalue { ptr, ptr, i64, [1 x i64], [1 x i64] } %84, 3
IC: Old =   %97 = extractvalue { ptr, ptr, i64, [1 x i64], [1 x i64] } %84, 3
    New =   <badref> = extractvalue { ptr, ptr, i64, [1 x i64], [1 x i64] } undef, 3
ADD:   %97 = extractvalue { ptr, ptr, i64, [1 x i64], [1 x i64] } undef, 3
IC: ERASE   %98 = extractvalue { ptr, ptr, i64, [1 x i64], [1 x i64] } %84, 3
ADD DEFERRED:   %84 = insertvalue { ptr, ptr, i64, [1 x i64], [1 x i64] } undef, ptr %83, 0
ADD:   %84 = insertvalue { ptr, ptr, i64, [1 x i64], [1 x i64] } undef, ptr %83, 0
IC: Visiting:   %84 = insertvalue { ptr, ptr, i64, [1 x i64], [1 x i64] } undef, ptr %83, 0
IC: ConstFold to: [1 x i64] undef from:   %97 = extractvalue { ptr, ptr, i64, [1 x i64], [1 x i64] } undef, 3
IC: Replacing   %97 = extractvalue { ptr, ptr, i64, [1 x i64], [1 x i64] } undef, 3
    with [1 x i64] undef
IC: ERASE   %97 = extractvalue { ptr, ptr, i64, [1 x i64], [1 x i64] } undef, 3
IC: Visiting:   %87 = insertvalue { ptr, ptr, i64, [1 x i64], [1 x i64] } %86, i64 %17, 3, 0
IC: Visiting:   %.elt77 = insertvalue [1 x i64] undef, i64 %17, 0
IC: Visiting:   store [1 x i64] %.elt77, ptr %.repack76, align 8
ADD DEFERRED:   %97 = extractvalue [1 x i64] %.elt77, 0
ADD DEFERRED:   store i64 %97, ptr %.repack76, align 8
IC: ERASE   store [1 x i64] %.elt77, ptr %.repack76, align 8
ADD DEFERRED:   %.elt77 = insertvalue [1 x i64] undef, i64 %17, 0
ADD DEFERRED:   %.repack76 = getelementptr inbounds { ptr, ptr, i64, [1 x i64], [1 x i64] }, ptr %96, i64 0, i32 3
ADD:   %.repack76 = getelementptr inbounds { ptr, ptr, i64, [1 x i64], [1 x i64] }, ptr %96, i64 0, i32 3
ADD:   %.elt77 = insertvalue [1 x i64] undef, i64 %17, 0
ADD:   store i64 %97, ptr %.repack76, align 8
ADD:   %97 = extractvalue [1 x i64] %.elt77, 0
IC: Visiting:   %97 = extractvalue [1 x i64] %.elt77, 0
IC: Replacing   %97 = extractvalue [1 x i64] %.elt77, 0
    with   %17 = load i64, ptr %16, align 4
IC: Mod =   %97 = extractvalue [1 x i64] %.elt77, 0
    New =   %97 = extractvalue [1 x i64] %.elt77, 0
IC: ERASE   %97 = extractvalue [1 x i64] %.elt77, 0
ADD DEFERRED:   %.elt77 = insertvalue [1 x i64] undef, i64 %17, 0
IC: ERASE   %.elt77 = insertvalue [1 x i64] undef, i64 %17, 0
ADD DEFERRED:   %17 = load i64, ptr %16, align 4
ADD:   %17 = load i64, ptr %16, align 4
IC: Visiting:   %17 = load i64, ptr %16, align 4
IC: Visiting:   store i64 %17, ptr %.repack76, align 8
IC: Visiting:   %.repack76 = getelementptr inbounds { ptr, ptr, i64, [1 x i64], [1 x i64] }, ptr %96, i64 0, i32 3
IC: Visiting:   %.repack78 = getelementptr inbounds { ptr, ptr, i64, [1 x i64], [1 x i64] }, ptr %96, i32 0, i32 4
IC: Mod =   %.repack78 = getelementptr inbounds { ptr, ptr, i64, [1 x i64], [1 x i64] }, ptr %96, i32 0, i32 4
    New =   %.repack78 = getelementptr inbounds { ptr, ptr, i64, [1 x i64], [1 x i64] }, ptr %96, i64 0, i32 4
ADD:   %.repack78 = getelementptr inbounds { ptr, ptr, i64, [1 x i64], [1 x i64] }, ptr %96, i64 0, i32 4
IC: Visiting:   %.repack78 = getelementptr inbounds { ptr, ptr, i64, [1 x i64], [1 x i64] }, ptr %96, i64 0, i32 4
IC: Visiting:   %.elt79 = extractvalue { ptr, ptr, i64, [1 x i64], [1 x i64] } %88, 4
ADD DEFERRED:   %97 = extractvalue { ptr, ptr, i64, [1 x i64], [1 x i64] } %87, 4
IC: Old =   %.elt79 = extractvalue { ptr, ptr, i64, [1 x i64], [1 x i64] } %88, 4
    New =   <badref> = insertvalue [1 x i64] %97, i64 1, 0
ADD:   %.elt79 = insertvalue [1 x i64] %97, i64 1, 0
IC: ERASE   %98 = extractvalue { ptr, ptr, i64, [1 x i64], [1 x i64] } %88, 4
ADD DEFERRED:   %88 = insertvalue { ptr, ptr, i64, [1 x i64], [1 x i64] } %87, i64 1, 4, 0
IC: ERASE   %88 = insertvalue { ptr, ptr, i64, [1 x i64], [1 x i64] } %87, i64 1, 4, 0
ADD DEFERRED:   %87 = insertvalue { ptr, ptr, i64, [1 x i64], [1 x i64] } %86, i64 %17, 3, 0
ADD:   %87 = insertvalue { ptr, ptr, i64, [1 x i64], [1 x i64] } %86, i64 %17, 3, 0
ADD:   %96 = extractvalue { ptr, ptr, i64, [1 x i64], [1 x i64] } %87, 4
IC: Visiting:   %96 = extractvalue { ptr, ptr, i64, [1 x i64], [1 x i64] } %87, 4
IC: Old =   %96 = extractvalue { ptr, ptr, i64, [1 x i64], [1 x i64] } %87, 4
    New =   <badref> = extractvalue { ptr, ptr, i64, [1 x i64], [1 x i64] } %86, 4
ADD:   %96 = extractvalue { ptr, ptr, i64, [1 x i64], [1 x i64] } %86, 4
IC: ERASE   %97 = extractvalue { ptr, ptr, i64, [1 x i64], [1 x i64] } %87, 4
ADD DEFERRED:   %87 = insertvalue { ptr, ptr, i64, [1 x i64], [1 x i64] } %86, i64 %17, 3, 0
IC: ERASE   %87 = insertvalue { ptr, ptr, i64, [1 x i64], [1 x i64] } %86, i64 %17, 3, 0
ADD DEFERRED:   %86 = insertvalue { ptr, ptr, i64, [1 x i64], [1 x i64] } %85, i64 0, 2
ADD DEFERRED:   %17 = load i64, ptr %16, align 4
ADD:   %17 = load i64, ptr %16, align 4
ADD:   %86 = insertvalue { ptr, ptr, i64, [1 x i64], [1 x i64] } %85, i64 0, 2
IC: Visiting:   %86 = insertvalue { ptr, ptr, i64, [1 x i64], [1 x i64] } %85, i64 0, 2
IC: Visiting:   %17 = load i64, ptr %16, align 4
IC: Visiting:   %95 = extractvalue { ptr, ptr, i64, [1 x i64], [1 x i64] } %86, 4
IC: Old =   %95 = extractvalue { ptr, ptr, i64, [1 x i64], [1 x i64] } %86, 4
    New =   <badref> = extractvalue { ptr, ptr, i64, [1 x i64], [1 x i64] } %85, 4
ADD:   %95 = extractvalue { ptr, ptr, i64, [1 x i64], [1 x i64] } %85, 4
IC: ERASE   %96 = extractvalue { ptr, ptr, i64, [1 x i64], [1 x i64] } %86, 4
ADD DEFERRED:   %86 = insertvalue { ptr, ptr, i64, [1 x i64], [1 x i64] } %85, i64 0, 2
IC: ERASE   %86 = insertvalue { ptr, ptr, i64, [1 x i64], [1 x i64] } %85, i64 0, 2
ADD DEFERRED:   %85 = insertvalue { ptr, ptr, i64, [1 x i64], [1 x i64] } %84, ptr %83, 1
ADD:   %85 = insertvalue { ptr, ptr, i64, [1 x i64], [1 x i64] } %84, ptr %83, 1
IC: Visiting:   %85 = insertvalue { ptr, ptr, i64, [1 x i64], [1 x i64] } %84, ptr %83, 1
IC: Visiting:   %94 = extractvalue { ptr, ptr, i64, [1 x i64], [1 x i64] } %85, 4
IC: Old =   %94 = extractvalue { ptr, ptr, i64, [1 x i64], [1 x i64] } %85, 4
    New =   <badref> = extractvalue { ptr, ptr, i64, [1 x i64], [1 x i64] } %84, 4
ADD:   %94 = extractvalue { ptr, ptr, i64, [1 x i64], [1 x i64] } %84, 4
IC: ERASE   %95 = extractvalue { ptr, ptr, i64, [1 x i64], [1 x i64] } %85, 4
ADD DEFERRED:   %85 = insertvalue { ptr, ptr, i64, [1 x i64], [1 x i64] } %84, ptr %83, 1
IC: ERASE   %85 = insertvalue { ptr, ptr, i64, [1 x i64], [1 x i64] } %84, ptr %83, 1
ADD DEFERRED:   %84 = insertvalue { ptr, ptr, i64, [1 x i64], [1 x i64] } undef, ptr %83, 0
ADD DEFERRED:   %83 = call ptr @malloc(i64 %.idx71)
ADD:   %83 = call ptr @malloc(i64 %.idx71)
ADD:   %84 = insertvalue { ptr, ptr, i64, [1 x i64], [1 x i64] } undef, ptr %83, 0
IC: Visiting:   %84 = insertvalue { ptr, ptr, i64, [1 x i64], [1 x i64] } undef, ptr %83, 0
IC: Visiting:   %83 = call ptr @malloc(i64 %.idx71)
IC: Visiting:   %93 = extractvalue { ptr, ptr, i64, [1 x i64], [1 x i64] } %84, 4
IC: Old =   %93 = extractvalue { ptr, ptr, i64, [1 x i64], [1 x i64] } %84, 4
    New =   <badref> = extractvalue { ptr, ptr, i64, [1 x i64], [1 x i64] } undef, 4
ADD:   %93 = extractvalue { ptr, ptr, i64, [1 x i64], [1 x i64] } undef, 4
IC: ERASE   %94 = extractvalue { ptr, ptr, i64, [1 x i64], [1 x i64] } %84, 4
ADD DEFERRED:   %84 = insertvalue { ptr, ptr, i64, [1 x i64], [1 x i64] } undef, ptr %83, 0
IC: ERASE   %84 = insertvalue { ptr, ptr, i64, [1 x i64], [1 x i64] } undef, ptr %83, 0
ADD DEFERRED:   %83 = call ptr @malloc(i64 %.idx71)
ADD:   %83 = call ptr @malloc(i64 %.idx71)
IC: Visiting:   %83 = call ptr @malloc(i64 %.idx71)
IC: ConstFold to: [1 x i64] undef from:   %92 = extractvalue { ptr, ptr, i64, [1 x i64], [1 x i64] } undef, 4
IC: Replacing   %92 = extractvalue { ptr, ptr, i64, [1 x i64], [1 x i64] } undef, 4
    with [1 x i64] undef
IC: ERASE   %92 = extractvalue { ptr, ptr, i64, [1 x i64], [1 x i64] } undef, 4
IC: ConstFold to: [1 x i64] [i64 1] from:   %.elt79 = insertvalue [1 x i64] undef, i64 1, 0
IC: Replacing   %.elt79 = insertvalue [1 x i64] undef, i64 1, 0
    with [1 x i64] [i64 1]
IC: ERASE   %.elt79 = insertvalue [1 x i64] undef, i64 1, 0
IC: Visiting:   store [1 x i64] [i64 1], ptr %.repack78, align 8
ADD DEFERRED:   store i64 1, ptr %.repack78, align 8
IC: ERASE   store [1 x i64] [i64 1], ptr %.repack78, align 8
ADD DEFERRED:   %.repack78 = getelementptr inbounds { ptr, ptr, i64, [1 x i64], [1 x i64] }, ptr %91, i64 0, i32 4
ADD:   %.repack78 = getelementptr inbounds { ptr, ptr, i64, [1 x i64], [1 x i64] }, ptr %91, i64 0, i32 4
ADD:   store i64 1, ptr %.repack78, align 8
IC: Visiting:   store i64 1, ptr %.repack78, align 8
IC: Visiting:   %.repack78 = getelementptr inbounds { ptr, ptr, i64, [1 x i64], [1 x i64] }, ptr %91, i64 0, i32 4
IC: Visiting:   %91 = alloca { ptr, ptr, i64, [1 x i64], [1 x i64] }, align 8
IC: Visiting:   %92 = getelementptr double, ptr null, i64 %19
IC: Visiting:   %93 = ptrtoint ptr %92 to i64
ADD DEFERRED:   %.idx80 = mul i64 %19, 8
IC: Replacing   %93 = ptrtoint ptr %92 to i64
    with   %.idx80 = mul i64 %19, 8
IC: Mod =   %93 = ptrtoint ptr %92 to i64
    New =   %93 = ptrtoint ptr %92 to i64
IC: ERASE   %93 = ptrtoint ptr %92 to i64
ADD DEFERRED:   %92 = getelementptr double, ptr null, i64 %19
IC: ERASE   %92 = getelementptr double, ptr null, i64 %19
ADD DEFERRED:   %19 = load i64, ptr %18, align 4
ADD:   %19 = load i64, ptr %18, align 4
ADD:   %.idx80 = mul i64 %19, 8
IC: Visiting:   %.idx80 = mul i64 %19, 8
IC: Old =   %.idx80 = mul i64 %19, 8
    New =   <badref> = shl i64 %19, 3
ADD:   %.idx80 = shl i64 %19, 3
IC: ERASE   %92 = mul i64 %19, 8
ADD DEFERRED:   %19 = load i64, ptr %18, align 4
IC: Visiting:   %.idx80 = shl i64 %19, 3
IC: Visiting:   %19 = load i64, ptr %18, align 4
IC: Visiting:   %92 = call ptr @malloc(i64 %.idx80)
IC: Visiting:   %93 = insertvalue { ptr, ptr, i64, [1 x i64], [1 x i64] } undef, ptr %92, 0
IC: Visiting:   %94 = insertvalue { ptr, ptr, i64, [1 x i64], [1 x i64] } %93, ptr %92, 1
IC: Visiting:   %95 = insertvalue { ptr, ptr, i64, [1 x i64], [1 x i64] } %94, i64 0, 2
IC: Visiting:   %96 = insertvalue { ptr, ptr, i64, [1 x i64], [1 x i64] } %95, i64 %19, 3, 0
IC: Sink:   %104 = insertvalue { ptr, ptr, i64, [1 x i64], [1 x i64] } %96, i64 1, 4, 0
ADD:   %96 = insertvalue { ptr, ptr, i64, [1 x i64], [1 x i64] } %95, i64 %19, 3, 0
IC: Visiting:   %104 = insertvalue { ptr, ptr, i64, [1 x i64], [1 x i64] } %96, i64 1, 4, 0
IC: Sink:   %103 = insertvalue { ptr, ptr, i64, [1 x i64], [1 x i64] } %95, i64 %19, 3, 0
ADD:   %95 = insertvalue { ptr, ptr, i64, [1 x i64], [1 x i64] } %94, i64 0, 2
ADD:   %19 = load i64, ptr %18, align 4
IC: Visiting:   %103 = insertvalue { ptr, ptr, i64, [1 x i64], [1 x i64] } %95, i64 %19, 3, 0
IC: Visiting:   %19 = load i64, ptr %18, align 4
IC: Sink:   %102 = insertvalue { ptr, ptr, i64, [1 x i64], [1 x i64] } %94, i64 0, 2
ADD:   %94 = insertvalue { ptr, ptr, i64, [1 x i64], [1 x i64] } %93, ptr %92, 1
IC: Visiting:   %102 = insertvalue { ptr, ptr, i64, [1 x i64], [1 x i64] } %94, i64 0, 2
IC: Sink:   %101 = insertvalue { ptr, ptr, i64, [1 x i64], [1 x i64] } %93, ptr %92, 1
ADD:   %93 = insertvalue { ptr, ptr, i64, [1 x i64], [1 x i64] } undef, ptr %92, 0
ADD:   %92 = call ptr @malloc(i64 %.idx80)
IC: Visiting:   %101 = insertvalue { ptr, ptr, i64, [1 x i64], [1 x i64] } %93, ptr %92, 1
IC: Visiting:   %92 = call ptr @malloc(i64 %.idx80)
IC: Sink:   %100 = insertvalue { ptr, ptr, i64, [1 x i64], [1 x i64] } undef, ptr %92, 0
ADD:   %92 = call ptr @malloc(i64 %.idx80)
IC: Visiting:   %100 = insertvalue { ptr, ptr, i64, [1 x i64], [1 x i64] } undef, ptr %92, 0
IC: Visiting:   %92 = call ptr @malloc(i64 %.idx80)
IC: Visiting:   br label %93
IC: Visiting:   %94 = phi i64 [ %98, %96 ], [ 0, %90 ]
IC: Visiting:   %95 = icmp slt i64 %94, %19
IC: Visiting:   br i1 %95, label %96, label %99
IC: Visiting:   %105 = alloca { ptr, ptr, i64, [1 x i64], [1 x i64] }, i64 1, align 8
IC: Mod =   %105 = alloca { ptr, ptr, i64, [1 x i64], [1 x i64] }, i64 1, align 8
    New =   %105 = alloca { ptr, ptr, i64, [1 x i64], [1 x i64] }, align 8
ADD:   %105 = alloca { ptr, ptr, i64, [1 x i64], [1 x i64] }, align 8
IC: Visiting:   %105 = alloca { ptr, ptr, i64, [1 x i64], [1 x i64] }, align 8
IC: Visiting:   store { ptr, ptr, i64, [1 x i64], [1 x i64] } %104, ptr %105, align 8
ADD DEFERRED:   %.repack = getelementptr inbounds { ptr, ptr, i64, [1 x i64], [1 x i64] }, ptr %105, i32 0, i32 0
ADD DEFERRED:   %.elt = extractvalue { ptr, ptr, i64, [1 x i64], [1 x i64] } %104, 0
ADD DEFERRED:   store ptr %.elt, ptr %.repack, align 8
ADD DEFERRED:   %.repack81 = getelementptr inbounds { ptr, ptr, i64, [1 x i64], [1 x i64] }, ptr %105, i32 0, i32 1
ADD DEFERRED:   %.elt82 = extractvalue { ptr, ptr, i64, [1 x i64], [1 x i64] } %104, 1
ADD DEFERRED:   store ptr %.elt82, ptr %.repack81, align 8
ADD DEFERRED:   %.repack83 = getelementptr inbounds { ptr, ptr, i64, [1 x i64], [1 x i64] }, ptr %105, i32 0, i32 2
ADD DEFERRED:   %.elt84 = extractvalue { ptr, ptr, i64, [1 x i64], [1 x i64] } %104, 2
ADD DEFERRED:   store i64 %.elt84, ptr %.repack83, align 8
ADD DEFERRED:   %.repack85 = getelementptr inbounds { ptr, ptr, i64, [1 x i64], [1 x i64] }, ptr %105, i32 0, i32 3
ADD DEFERRED:   %.elt86 = extractvalue { ptr, ptr, i64, [1 x i64], [1 x i64] } %104, 3
ADD DEFERRED:   store [1 x i64] %.elt86, ptr %.repack85, align 8
ADD DEFERRED:   %.repack87 = getelementptr inbounds { ptr, ptr, i64, [1 x i64], [1 x i64] }, ptr %105, i32 0, i32 4
ADD DEFERRED:   %.elt88 = extractvalue { ptr, ptr, i64, [1 x i64], [1 x i64] } %104, 4
ADD DEFERRED:   store [1 x i64] %.elt88, ptr %.repack87, align 8
IC: ERASE   store { ptr, ptr, i64, [1 x i64], [1 x i64] } %104, ptr %105, align 8
ADD DEFERRED:   %104 = insertvalue { ptr, ptr, i64, [1 x i64], [1 x i64] } %103, i64 1, 4, 0
ADD DEFERRED:   %105 = alloca { ptr, ptr, i64, [1 x i64], [1 x i64] }, align 8
ADD:   %105 = alloca { ptr, ptr, i64, [1 x i64], [1 x i64] }, align 8
ADD:   %104 = insertvalue { ptr, ptr, i64, [1 x i64], [1 x i64] } %103, i64 1, 4, 0
ADD:   store [1 x i64] %.elt88, ptr %.repack87, align 8
ADD:   %.elt88 = extractvalue { ptr, ptr, i64, [1 x i64], [1 x i64] } %104, 4
ADD:   %.repack87 = getelementptr inbounds { ptr, ptr, i64, [1 x i64], [1 x i64] }, ptr %105, i32 0, i32 4
ADD:   store [1 x i64] %.elt86, ptr %.repack85, align 8
ADD:   %.elt86 = extractvalue { ptr, ptr, i64, [1 x i64], [1 x i64] } %104, 3
ADD:   %.repack85 = getelementptr inbounds { ptr, ptr, i64, [1 x i64], [1 x i64] }, ptr %105, i32 0, i32 3
ADD:   store i64 %.elt84, ptr %.repack83, align 8
ADD:   %.elt84 = extractvalue { ptr, ptr, i64, [1 x i64], [1 x i64] } %104, 2
ADD:   %.repack83 = getelementptr inbounds { ptr, ptr, i64, [1 x i64], [1 x i64] }, ptr %105, i32 0, i32 2
ADD:   store ptr %.elt82, ptr %.repack81, align 8
ADD:   %.elt82 = extractvalue { ptr, ptr, i64, [1 x i64], [1 x i64] } %104, 1
ADD:   %.repack81 = getelementptr inbounds { ptr, ptr, i64, [1 x i64], [1 x i64] }, ptr %105, i32 0, i32 1
ADD:   store ptr %.elt, ptr %.repack, align 8
ADD:   %.elt = extractvalue { ptr, ptr, i64, [1 x i64], [1 x i64] } %104, 0
ADD:   %.repack = getelementptr inbounds { ptr, ptr, i64, [1 x i64], [1 x i64] }, ptr %105, i32 0, i32 0
IC: Visiting:   %.repack = getelementptr inbounds { ptr, ptr, i64, [1 x i64], [1 x i64] }, ptr %105, i32 0, i32 0
IC: Replacing   %.repack = getelementptr inbounds { ptr, ptr, i64, [1 x i64], [1 x i64] }, ptr %105, i32 0, i32 0
    with   %105 = alloca { ptr, ptr, i64, [1 x i64], [1 x i64] }, align 8
IC: Mod =   %.repack = getelementptr inbounds { ptr, ptr, i64, [1 x i64], [1 x i64] }, ptr %105, i32 0, i32 0
    New =   %.repack = getelementptr inbounds { ptr, ptr, i64, [1 x i64], [1 x i64] }, ptr %105, i32 0, i32 0
IC: ERASE   %.repack = getelementptr inbounds { ptr, ptr, i64, [1 x i64], [1 x i64] }, ptr %105, i32 0, i32 0
ADD DEFERRED:   %105 = alloca { ptr, ptr, i64, [1 x i64], [1 x i64] }, align 8
IC: Visiting:   %.elt = extractvalue { ptr, ptr, i64, [1 x i64], [1 x i64] } %104, 0
IC: Replacing   %.elt = extractvalue { ptr, ptr, i64, [1 x i64], [1 x i64] } %104, 0
    with   %92 = call ptr @malloc(i64 %.idx80)
IC: Mod =   %.elt = extractvalue { ptr, ptr, i64, [1 x i64], [1 x i64] } %104, 0
    New =   %.elt = extractvalue { ptr, ptr, i64, [1 x i64], [1 x i64] } %104, 0
IC: ERASE   %.elt = extractvalue { ptr, ptr, i64, [1 x i64], [1 x i64] } %104, 0
ADD DEFERRED:   %104 = insertvalue { ptr, ptr, i64, [1 x i64], [1 x i64] } %103, i64 1, 4, 0
IC: Visiting:   store ptr %92, ptr %105, align 8
IC: Visiting:   %.repack81 = getelementptr inbounds { ptr, ptr, i64, [1 x i64], [1 x i64] }, ptr %105, i32 0, i32 1
IC: Mod =   %.repack81 = getelementptr inbounds { ptr, ptr, i64, [1 x i64], [1 x i64] }, ptr %105, i32 0, i32 1
    New =   %.repack81 = getelementptr inbounds { ptr, ptr, i64, [1 x i64], [1 x i64] }, ptr %105, i64 0, i32 1
ADD:   %.repack81 = getelementptr inbounds { ptr, ptr, i64, [1 x i64], [1 x i64] }, ptr %105, i64 0, i32 1
IC: Visiting:   %.repack81 = getelementptr inbounds { ptr, ptr, i64, [1 x i64], [1 x i64] }, ptr %105, i64 0, i32 1
IC: Visiting:   %.elt82 = extractvalue { ptr, ptr, i64, [1 x i64], [1 x i64] } %104, 1
IC: Replacing   %.elt82 = extractvalue { ptr, ptr, i64, [1 x i64], [1 x i64] } %104, 1
    with   %92 = call ptr @malloc(i64 %.idx80)
IC: Mod =   %.elt82 = extractvalue { ptr, ptr, i64, [1 x i64], [1 x i64] } %104, 1
    New =   %.elt82 = extractvalue { ptr, ptr, i64, [1 x i64], [1 x i64] } %104, 1
IC: ERASE   %.elt82 = extractvalue { ptr, ptr, i64, [1 x i64], [1 x i64] } %104, 1
ADD DEFERRED:   %104 = insertvalue { ptr, ptr, i64, [1 x i64], [1 x i64] } %103, i64 1, 4, 0
IC: Visiting:   store ptr %92, ptr %.repack81, align 8
IC: Visiting:   %.repack83 = getelementptr inbounds { ptr, ptr, i64, [1 x i64], [1 x i64] }, ptr %105, i32 0, i32 2
IC: Mod =   %.repack83 = getelementptr inbounds { ptr, ptr, i64, [1 x i64], [1 x i64] }, ptr %105, i32 0, i32 2
    New =   %.repack83 = getelementptr inbounds { ptr, ptr, i64, [1 x i64], [1 x i64] }, ptr %105, i64 0, i32 2
ADD:   %.repack83 = getelementptr inbounds { ptr, ptr, i64, [1 x i64], [1 x i64] }, ptr %105, i64 0, i32 2
IC: Visiting:   %.repack83 = getelementptr inbounds { ptr, ptr, i64, [1 x i64], [1 x i64] }, ptr %105, i64 0, i32 2
IC: Visiting:   %.elt84 = extractvalue { ptr, ptr, i64, [1 x i64], [1 x i64] } %104, 2
IC: Replacing   %.elt84 = extractvalue { ptr, ptr, i64, [1 x i64], [1 x i64] } %104, 2
    with i64 0
IC: Mod =   %.elt84 = extractvalue { ptr, ptr, i64, [1 x i64], [1 x i64] } %104, 2
    New =   %.elt84 = extractvalue { ptr, ptr, i64, [1 x i64], [1 x i64] } %104, 2
IC: ERASE   %.elt84 = extractvalue { ptr, ptr, i64, [1 x i64], [1 x i64] } %104, 2
ADD DEFERRED:   %104 = insertvalue { ptr, ptr, i64, [1 x i64], [1 x i64] } %103, i64 1, 4, 0
IC: Visiting:   store i64 0, ptr %.repack83, align 8
IC: Visiting:   %.repack85 = getelementptr inbounds { ptr, ptr, i64, [1 x i64], [1 x i64] }, ptr %105, i32 0, i32 3
IC: Mod =   %.repack85 = getelementptr inbounds { ptr, ptr, i64, [1 x i64], [1 x i64] }, ptr %105, i32 0, i32 3
    New =   %.repack85 = getelementptr inbounds { ptr, ptr, i64, [1 x i64], [1 x i64] }, ptr %105, i64 0, i32 3
ADD:   %.repack85 = getelementptr inbounds { ptr, ptr, i64, [1 x i64], [1 x i64] }, ptr %105, i64 0, i32 3
IC: Visiting:   %.repack85 = getelementptr inbounds { ptr, ptr, i64, [1 x i64], [1 x i64] }, ptr %105, i64 0, i32 3
IC: Visiting:   %.elt86 = extractvalue { ptr, ptr, i64, [1 x i64], [1 x i64] } %104, 3
IC: Old =   %.elt86 = extractvalue { ptr, ptr, i64, [1 x i64], [1 x i64] } %104, 3
    New =   <badref> = extractvalue { ptr, ptr, i64, [1 x i64], [1 x i64] } %103, 3
ADD:   %.elt86 = extractvalue { ptr, ptr, i64, [1 x i64], [1 x i64] } %103, 3
IC: ERASE   %106 = extractvalue { ptr, ptr, i64, [1 x i64], [1 x i64] } %104, 3
ADD DEFERRED:   %104 = insertvalue { ptr, ptr, i64, [1 x i64], [1 x i64] } %103, i64 1, 4, 0
IC: Visiting:   %.elt86 = extractvalue { ptr, ptr, i64, [1 x i64], [1 x i64] } %103, 3
ADD DEFERRED:   %106 = extractvalue { ptr, ptr, i64, [1 x i64], [1 x i64] } %102, 3
IC: Old =   %.elt86 = extractvalue { ptr, ptr, i64, [1 x i64], [1 x i64] } %103, 3
    New =   <badref> = insertvalue [1 x i64] %106, i64 %19, 0
ADD:   %.elt86 = insertvalue [1 x i64] %106, i64 %19, 0
IC: ERASE   %107 = extractvalue { ptr, ptr, i64, [1 x i64], [1 x i64] } %103, 3
ADD DEFERRED:   %103 = insertvalue { ptr, ptr, i64, [1 x i64], [1 x i64] } %102, i64 %19, 3, 0
ADD:   %103 = insertvalue { ptr, ptr, i64, [1 x i64], [1 x i64] } %102, i64 %19, 3, 0
ADD:   %106 = extractvalue { ptr, ptr, i64, [1 x i64], [1 x i64] } %102, 3
IC: Visiting:   %106 = extractvalue { ptr, ptr, i64, [1 x i64], [1 x i64] } %102, 3
IC: Old =   %106 = extractvalue { ptr, ptr, i64, [1 x i64], [1 x i64] } %102, 3
    New =   <badref> = extractvalue { ptr, ptr, i64, [1 x i64], [1 x i64] } %101, 3
ADD:   %106 = extractvalue { ptr, ptr, i64, [1 x i64], [1 x i64] } %101, 3
IC: ERASE   %107 = extractvalue { ptr, ptr, i64, [1 x i64], [1 x i64] } %102, 3
ADD DEFERRED:   %102 = insertvalue { ptr, ptr, i64, [1 x i64], [1 x i64] } %101, i64 0, 2
ADD:   %102 = insertvalue { ptr, ptr, i64, [1 x i64], [1 x i64] } %101, i64 0, 2
IC: Visiting:   %102 = insertvalue { ptr, ptr, i64, [1 x i64], [1 x i64] } %101, i64 0, 2
IC: Visiting:   %106 = extractvalue { ptr, ptr, i64, [1 x i64], [1 x i64] } %101, 3
IC: Old =   %106 = extractvalue { ptr, ptr, i64, [1 x i64], [1 x i64] } %101, 3
    New =   <badref> = extractvalue { ptr, ptr, i64, [1 x i64], [1 x i64] } %100, 3
ADD:   %106 = extractvalue { ptr, ptr, i64, [1 x i64], [1 x i64] } %100, 3
IC: ERASE   %107 = extractvalue { ptr, ptr, i64, [1 x i64], [1 x i64] } %101, 3
ADD DEFERRED:   %101 = insertvalue { ptr, ptr, i64, [1 x i64], [1 x i64] } %100, ptr %92, 1
ADD:   %101 = insertvalue { ptr, ptr, i64, [1 x i64], [1 x i64] } %100, ptr %92, 1
IC: Visiting:   %101 = insertvalue { ptr, ptr, i64, [1 x i64], [1 x i64] } %100, ptr %92, 1
IC: Visiting:   %106 = extractvalue { ptr, ptr, i64, [1 x i64], [1 x i64] } %100, 3
IC: Old =   %106 = extractvalue { ptr, ptr, i64, [1 x i64], [1 x i64] } %100, 3
    New =   <badref> = extractvalue { ptr, ptr, i64, [1 x i64], [1 x i64] } undef, 3
ADD:   %106 = extractvalue { ptr, ptr, i64, [1 x i64], [1 x i64] } undef, 3
IC: ERASE   %107 = extractvalue { ptr, ptr, i64, [1 x i64], [1 x i64] } %100, 3
ADD DEFERRED:   %100 = insertvalue { ptr, ptr, i64, [1 x i64], [1 x i64] } undef, ptr %92, 0
ADD:   %100 = insertvalue { ptr, ptr, i64, [1 x i64], [1 x i64] } undef, ptr %92, 0
IC: Visiting:   %100 = insertvalue { ptr, ptr, i64, [1 x i64], [1 x i64] } undef, ptr %92, 0
IC: ConstFold to: [1 x i64] undef from:   %106 = extractvalue { ptr, ptr, i64, [1 x i64], [1 x i64] } undef, 3
IC: Replacing   %106 = extractvalue { ptr, ptr, i64, [1 x i64], [1 x i64] } undef, 3
    with [1 x i64] undef
IC: ERASE   %106 = extractvalue { ptr, ptr, i64, [1 x i64], [1 x i64] } undef, 3
IC: Visiting:   %103 = insertvalue { ptr, ptr, i64, [1 x i64], [1 x i64] } %102, i64 %19, 3, 0
IC: Visiting:   %.elt86 = insertvalue [1 x i64] undef, i64 %19, 0
IC: Visiting:   store [1 x i64] %.elt86, ptr %.repack85, align 8
ADD DEFERRED:   %106 = extractvalue [1 x i64] %.elt86, 0
ADD DEFERRED:   store i64 %106, ptr %.repack85, align 8
IC: ERASE   store [1 x i64] %.elt86, ptr %.repack85, align 8
ADD DEFERRED:   %.elt86 = insertvalue [1 x i64] undef, i64 %19, 0
ADD DEFERRED:   %.repack85 = getelementptr inbounds { ptr, ptr, i64, [1 x i64], [1 x i64] }, ptr %105, i64 0, i32 3
ADD:   %.repack85 = getelementptr inbounds { ptr, ptr, i64, [1 x i64], [1 x i64] }, ptr %105, i64 0, i32 3
ADD:   %.elt86 = insertvalue [1 x i64] undef, i64 %19, 0
ADD:   store i64 %106, ptr %.repack85, align 8
ADD:   %106 = extractvalue [1 x i64] %.elt86, 0
IC: Visiting:   %106 = extractvalue [1 x i64] %.elt86, 0
IC: Replacing   %106 = extractvalue [1 x i64] %.elt86, 0
    with   %19 = load i64, ptr %18, align 4
IC: Mod =   %106 = extractvalue [1 x i64] %.elt86, 0
    New =   %106 = extractvalue [1 x i64] %.elt86, 0
IC: ERASE   %106 = extractvalue [1 x i64] %.elt86, 0
ADD DEFERRED:   %.elt86 = insertvalue [1 x i64] undef, i64 %19, 0
IC: ERASE   %.elt86 = insertvalue [1 x i64] undef, i64 %19, 0
ADD DEFERRED:   %19 = load i64, ptr %18, align 4
ADD:   %19 = load i64, ptr %18, align 4
IC: Visiting:   %19 = load i64, ptr %18, align 4
IC: Visiting:   store i64 %19, ptr %.repack85, align 8
IC: Visiting:   %.repack85 = getelementptr inbounds { ptr, ptr, i64, [1 x i64], [1 x i64] }, ptr %105, i64 0, i32 3
IC: Visiting:   %.repack87 = getelementptr inbounds { ptr, ptr, i64, [1 x i64], [1 x i64] }, ptr %105, i32 0, i32 4
IC: Mod =   %.repack87 = getelementptr inbounds { ptr, ptr, i64, [1 x i64], [1 x i64] }, ptr %105, i32 0, i32 4
    New =   %.repack87 = getelementptr inbounds { ptr, ptr, i64, [1 x i64], [1 x i64] }, ptr %105, i64 0, i32 4
ADD:   %.repack87 = getelementptr inbounds { ptr, ptr, i64, [1 x i64], [1 x i64] }, ptr %105, i64 0, i32 4
IC: Visiting:   %.repack87 = getelementptr inbounds { ptr, ptr, i64, [1 x i64], [1 x i64] }, ptr %105, i64 0, i32 4
IC: Visiting:   %.elt88 = extractvalue { ptr, ptr, i64, [1 x i64], [1 x i64] } %104, 4
ADD DEFERRED:   %106 = extractvalue { ptr, ptr, i64, [1 x i64], [1 x i64] } %103, 4
IC: Old =   %.elt88 = extractvalue { ptr, ptr, i64, [1 x i64], [1 x i64] } %104, 4
    New =   <badref> = insertvalue [1 x i64] %106, i64 1, 0
ADD:   %.elt88 = insertvalue [1 x i64] %106, i64 1, 0
IC: ERASE   %107 = extractvalue { ptr, ptr, i64, [1 x i64], [1 x i64] } %104, 4
ADD DEFERRED:   %104 = insertvalue { ptr, ptr, i64, [1 x i64], [1 x i64] } %103, i64 1, 4, 0
IC: ERASE   %104 = insertvalue { ptr, ptr, i64, [1 x i64], [1 x i64] } %103, i64 1, 4, 0
ADD DEFERRED:   %103 = insertvalue { ptr, ptr, i64, [1 x i64], [1 x i64] } %102, i64 %19, 3, 0
ADD:   %103 = insertvalue { ptr, ptr, i64, [1 x i64], [1 x i64] } %102, i64 %19, 3, 0
ADD:   %105 = extractvalue { ptr, ptr, i64, [1 x i64], [1 x i64] } %103, 4
IC: Visiting:   %105 = extractvalue { ptr, ptr, i64, [1 x i64], [1 x i64] } %103, 4
IC: Old =   %105 = extractvalue { ptr, ptr, i64, [1 x i64], [1 x i64] } %103, 4
    New =   <badref> = extractvalue { ptr, ptr, i64, [1 x i64], [1 x i64] } %102, 4
ADD:   %105 = extractvalue { ptr, ptr, i64, [1 x i64], [1 x i64] } %102, 4
IC: ERASE   %106 = extractvalue { ptr, ptr, i64, [1 x i64], [1 x i64] } %103, 4
ADD DEFERRED:   %103 = insertvalue { ptr, ptr, i64, [1 x i64], [1 x i64] } %102, i64 %19, 3, 0
IC: ERASE   %103 = insertvalue { ptr, ptr, i64, [1 x i64], [1 x i64] } %102, i64 %19, 3, 0
ADD DEFERRED:   %102 = insertvalue { ptr, ptr, i64, [1 x i64], [1 x i64] } %101, i64 0, 2
ADD DEFERRED:   %19 = load i64, ptr %18, align 4
ADD:   %19 = load i64, ptr %18, align 4
ADD:   %102 = insertvalue { ptr, ptr, i64, [1 x i64], [1 x i64] } %101, i64 0, 2
IC: Visiting:   %102 = insertvalue { ptr, ptr, i64, [1 x i64], [1 x i64] } %101, i64 0, 2
IC: Visiting:   %19 = load i64, ptr %18, align 4
IC: Visiting:   %104 = extractvalue { ptr, ptr, i64, [1 x i64], [1 x i64] } %102, 4
IC: Old =   %104 = extractvalue { ptr, ptr, i64, [1 x i64], [1 x i64] } %102, 4
    New =   <badref> = extractvalue { ptr, ptr, i64, [1 x i64], [1 x i64] } %101, 4
ADD:   %104 = extractvalue { ptr, ptr, i64, [1 x i64], [1 x i64] } %101, 4
IC: ERASE   %105 = extractvalue { ptr, ptr, i64, [1 x i64], [1 x i64] } %102, 4
ADD DEFERRED:   %102 = insertvalue { ptr, ptr, i64, [1 x i64], [1 x i64] } %101, i64 0, 2
IC: ERASE   %102 = insertvalue { ptr, ptr, i64, [1 x i64], [1 x i64] } %101, i64 0, 2
ADD DEFERRED:   %101 = insertvalue { ptr, ptr, i64, [1 x i64], [1 x i64] } %100, ptr %92, 1
ADD:   %101 = insertvalue { ptr, ptr, i64, [1 x i64], [1 x i64] } %100, ptr %92, 1
IC: Visiting:   %101 = insertvalue { ptr, ptr, i64, [1 x i64], [1 x i64] } %100, ptr %92, 1
IC: Visiting:   %103 = extractvalue { ptr, ptr, i64, [1 x i64], [1 x i64] } %101, 4
IC: Old =   %103 = extractvalue { ptr, ptr, i64, [1 x i64], [1 x i64] } %101, 4
    New =   <badref> = extractvalue { ptr, ptr, i64, [1 x i64], [1 x i64] } %100, 4
ADD:   %103 = extractvalue { ptr, ptr, i64, [1 x i64], [1 x i64] } %100, 4
IC: ERASE   %104 = extractvalue { ptr, ptr, i64, [1 x i64], [1 x i64] } %101, 4
ADD DEFERRED:   %101 = insertvalue { ptr, ptr, i64, [1 x i64], [1 x i64] } %100, ptr %92, 1
IC: ERASE   %101 = insertvalue { ptr, ptr, i64, [1 x i64], [1 x i64] } %100, ptr %92, 1
ADD DEFERRED:   %100 = insertvalue { ptr, ptr, i64, [1 x i64], [1 x i64] } undef, ptr %92, 0
ADD DEFERRED:   %92 = call ptr @malloc(i64 %.idx80)
ADD:   %92 = call ptr @malloc(i64 %.idx80)
ADD:   %100 = insertvalue { ptr, ptr, i64, [1 x i64], [1 x i64] } undef, ptr %92, 0
IC: Visiting:   %100 = insertvalue { ptr, ptr, i64, [1 x i64], [1 x i64] } undef, ptr %92, 0
IC: Visiting:   %92 = call ptr @malloc(i64 %.idx80)
IC: Visiting:   %102 = extractvalue { ptr, ptr, i64, [1 x i64], [1 x i64] } %100, 4
IC: Old =   %102 = extractvalue { ptr, ptr, i64, [1 x i64], [1 x i64] } %100, 4
    New =   <badref> = extractvalue { ptr, ptr, i64, [1 x i64], [1 x i64] } undef, 4
ADD:   %102 = extractvalue { ptr, ptr, i64, [1 x i64], [1 x i64] } undef, 4
IC: ERASE   %103 = extractvalue { ptr, ptr, i64, [1 x i64], [1 x i64] } %100, 4
ADD DEFERRED:   %100 = insertvalue { ptr, ptr, i64, [1 x i64], [1 x i64] } undef, ptr %92, 0
IC: ERASE   %100 = insertvalue { ptr, ptr, i64, [1 x i64], [1 x i64] } undef, ptr %92, 0
ADD DEFERRED:   %92 = call ptr @malloc(i64 %.idx80)
ADD:   %92 = call ptr @malloc(i64 %.idx80)
IC: Visiting:   %92 = call ptr @malloc(i64 %.idx80)
IC: ConstFold to: [1 x i64] undef from:   %101 = extractvalue { ptr, ptr, i64, [1 x i64], [1 x i64] } undef, 4
IC: Replacing   %101 = extractvalue { ptr, ptr, i64, [1 x i64], [1 x i64] } undef, 4
    with [1 x i64] undef
IC: ERASE   %101 = extractvalue { ptr, ptr, i64, [1 x i64], [1 x i64] } undef, 4
IC: ConstFold to: [1 x i64] [i64 1] from:   %.elt88 = insertvalue [1 x i64] undef, i64 1, 0
IC: Replacing   %.elt88 = insertvalue [1 x i64] undef, i64 1, 0
    with [1 x i64] [i64 1]
IC: ERASE   %.elt88 = insertvalue [1 x i64] undef, i64 1, 0
IC: Visiting:   store [1 x i64] [i64 1], ptr %.repack87, align 8
ADD DEFERRED:   store i64 1, ptr %.repack87, align 8
IC: ERASE   store [1 x i64] [i64 1], ptr %.repack87, align 8
ADD DEFERRED:   %.repack87 = getelementptr inbounds { ptr, ptr, i64, [1 x i64], [1 x i64] }, ptr %100, i64 0, i32 4
ADD:   %.repack87 = getelementptr inbounds { ptr, ptr, i64, [1 x i64], [1 x i64] }, ptr %100, i64 0, i32 4
ADD:   store i64 1, ptr %.repack87, align 8
IC: Visiting:   store i64 1, ptr %.repack87, align 8
IC: Visiting:   %.repack87 = getelementptr inbounds { ptr, ptr, i64, [1 x i64], [1 x i64] }, ptr %100, i64 0, i32 4
IC: Visiting:   %100 = alloca { ptr, ptr, i64, [1 x i64], [1 x i64] }, align 8
IC: Visiting:   call void @read_input_2D_f64(i32 1, i64 0, i64 3, i64 0, i64 -1, i64 1, ptr %28, i64 1, ptr %37, i64 1, ptr %46, i64 1, ptr %55, i64 1, ptr %64, i64 1, ptr %73, i64 1, ptr %82, i64 1, ptr %91, i64 1, ptr %100, i32 1)
IC: Mod =   call void @read_input_2D_f64(i32 1, i64 0, i64 3, i64 0, i64 -1, i64 1, ptr %28, i64 1, ptr %37, i64 1, ptr %46, i64 1, ptr %55, i64 1, ptr %64, i64 1, ptr %73, i64 1, ptr %82, i64 1, ptr %91, i64 1, ptr %100, i32 1)
    New =   call void @read_input_2D_f64(i32 1, i64 0, i64 3, i64 0, i64 -1, i64 1, ptr nonnull %28, i64 1, ptr nonnull %37, i64 1, ptr nonnull %46, i64 1, ptr nonnull %55, i64 1, ptr nonnull %64, i64 1, ptr nonnull %73, i64 1, ptr nonnull %82, i64 1, ptr nonnull %91, i64 1, ptr nonnull %100, i32 1)
ADD:   call void @read_input_2D_f64(i32 1, i64 0, i64 3, i64 0, i64 -1, i64 1, ptr nonnull %28, i64 1, ptr nonnull %37, i64 1, ptr nonnull %46, i64 1, ptr nonnull %55, i64 1, ptr nonnull %64, i64 1, ptr nonnull %73, i64 1, ptr nonnull %82, i64 1, ptr nonnull %91, i64 1, ptr nonnull %100, i32 1)
IC: Visiting:   call void @read_input_2D_f64(i32 1, i64 0, i64 3, i64 0, i64 -1, i64 1, ptr nonnull %28, i64 1, ptr nonnull %37, i64 1, ptr nonnull %46, i64 1, ptr nonnull %55, i64 1, ptr nonnull %64, i64 1, ptr nonnull %73, i64 1, ptr nonnull %82, i64 1, ptr nonnull %91, i64 1, ptr nonnull %100, i32 1)
IC: Visiting:   call void @comet_print_memref_i64(i64 1, ptr %28)
IC: Mod =   call void @comet_print_memref_i64(i64 1, ptr %28)
    New =   call void @comet_print_memref_i64(i64 1, ptr nonnull %28)
ADD:   call void @comet_print_memref_i64(i64 1, ptr nonnull %28)
IC: Visiting:   call void @comet_print_memref_i64(i64 1, ptr nonnull %28)
IC: Visiting:   call void @comet_print_memref_i64(i64 1, ptr %37)
IC: Mod =   call void @comet_print_memref_i64(i64 1, ptr %37)
    New =   call void @comet_print_memref_i64(i64 1, ptr nonnull %37)
ADD:   call void @comet_print_memref_i64(i64 1, ptr nonnull %37)
IC: Visiting:   call void @comet_print_memref_i64(i64 1, ptr nonnull %37)
IC: Visiting:   call void @comet_print_memref_i64(i64 1, ptr %46)
IC: Mod =   call void @comet_print_memref_i64(i64 1, ptr %46)
    New =   call void @comet_print_memref_i64(i64 1, ptr nonnull %46)
ADD:   call void @comet_print_memref_i64(i64 1, ptr nonnull %46)
IC: Visiting:   call void @comet_print_memref_i64(i64 1, ptr nonnull %46)
IC: Visiting:   call void @comet_print_memref_i64(i64 1, ptr %55)
IC: Mod =   call void @comet_print_memref_i64(i64 1, ptr %55)
    New =   call void @comet_print_memref_i64(i64 1, ptr nonnull %55)
ADD:   call void @comet_print_memref_i64(i64 1, ptr nonnull %55)
IC: Visiting:   call void @comet_print_memref_i64(i64 1, ptr nonnull %55)
IC: Visiting:   call void @comet_print_memref_i64(i64 1, ptr %64)
IC: Mod =   call void @comet_print_memref_i64(i64 1, ptr %64)
    New =   call void @comet_print_memref_i64(i64 1, ptr nonnull %64)
ADD:   call void @comet_print_memref_i64(i64 1, ptr nonnull %64)
IC: Visiting:   call void @comet_print_memref_i64(i64 1, ptr nonnull %64)
IC: Visiting:   call void @comet_print_memref_i64(i64 1, ptr %73)
IC: Mod =   call void @comet_print_memref_i64(i64 1, ptr %73)
    New =   call void @comet_print_memref_i64(i64 1, ptr nonnull %73)
ADD:   call void @comet_print_memref_i64(i64 1, ptr nonnull %73)
IC: Visiting:   call void @comet_print_memref_i64(i64 1, ptr nonnull %73)
IC: Visiting:   call void @comet_print_memref_i64(i64 1, ptr %82)
IC: Mod =   call void @comet_print_memref_i64(i64 1, ptr %82)
    New =   call void @comet_print_memref_i64(i64 1, ptr nonnull %82)
ADD:   call void @comet_print_memref_i64(i64 1, ptr nonnull %82)
IC: Visiting:   call void @comet_print_memref_i64(i64 1, ptr nonnull %82)
IC: Visiting:   call void @comet_print_memref_i64(i64 1, ptr %91)
IC: Mod =   call void @comet_print_memref_i64(i64 1, ptr %91)
    New =   call void @comet_print_memref_i64(i64 1, ptr nonnull %91)
ADD:   call void @comet_print_memref_i64(i64 1, ptr nonnull %91)
IC: Visiting:   call void @comet_print_memref_i64(i64 1, ptr nonnull %91)
IC: Visiting:   call void @comet_print_memref_f64(i64 1, ptr %100)
IC: Mod =   call void @comet_print_memref_f64(i64 1, ptr %100)
    New =   call void @comet_print_memref_f64(i64 1, ptr nonnull %100)
ADD:   call void @comet_print_memref_f64(i64 1, ptr nonnull %100)
IC: Visiting:   call void @comet_print_memref_f64(i64 1, ptr nonnull %100)
IC: Visiting:   ret void
IC: Visiting:   %97 = getelementptr double, ptr %92, i64 %94
IC: Visiting:   store double 0.000000e+00, ptr %97, align 8
IC: Visiting:   %98 = add i64 %94, 1
IC: Visiting:   br label %93
IC: Visiting:   %88 = getelementptr i64, ptr %83, i64 %85
IC: Visiting:   store i64 0, ptr %88, align 4
IC: Visiting:   %89 = add i64 %85, 1
IC: Visiting:   br label %84
IC: Visiting:   %79 = getelementptr i64, ptr %74, i64 %76
IC: Visiting:   store i64 0, ptr %79, align 4
IC: Visiting:   %80 = add i64 %76, 1
IC: Visiting:   br label %75
IC: Visiting:   %70 = getelementptr i64, ptr %65, i64 %67
IC: Visiting:   store i64 0, ptr %70, align 4
IC: Visiting:   %71 = add i64 %67, 1
IC: Visiting:   br label %66
IC: Visiting:   %61 = getelementptr i64, ptr %56, i64 %58
IC: Visiting:   store i64 0, ptr %61, align 4
IC: Visiting:   %62 = add i64 %58, 1
IC: Visiting:   br label %57
IC: Visiting:   %52 = getelementptr i64, ptr %47, i64 %49
IC: Visiting:   store i64 0, ptr %52, align 4
IC: Visiting:   %53 = add i64 %49, 1
IC: Visiting:   br label %48
IC: Visiting:   %43 = getelementptr i64, ptr %38, i64 %40
IC: Visiting:   store i64 0, ptr %43, align 4
IC: Visiting:   %44 = add i64 %40, 1
IC: Visiting:   br label %39
IC: Visiting:   %34 = getelementptr i64, ptr %29, i64 %31
IC: Visiting:   store i64 0, ptr %34, align 4
IC: Visiting:   %35 = add i64 %31, 1
IC: Visiting:   br label %30
IC: Visiting:   %25 = getelementptr i64, ptr %20, i64 %22
IC: Visiting:   store i64 0, ptr %25, align 4
IC: Visiting:   %26 = add i64 %22, 1
IC: Visiting:   br label %21


INSTCOMBINE ITERATION #2 on main
ADD:   br label %21
ADD:   %26 = add i64 %22, 1
ADD:   store i64 0, ptr %25, align 4
ADD:   %25 = getelementptr i64, ptr %20, i64 %22
ADD:   br label %30
ADD:   %35 = add i64 %31, 1
ADD:   store i64 0, ptr %34, align 4
ADD:   %34 = getelementptr i64, ptr %29, i64 %31
ADD:   br label %39
ADD:   %44 = add i64 %40, 1
ADD:   store i64 0, ptr %43, align 4
ADD:   %43 = getelementptr i64, ptr %38, i64 %40
ADD:   br label %48
ADD:   %53 = add i64 %49, 1
ADD:   store i64 0, ptr %52, align 4
ADD:   %52 = getelementptr i64, ptr %47, i64 %49
ADD:   br label %57
ADD:   %62 = add i64 %58, 1
ADD:   store i64 0, ptr %61, align 4
ADD:   %61 = getelementptr i64, ptr %56, i64 %58
ADD:   br label %66
ADD:   %71 = add i64 %67, 1
ADD:   store i64 0, ptr %70, align 4
ADD:   %70 = getelementptr i64, ptr %65, i64 %67
ADD:   br label %75
ADD:   %80 = add i64 %76, 1
ADD:   store i64 0, ptr %79, align 4
ADD:   %79 = getelementptr i64, ptr %74, i64 %76
ADD:   br label %84
ADD:   %89 = add i64 %85, 1
ADD:   store i64 0, ptr %88, align 4
ADD:   %88 = getelementptr i64, ptr %83, i64 %85
ADD:   br label %93
ADD:   %98 = add i64 %94, 1
ADD:   store double 0.000000e+00, ptr %97, align 8
ADD:   %97 = getelementptr double, ptr %92, i64 %94
ADD:   ret void
ADD:   call void @comet_print_memref_f64(i64 1, ptr nonnull %100)
ADD:   call void @comet_print_memref_i64(i64 1, ptr nonnull %91)
ADD:   call void @comet_print_memref_i64(i64 1, ptr nonnull %82)
ADD:   call void @comet_print_memref_i64(i64 1, ptr nonnull %73)
ADD:   call void @comet_print_memref_i64(i64 1, ptr nonnull %64)
ADD:   call void @comet_print_memref_i64(i64 1, ptr nonnull %55)
ADD:   call void @comet_print_memref_i64(i64 1, ptr nonnull %46)
ADD:   call void @comet_print_memref_i64(i64 1, ptr nonnull %37)
ADD:   call void @comet_print_memref_i64(i64 1, ptr nonnull %28)
ADD:   call void @read_input_2D_f64(i32 1, i64 0, i64 3, i64 0, i64 -1, i64 1, ptr nonnull %28, i64 1, ptr nonnull %37, i64 1, ptr nonnull %46, i64 1, ptr nonnull %55, i64 1, ptr nonnull %64, i64 1, ptr nonnull %73, i64 1, ptr nonnull %82, i64 1, ptr nonnull %91, i64 1, ptr nonnull %100, i32 1)
ADD:   store i64 1, ptr %.repack87, align 8
ADD:   %.repack87 = getelementptr inbounds { ptr, ptr, i64, [1 x i64], [1 x i64] }, ptr %100, i64 0, i32 4
ADD:   store i64 %19, ptr %.repack85, align 8
ADD:   %.repack85 = getelementptr inbounds { ptr, ptr, i64, [1 x i64], [1 x i64] }, ptr %100, i64 0, i32 3
ADD:   store i64 0, ptr %.repack83, align 8
ADD:   %.repack83 = getelementptr inbounds { ptr, ptr, i64, [1 x i64], [1 x i64] }, ptr %100, i64 0, i32 2
ADD:   store ptr %92, ptr %.repack81, align 8
ADD:   %.repack81 = getelementptr inbounds { ptr, ptr, i64, [1 x i64], [1 x i64] }, ptr %100, i64 0, i32 1
ADD:   store ptr %92, ptr %100, align 8
ADD:   %100 = alloca { ptr, ptr, i64, [1 x i64], [1 x i64] }, align 8
ADD:   br i1 %95, label %96, label %99
ADD:   %95 = icmp slt i64 %94, %19
ADD:   %94 = phi i64 [ %98, %96 ], [ 0, %90 ]
ADD:   br label %93
ADD:   %92 = call ptr @malloc(i64 %.idx80)
ADD:   %.idx80 = shl i64 %19, 3
ADD:   store i64 1, ptr %.repack78, align 8
ADD:   %.repack78 = getelementptr inbounds { ptr, ptr, i64, [1 x i64], [1 x i64] }, ptr %91, i64 0, i32 4
ADD:   store i64 %17, ptr %.repack76, align 8
ADD:   %.repack76 = getelementptr inbounds { ptr, ptr, i64, [1 x i64], [1 x i64] }, ptr %91, i64 0, i32 3
ADD:   store i64 0, ptr %.repack74, align 8
ADD:   %.repack74 = getelementptr inbounds { ptr, ptr, i64, [1 x i64], [1 x i64] }, ptr %91, i64 0, i32 2
ADD:   store ptr %83, ptr %.repack72, align 8
ADD:   %.repack72 = getelementptr inbounds { ptr, ptr, i64, [1 x i64], [1 x i64] }, ptr %91, i64 0, i32 1
ADD:   store ptr %83, ptr %91, align 8
ADD:   %91 = alloca { ptr, ptr, i64, [1 x i64], [1 x i64] }, align 8
ADD:   br i1 %86, label %87, label %90
ADD:   %86 = icmp slt i64 %85, %17
ADD:   %85 = phi i64 [ %89, %87 ], [ 0, %81 ]
ADD:   br label %84
ADD:   %83 = call ptr @malloc(i64 %.idx71)
ADD:   %.idx71 = shl i64 %17, 3
ADD:   store i64 1, ptr %.repack69, align 8
ADD:   %.repack69 = getelementptr inbounds { ptr, ptr, i64, [1 x i64], [1 x i64] }, ptr %82, i64 0, i32 4
ADD:   store i64 %15, ptr %.repack67, align 8
ADD:   %.repack67 = getelementptr inbounds { ptr, ptr, i64, [1 x i64], [1 x i64] }, ptr %82, i64 0, i32 3
ADD:   store i64 0, ptr %.repack65, align 8
ADD:   %.repack65 = getelementptr inbounds { ptr, ptr, i64, [1 x i64], [1 x i64] }, ptr %82, i64 0, i32 2
ADD:   store ptr %74, ptr %.repack63, align 8
ADD:   %.repack63 = getelementptr inbounds { ptr, ptr, i64, [1 x i64], [1 x i64] }, ptr %82, i64 0, i32 1
ADD:   store ptr %74, ptr %82, align 8
ADD:   %82 = alloca { ptr, ptr, i64, [1 x i64], [1 x i64] }, align 8
ADD:   br i1 %77, label %78, label %81
ADD:   %77 = icmp slt i64 %76, %15
ADD:   %76 = phi i64 [ %80, %78 ], [ 0, %72 ]
ADD:   br label %75
ADD:   %74 = call ptr @malloc(i64 %.idx62)
ADD:   %.idx62 = shl i64 %15, 3
ADD:   store i64 1, ptr %.repack60, align 8
ADD:   %.repack60 = getelementptr inbounds { ptr, ptr, i64, [1 x i64], [1 x i64] }, ptr %73, i64 0, i32 4
ADD:   store i64 %13, ptr %.repack58, align 8
ADD:   %.repack58 = getelementptr inbounds { ptr, ptr, i64, [1 x i64], [1 x i64] }, ptr %73, i64 0, i32 3
ADD:   store i64 0, ptr %.repack56, align 8
ADD:   %.repack56 = getelementptr inbounds { ptr, ptr, i64, [1 x i64], [1 x i64] }, ptr %73, i64 0, i32 2
ADD:   store ptr %65, ptr %.repack54, align 8
ADD:   %.repack54 = getelementptr inbounds { ptr, ptr, i64, [1 x i64], [1 x i64] }, ptr %73, i64 0, i32 1
ADD:   store ptr %65, ptr %73, align 8
ADD:   %73 = alloca { ptr, ptr, i64, [1 x i64], [1 x i64] }, align 8
ADD:   br i1 %68, label %69, label %72
ADD:   %68 = icmp slt i64 %67, %13
ADD:   %67 = phi i64 [ %71, %69 ], [ 0, %63 ]
ADD:   br label %66
ADD:   %65 = call ptr @malloc(i64 %.idx53)
ADD:   %.idx53 = shl i64 %13, 3
ADD:   store i64 1, ptr %.repack51, align 8
ADD:   %.repack51 = getelementptr inbounds { ptr, ptr, i64, [1 x i64], [1 x i64] }, ptr %64, i64 0, i32 4
ADD:   store i64 %11, ptr %.repack49, align 8
ADD:   %.repack49 = getelementptr inbounds { ptr, ptr, i64, [1 x i64], [1 x i64] }, ptr %64, i64 0, i32 3
ADD:   store i64 0, ptr %.repack47, align 8
ADD:   %.repack47 = getelementptr inbounds { ptr, ptr, i64, [1 x i64], [1 x i64] }, ptr %64, i64 0, i32 2
ADD:   store ptr %56, ptr %.repack45, align 8
ADD:   %.repack45 = getelementptr inbounds { ptr, ptr, i64, [1 x i64], [1 x i64] }, ptr %64, i64 0, i32 1
ADD:   store ptr %56, ptr %64, align 8
ADD:   %64 = alloca { ptr, ptr, i64, [1 x i64], [1 x i64] }, align 8
ADD:   br i1 %59, label %60, label %63
ADD:   %59 = icmp slt i64 %58, %11
ADD:   %58 = phi i64 [ %62, %60 ], [ 0, %54 ]
ADD:   br label %57
ADD:   %56 = call ptr @malloc(i64 %.idx44)
ADD:   %.idx44 = shl i64 %11, 3
ADD:   store i64 1, ptr %.repack42, align 8
ADD:   %.repack42 = getelementptr inbounds { ptr, ptr, i64, [1 x i64], [1 x i64] }, ptr %55, i64 0, i32 4
ADD:   store i64 %9, ptr %.repack40, align 8
ADD:   %.repack40 = getelementptr inbounds { ptr, ptr, i64, [1 x i64], [1 x i64] }, ptr %55, i64 0, i32 3
ADD:   store i64 0, ptr %.repack38, align 8
ADD:   %.repack38 = getelementptr inbounds { ptr, ptr, i64, [1 x i64], [1 x i64] }, ptr %55, i64 0, i32 2
ADD:   store ptr %47, ptr %.repack36, align 8
ADD:   %.repack36 = getelementptr inbounds { ptr, ptr, i64, [1 x i64], [1 x i64] }, ptr %55, i64 0, i32 1
ADD:   store ptr %47, ptr %55, align 8
ADD:   %55 = alloca { ptr, ptr, i64, [1 x i64], [1 x i64] }, align 8
ADD:   br i1 %50, label %51, label %54
ADD:   %50 = icmp slt i64 %49, %9
ADD:   %49 = phi i64 [ %53, %51 ], [ 0, %45 ]
ADD:   br label %48
ADD:   %47 = call ptr @malloc(i64 %.idx35)
ADD:   %.idx35 = shl i64 %9, 3
ADD:   store i64 1, ptr %.repack33, align 8
ADD:   %.repack33 = getelementptr inbounds { ptr, ptr, i64, [1 x i64], [1 x i64] }, ptr %46, i64 0, i32 4
ADD:   store i64 %7, ptr %.repack31, align 8
ADD:   %.repack31 = getelementptr inbounds { ptr, ptr, i64, [1 x i64], [1 x i64] }, ptr %46, i64 0, i32 3
ADD:   store i64 0, ptr %.repack29, align 8
ADD:   %.repack29 = getelementptr inbounds { ptr, ptr, i64, [1 x i64], [1 x i64] }, ptr %46, i64 0, i32 2
ADD:   store ptr %38, ptr %.repack27, align 8
ADD:   %.repack27 = getelementptr inbounds { ptr, ptr, i64, [1 x i64], [1 x i64] }, ptr %46, i64 0, i32 1
ADD:   store ptr %38, ptr %46, align 8
ADD:   %46 = alloca { ptr, ptr, i64, [1 x i64], [1 x i64] }, align 8
ADD:   br i1 %41, label %42, label %45
ADD:   %41 = icmp slt i64 %40, %7
ADD:   %40 = phi i64 [ %44, %42 ], [ 0, %36 ]
ADD:   br label %39
ADD:   %38 = call ptr @malloc(i64 %.idx26)
ADD:   %.idx26 = shl i64 %7, 3
ADD:   store i64 1, ptr %.repack24, align 8
ADD:   %.repack24 = getelementptr inbounds { ptr, ptr, i64, [1 x i64], [1 x i64] }, ptr %37, i64 0, i32 4
ADD:   store i64 %5, ptr %.repack22, align 8
ADD:   %.repack22 = getelementptr inbounds { ptr, ptr, i64, [1 x i64], [1 x i64] }, ptr %37, i64 0, i32 3
ADD:   store i64 0, ptr %.repack20, align 8
ADD:   %.repack20 = getelementptr inbounds { ptr, ptr, i64, [1 x i64], [1 x i64] }, ptr %37, i64 0, i32 2
ADD:   store ptr %29, ptr %.repack18, align 8
ADD:   %.repack18 = getelementptr inbounds { ptr, ptr, i64, [1 x i64], [1 x i64] }, ptr %37, i64 0, i32 1
ADD:   store ptr %29, ptr %37, align 8
ADD:   %37 = alloca { ptr, ptr, i64, [1 x i64], [1 x i64] }, align 8
ADD:   br i1 %32, label %33, label %36
ADD:   %32 = icmp slt i64 %31, %5
ADD:   %31 = phi i64 [ %35, %33 ], [ 0, %27 ]
ADD:   br label %30
ADD:   %29 = call ptr @malloc(i64 %.idx17)
ADD:   %.idx17 = shl i64 %5, 3
ADD:   store i64 1, ptr %.repack15, align 8
ADD:   %.repack15 = getelementptr inbounds { ptr, ptr, i64, [1 x i64], [1 x i64] }, ptr %28, i64 0, i32 4
ADD:   store i64 %3, ptr %.repack13, align 8
ADD:   %.repack13 = getelementptr inbounds { ptr, ptr, i64, [1 x i64], [1 x i64] }, ptr %28, i64 0, i32 3
ADD:   store i64 0, ptr %.repack11, align 8
ADD:   %.repack11 = getelementptr inbounds { ptr, ptr, i64, [1 x i64], [1 x i64] }, ptr %28, i64 0, i32 2
ADD:   store ptr %20, ptr %.repack9, align 8
ADD:   %.repack9 = getelementptr inbounds { ptr, ptr, i64, [1 x i64], [1 x i64] }, ptr %28, i64 0, i32 1
ADD:   store ptr %20, ptr %28, align 8
ADD:   %28 = alloca { ptr, ptr, i64, [1 x i64], [1 x i64] }, align 8
ADD:   br i1 %23, label %24, label %27
ADD:   %23 = icmp slt i64 %22, %3
ADD:   %22 = phi i64 [ %26, %24 ], [ 0, %0 ]
ADD:   br label %21
ADD:   %20 = call ptr @malloc(i64 %.idx)
ADD:   %.idx = shl i64 %3, 3
ADD:   %19 = load i64, ptr %18, align 4
ADD:   %18 = getelementptr i64, ptr %1, i64 8
ADD:   %17 = load i64, ptr %16, align 4
ADD:   %16 = getelementptr i64, ptr %1, i64 7
ADD:   %15 = load i64, ptr %14, align 4
ADD:   %14 = getelementptr i64, ptr %1, i64 6
ADD:   %13 = load i64, ptr %12, align 4
ADD:   %12 = getelementptr i64, ptr %1, i64 5
ADD:   %11 = load i64, ptr %10, align 4
ADD:   %10 = getelementptr i64, ptr %1, i64 4
ADD:   %9 = load i64, ptr %8, align 4
ADD:   %8 = getelementptr i64, ptr %1, i64 3
ADD:   %7 = load i64, ptr %6, align 4
ADD:   %6 = getelementptr i64, ptr %1, i64 2
ADD:   %5 = load i64, ptr %4, align 4
ADD:   %4 = getelementptr i64, ptr %1, i64 1
ADD:   %3 = load i64, ptr %1, align 4
ADD:   call void @read_input_sizes_2D_f64(i32 1, i64 0, i64 3, i64 0, i64 -1, i64 1, ptr nonnull %2, i32 1)
ADD:   store i64 1, ptr %.fca.4.0.gep, align 8
ADD:   %.fca.4.0.gep = getelementptr inbounds { ptr, ptr, i64, [1 x i64], [1 x i64] }, ptr %2, i64 0, i32 4, i64 0
ADD:   store i64 7, ptr %.fca.3.0.gep, align 8
ADD:   %.fca.3.0.gep = getelementptr inbounds { ptr, ptr, i64, [1 x i64], [1 x i64] }, ptr %2, i64 0, i32 3, i64 0
ADD:   store i64 0, ptr %.fca.2.gep, align 8
ADD:   %.fca.2.gep = getelementptr inbounds { ptr, ptr, i64, [1 x i64], [1 x i64] }, ptr %2, i64 0, i32 2
ADD:   store ptr %1, ptr %.fca.1.gep, align 8
ADD:   %.fca.1.gep = getelementptr inbounds { ptr, ptr, i64, [1 x i64], [1 x i64] }, ptr %2, i64 0, i32 1
ADD:   store ptr %1, ptr %2, align 8
ADD:   %2 = alloca { ptr, ptr, i64, [1 x i64], [1 x i64] }, align 8
ADD:   %1 = call dereferenceable_or_null(56) ptr @malloc(i64 56)
IC: Visiting:   %1 = call dereferenceable_or_null(56) ptr @malloc(i64 56)
IC: Visiting:   %2 = alloca { ptr, ptr, i64, [1 x i64], [1 x i64] }, align 8
IC: Visiting:   store ptr %1, ptr %2, align 8
IC: Visiting:   %.fca.1.gep = getelementptr inbounds { ptr, ptr, i64, [1 x i64], [1 x i64] }, ptr %2, i64 0, i32 1
IC: Visiting:   store ptr %1, ptr %.fca.1.gep, align 8
IC: Visiting:   %.fca.2.gep = getelementptr inbounds { ptr, ptr, i64, [1 x i64], [1 x i64] }, ptr %2, i64 0, i32 2
IC: Visiting:   store i64 0, ptr %.fca.2.gep, align 8
IC: Visiting:   %.fca.3.0.gep = getelementptr inbounds { ptr, ptr, i64, [1 x i64], [1 x i64] }, ptr %2, i64 0, i32 3, i64 0
IC: Visiting:   store i64 7, ptr %.fca.3.0.gep, align 8
IC: Visiting:   %.fca.4.0.gep = getelementptr inbounds { ptr, ptr, i64, [1 x i64], [1 x i64] }, ptr %2, i64 0, i32 4, i64 0
IC: Visiting:   store i64 1, ptr %.fca.4.0.gep, align 8
IC: Visiting:   call void @read_input_sizes_2D_f64(i32 1, i64 0, i64 3, i64 0, i64 -1, i64 1, ptr nonnull %2, i32 1)
IC: Visiting:   %3 = load i64, ptr %1, align 4
IC: Visiting:   %4 = getelementptr i64, ptr %1, i64 1
IC: Visiting:   %5 = load i64, ptr %4, align 4
IC: Visiting:   %6 = getelementptr i64, ptr %1, i64 2
IC: Visiting:   %7 = load i64, ptr %6, align 4
IC: Visiting:   %8 = getelementptr i64, ptr %1, i64 3
IC: Visiting:   %9 = load i64, ptr %8, align 4
IC: Visiting:   %10 = getelementptr i64, ptr %1, i64 4
IC: Visiting:   %11 = load i64, ptr %10, align 4
IC: Visiting:   %12 = getelementptr i64, ptr %1, i64 5
IC: Visiting:   %13 = load i64, ptr %12, align 4
IC: Visiting:   %14 = getelementptr i64, ptr %1, i64 6
IC: Visiting:   %15 = load i64, ptr %14, align 4
IC: Visiting:   %16 = getelementptr i64, ptr %1, i64 7
IC: Visiting:   %17 = load i64, ptr %16, align 4
IC: Visiting:   %18 = getelementptr i64, ptr %1, i64 8
IC: Visiting:   %19 = load i64, ptr %18, align 4
IC: Visiting:   %.idx = shl i64 %3, 3
IC: Visiting:   %20 = call ptr @malloc(i64 %.idx)
IC: Visiting:   br label %21
IC: Visiting:   %22 = phi i64 [ %26, %24 ], [ 0, %0 ]
IC: Visiting:   %23 = icmp slt i64 %22, %3
IC: Visiting:   br i1 %23, label %24, label %27
IC: Visiting:   %28 = alloca { ptr, ptr, i64, [1 x i64], [1 x i64] }, align 8
IC: Visiting:   store ptr %20, ptr %28, align 8
IC: Visiting:   %.repack9 = getelementptr inbounds { ptr, ptr, i64, [1 x i64], [1 x i64] }, ptr %28, i64 0, i32 1
IC: Visiting:   store ptr %20, ptr %.repack9, align 8
IC: Visiting:   %.repack11 = getelementptr inbounds { ptr, ptr, i64, [1 x i64], [1 x i64] }, ptr %28, i64 0, i32 2
IC: Visiting:   store i64 0, ptr %.repack11, align 8
IC: Visiting:   %.repack13 = getelementptr inbounds { ptr, ptr, i64, [1 x i64], [1 x i64] }, ptr %28, i64 0, i32 3
IC: Visiting:   store i64 %3, ptr %.repack13, align 8
IC: Visiting:   %.repack15 = getelementptr inbounds { ptr, ptr, i64, [1 x i64], [1 x i64] }, ptr %28, i64 0, i32 4
IC: Visiting:   store i64 1, ptr %.repack15, align 8
IC: Visiting:   %.idx17 = shl i64 %5, 3
IC: Visiting:   %29 = call ptr @malloc(i64 %.idx17)
IC: Visiting:   br label %30
IC: Visiting:   %31 = phi i64 [ %35, %33 ], [ 0, %27 ]
IC: Visiting:   %32 = icmp slt i64 %31, %5
IC: Visiting:   br i1 %32, label %33, label %36
IC: Visiting:   %37 = alloca { ptr, ptr, i64, [1 x i64], [1 x i64] }, align 8
IC: Visiting:   store ptr %29, ptr %37, align 8
IC: Visiting:   %.repack18 = getelementptr inbounds { ptr, ptr, i64, [1 x i64], [1 x i64] }, ptr %37, i64 0, i32 1
IC: Visiting:   store ptr %29, ptr %.repack18, align 8
IC: Visiting:   %.repack20 = getelementptr inbounds { ptr, ptr, i64, [1 x i64], [1 x i64] }, ptr %37, i64 0, i32 2
IC: Visiting:   store i64 0, ptr %.repack20, align 8
IC: Visiting:   %.repack22 = getelementptr inbounds { ptr, ptr, i64, [1 x i64], [1 x i64] }, ptr %37, i64 0, i32 3
IC: Visiting:   store i64 %5, ptr %.repack22, align 8
IC: Visiting:   %.repack24 = getelementptr inbounds { ptr, ptr, i64, [1 x i64], [1 x i64] }, ptr %37, i64 0, i32 4
IC: Visiting:   store i64 1, ptr %.repack24, align 8
IC: Visiting:   %.idx26 = shl i64 %7, 3
IC: Visiting:   %38 = call ptr @malloc(i64 %.idx26)
IC: Visiting:   br label %39
IC: Visiting:   %40 = phi i64 [ %44, %42 ], [ 0, %36 ]
IC: Visiting:   %41 = icmp slt i64 %40, %7
IC: Visiting:   br i1 %41, label %42, label %45
IC: Visiting:   %46 = alloca { ptr, ptr, i64, [1 x i64], [1 x i64] }, align 8
IC: Visiting:   store ptr %38, ptr %46, align 8
IC: Visiting:   %.repack27 = getelementptr inbounds { ptr, ptr, i64, [1 x i64], [1 x i64] }, ptr %46, i64 0, i32 1
IC: Visiting:   store ptr %38, ptr %.repack27, align 8
IC: Visiting:   %.repack29 = getelementptr inbounds { ptr, ptr, i64, [1 x i64], [1 x i64] }, ptr %46, i64 0, i32 2
IC: Visiting:   store i64 0, ptr %.repack29, align 8
IC: Visiting:   %.repack31 = getelementptr inbounds { ptr, ptr, i64, [1 x i64], [1 x i64] }, ptr %46, i64 0, i32 3
IC: Visiting:   store i64 %7, ptr %.repack31, align 8
IC: Visiting:   %.repack33 = getelementptr inbounds { ptr, ptr, i64, [1 x i64], [1 x i64] }, ptr %46, i64 0, i32 4
IC: Visiting:   store i64 1, ptr %.repack33, align 8
IC: Visiting:   %.idx35 = shl i64 %9, 3
IC: Visiting:   %47 = call ptr @malloc(i64 %.idx35)
IC: Visiting:   br label %48
IC: Visiting:   %49 = phi i64 [ %53, %51 ], [ 0, %45 ]
IC: Visiting:   %50 = icmp slt i64 %49, %9
IC: Visiting:   br i1 %50, label %51, label %54
IC: Visiting:   %55 = alloca { ptr, ptr, i64, [1 x i64], [1 x i64] }, align 8
IC: Visiting:   store ptr %47, ptr %55, align 8
IC: Visiting:   %.repack36 = getelementptr inbounds { ptr, ptr, i64, [1 x i64], [1 x i64] }, ptr %55, i64 0, i32 1
IC: Visiting:   store ptr %47, ptr %.repack36, align 8
IC: Visiting:   %.repack38 = getelementptr inbounds { ptr, ptr, i64, [1 x i64], [1 x i64] }, ptr %55, i64 0, i32 2
IC: Visiting:   store i64 0, ptr %.repack38, align 8
IC: Visiting:   %.repack40 = getelementptr inbounds { ptr, ptr, i64, [1 x i64], [1 x i64] }, ptr %55, i64 0, i32 3
IC: Visiting:   store i64 %9, ptr %.repack40, align 8
IC: Visiting:   %.repack42 = getelementptr inbounds { ptr, ptr, i64, [1 x i64], [1 x i64] }, ptr %55, i64 0, i32 4
IC: Visiting:   store i64 1, ptr %.repack42, align 8
IC: Visiting:   %.idx44 = shl i64 %11, 3
IC: Visiting:   %56 = call ptr @malloc(i64 %.idx44)
IC: Visiting:   br label %57
IC: Visiting:   %58 = phi i64 [ %62, %60 ], [ 0, %54 ]
IC: Visiting:   %59 = icmp slt i64 %58, %11
IC: Visiting:   br i1 %59, label %60, label %63
IC: Visiting:   %64 = alloca { ptr, ptr, i64, [1 x i64], [1 x i64] }, align 8
IC: Visiting:   store ptr %56, ptr %64, align 8
IC: Visiting:   %.repack45 = getelementptr inbounds { ptr, ptr, i64, [1 x i64], [1 x i64] }, ptr %64, i64 0, i32 1
IC: Visiting:   store ptr %56, ptr %.repack45, align 8
IC: Visiting:   %.repack47 = getelementptr inbounds { ptr, ptr, i64, [1 x i64], [1 x i64] }, ptr %64, i64 0, i32 2
IC: Visiting:   store i64 0, ptr %.repack47, align 8
IC: Visiting:   %.repack49 = getelementptr inbounds { ptr, ptr, i64, [1 x i64], [1 x i64] }, ptr %64, i64 0, i32 3
IC: Visiting:   store i64 %11, ptr %.repack49, align 8
IC: Visiting:   %.repack51 = getelementptr inbounds { ptr, ptr, i64, [1 x i64], [1 x i64] }, ptr %64, i64 0, i32 4
IC: Visiting:   store i64 1, ptr %.repack51, align 8
IC: Visiting:   %.idx53 = shl i64 %13, 3
IC: Visiting:   %65 = call ptr @malloc(i64 %.idx53)
IC: Visiting:   br label %66
IC: Visiting:   %67 = phi i64 [ %71, %69 ], [ 0, %63 ]
IC: Visiting:   %68 = icmp slt i64 %67, %13
IC: Visiting:   br i1 %68, label %69, label %72
IC: Visiting:   %73 = alloca { ptr, ptr, i64, [1 x i64], [1 x i64] }, align 8
IC: Visiting:   store ptr %65, ptr %73, align 8
IC: Visiting:   %.repack54 = getelementptr inbounds { ptr, ptr, i64, [1 x i64], [1 x i64] }, ptr %73, i64 0, i32 1
IC: Visiting:   store ptr %65, ptr %.repack54, align 8
IC: Visiting:   %.repack56 = getelementptr inbounds { ptr, ptr, i64, [1 x i64], [1 x i64] }, ptr %73, i64 0, i32 2
IC: Visiting:   store i64 0, ptr %.repack56, align 8
IC: Visiting:   %.repack58 = getelementptr inbounds { ptr, ptr, i64, [1 x i64], [1 x i64] }, ptr %73, i64 0, i32 3
IC: Visiting:   store i64 %13, ptr %.repack58, align 8
IC: Visiting:   %.repack60 = getelementptr inbounds { ptr, ptr, i64, [1 x i64], [1 x i64] }, ptr %73, i64 0, i32 4
IC: Visiting:   store i64 1, ptr %.repack60, align 8
IC: Visiting:   %.idx62 = shl i64 %15, 3
IC: Visiting:   %74 = call ptr @malloc(i64 %.idx62)
IC: Visiting:   br label %75
IC: Visiting:   %76 = phi i64 [ %80, %78 ], [ 0, %72 ]
IC: Visiting:   %77 = icmp slt i64 %76, %15
IC: Visiting:   br i1 %77, label %78, label %81
IC: Visiting:   %82 = alloca { ptr, ptr, i64, [1 x i64], [1 x i64] }, align 8
IC: Visiting:   store ptr %74, ptr %82, align 8
IC: Visiting:   %.repack63 = getelementptr inbounds { ptr, ptr, i64, [1 x i64], [1 x i64] }, ptr %82, i64 0, i32 1
IC: Visiting:   store ptr %74, ptr %.repack63, align 8
IC: Visiting:   %.repack65 = getelementptr inbounds { ptr, ptr, i64, [1 x i64], [1 x i64] }, ptr %82, i64 0, i32 2
IC: Visiting:   store i64 0, ptr %.repack65, align 8
IC: Visiting:   %.repack67 = getelementptr inbounds { ptr, ptr, i64, [1 x i64], [1 x i64] }, ptr %82, i64 0, i32 3
IC: Visiting:   store i64 %15, ptr %.repack67, align 8
IC: Visiting:   %.repack69 = getelementptr inbounds { ptr, ptr, i64, [1 x i64], [1 x i64] }, ptr %82, i64 0, i32 4
IC: Visiting:   store i64 1, ptr %.repack69, align 8
IC: Visiting:   %.idx71 = shl i64 %17, 3
IC: Visiting:   %83 = call ptr @malloc(i64 %.idx71)
IC: Visiting:   br label %84
IC: Visiting:   %85 = phi i64 [ %89, %87 ], [ 0, %81 ]
IC: Visiting:   %86 = icmp slt i64 %85, %17
IC: Visiting:   br i1 %86, label %87, label %90
IC: Visiting:   %91 = alloca { ptr, ptr, i64, [1 x i64], [1 x i64] }, align 8
IC: Visiting:   store ptr %83, ptr %91, align 8
IC: Visiting:   %.repack72 = getelementptr inbounds { ptr, ptr, i64, [1 x i64], [1 x i64] }, ptr %91, i64 0, i32 1
IC: Visiting:   store ptr %83, ptr %.repack72, align 8
IC: Visiting:   %.repack74 = getelementptr inbounds { ptr, ptr, i64, [1 x i64], [1 x i64] }, ptr %91, i64 0, i32 2
IC: Visiting:   store i64 0, ptr %.repack74, align 8
IC: Visiting:   %.repack76 = getelementptr inbounds { ptr, ptr, i64, [1 x i64], [1 x i64] }, ptr %91, i64 0, i32 3
IC: Visiting:   store i64 %17, ptr %.repack76, align 8
IC: Visiting:   %.repack78 = getelementptr inbounds { ptr, ptr, i64, [1 x i64], [1 x i64] }, ptr %91, i64 0, i32 4
IC: Visiting:   store i64 1, ptr %.repack78, align 8
IC: Visiting:   %.idx80 = shl i64 %19, 3
IC: Visiting:   %92 = call ptr @malloc(i64 %.idx80)
IC: Visiting:   br label %93
IC: Visiting:   %94 = phi i64 [ %98, %96 ], [ 0, %90 ]
IC: Visiting:   %95 = icmp slt i64 %94, %19
IC: Visiting:   br i1 %95, label %96, label %99
IC: Visiting:   %100 = alloca { ptr, ptr, i64, [1 x i64], [1 x i64] }, align 8
IC: Visiting:   store ptr %92, ptr %100, align 8
IC: Visiting:   %.repack81 = getelementptr inbounds { ptr, ptr, i64, [1 x i64], [1 x i64] }, ptr %100, i64 0, i32 1
IC: Visiting:   store ptr %92, ptr %.repack81, align 8
IC: Visiting:   %.repack83 = getelementptr inbounds { ptr, ptr, i64, [1 x i64], [1 x i64] }, ptr %100, i64 0, i32 2
IC: Visiting:   store i64 0, ptr %.repack83, align 8
IC: Visiting:   %.repack85 = getelementptr inbounds { ptr, ptr, i64, [1 x i64], [1 x i64] }, ptr %100, i64 0, i32 3
IC: Visiting:   store i64 %19, ptr %.repack85, align 8
IC: Visiting:   %.repack87 = getelementptr inbounds { ptr, ptr, i64, [1 x i64], [1 x i64] }, ptr %100, i64 0, i32 4
IC: Visiting:   store i64 1, ptr %.repack87, align 8
IC: Visiting:   call void @read_input_2D_f64(i32 1, i64 0, i64 3, i64 0, i64 -1, i64 1, ptr nonnull %28, i64 1, ptr nonnull %37, i64 1, ptr nonnull %46, i64 1, ptr nonnull %55, i64 1, ptr nonnull %64, i64 1, ptr nonnull %73, i64 1, ptr nonnull %82, i64 1, ptr nonnull %91, i64 1, ptr nonnull %100, i32 1)
IC: Visiting:   call void @comet_print_memref_i64(i64 1, ptr nonnull %28)
IC: Visiting:   call void @comet_print_memref_i64(i64 1, ptr nonnull %37)
IC: Visiting:   call void @comet_print_memref_i64(i64 1, ptr nonnull %46)
IC: Visiting:   call void @comet_print_memref_i64(i64 1, ptr nonnull %55)
IC: Visiting:   call void @comet_print_memref_i64(i64 1, ptr nonnull %64)
IC: Visiting:   call void @comet_print_memref_i64(i64 1, ptr nonnull %73)
IC: Visiting:   call void @comet_print_memref_i64(i64 1, ptr nonnull %82)
IC: Visiting:   call void @comet_print_memref_i64(i64 1, ptr nonnull %91)
IC: Visiting:   call void @comet_print_memref_f64(i64 1, ptr nonnull %100)
IC: Visiting:   ret void
IC: Visiting:   %97 = getelementptr double, ptr %92, i64 %94
IC: Visiting:   store double 0.000000e+00, ptr %97, align 8
IC: Visiting:   %98 = add i64 %94, 1
IC: Visiting:   br label %93
IC: Visiting:   %88 = getelementptr i64, ptr %83, i64 %85
IC: Visiting:   store i64 0, ptr %88, align 4
IC: Visiting:   %89 = add i64 %85, 1
IC: Visiting:   br label %84
IC: Visiting:   %79 = getelementptr i64, ptr %74, i64 %76
IC: Visiting:   store i64 0, ptr %79, align 4
IC: Visiting:   %80 = add i64 %76, 1
IC: Visiting:   br label %75
IC: Visiting:   %70 = getelementptr i64, ptr %65, i64 %67
IC: Visiting:   store i64 0, ptr %70, align 4
IC: Visiting:   %71 = add i64 %67, 1
IC: Visiting:   br label %66
IC: Visiting:   %61 = getelementptr i64, ptr %56, i64 %58
IC: Visiting:   store i64 0, ptr %61, align 4
IC: Visiting:   %62 = add i64 %58, 1
IC: Visiting:   br label %57
IC: Visiting:   %52 = getelementptr i64, ptr %47, i64 %49
IC: Visiting:   store i64 0, ptr %52, align 4
IC: Visiting:   %53 = add i64 %49, 1
IC: Visiting:   br label %48
IC: Visiting:   %43 = getelementptr i64, ptr %38, i64 %40
IC: Visiting:   store i64 0, ptr %43, align 4
IC: Visiting:   %44 = add i64 %40, 1
IC: Visiting:   br label %39
IC: Visiting:   %34 = getelementptr i64, ptr %29, i64 %31
IC: Visiting:   store i64 0, ptr %34, align 4
IC: Visiting:   %35 = add i64 %31, 1
IC: Visiting:   br label %30
IC: Visiting:   %25 = getelementptr i64, ptr %20, i64 %22
IC: Visiting:   store i64 0, ptr %25, align 4
IC: Visiting:   %26 = add i64 %22, 1
IC: Visiting:   br label %21


INSTCOMBINE ITERATION #1 on _mlir_main
ADD:   ret void
ADD:   call void @main()
IC: Visiting:   call void @main()
IC: Visiting:   ret void
Using default inliner heuristic.
Building CG for module: LLVMDialectModule
  Adding 'main' to entry set of the graph.
    Added callable function: main
  Adding '_mlir_main' to entry set of the graph.
    Added callable function: _mlir_main
  Adding functions referenced by global initializers to the entry set.
  Adding functions called by 'main' to the graph.
  Adding functions called by '_mlir_main' to the graph.
    Added callable function: main
Running an SCC pass across the RefSCC: [(main)]
Running function passes across an SCC: (main)
SROA function: main
SROA alloca:   %2 = alloca { ptr, ptr, i64, [1 x i64], [1 x i64] }, align 8
  Rewriting FCA loads and stores...
Can't analyze slices for alloca:   %2 = alloca { ptr, ptr, i64, [1 x i64], [1 x i64] }, align 8
  A pointer to this alloca escaped by:
    call void @read_input_sizes_2D_f64(i32 1, i64 0, i64 3, i64 0, i64 -1, i64 1, ptr nonnull %2, i32 1)
EarlyCSE CVP: Add conditional value for '' as i1 true in 
EarlyCSE CVP: Add conditional value for '' as i1 false in 
EarlyCSE CVP: Add conditional value for '' as i1 true in 
EarlyCSE CVP: Add conditional value for '' as i1 false in 
EarlyCSE CVP: Add conditional value for '' as i1 true in 
EarlyCSE CVP: Add conditional value for '' as i1 false in 
EarlyCSE CVP: Add conditional value for '' as i1 true in 
EarlyCSE CVP: Add conditional value for '' as i1 false in 
EarlyCSE CVP: Add conditional value for '' as i1 true in 
EarlyCSE CVP: Add conditional value for '' as i1 false in 
EarlyCSE CVP: Add conditional value for '' as i1 true in 
EarlyCSE CVP: Add conditional value for '' as i1 false in 
EarlyCSE CVP: Add conditional value for '' as i1 true in 
EarlyCSE CVP: Add conditional value for '' as i1 false in 
EarlyCSE CVP: Add conditional value for '' as i1 true in 
EarlyCSE CVP: Add conditional value for '' as i1 false in 
EarlyCSE CVP: Add conditional value for '' as i1 true in 
EarlyCSE CVP: Add conditional value for '' as i1 false in 
Not running SpeculativeExecution because TTI->hasBranchDivergence() is false.
Jump threading on function 'main'
LVI Getting block end value   %.fca.1.gep = getelementptr inbounds { ptr, ptr, i64, [1 x i64], [1 x i64] }, ptr %2, i64 0, i32 1 at ''
PUSH:   %.fca.1.gep = getelementptr inbounds { ptr, ptr, i64, [1 x i64], [1 x i64] }, ptr %2, i64 0, i32 1 in 
POP   %.fca.1.gep = getelementptr inbounds { ptr, ptr, i64, [1 x i64], [1 x i64] }, ptr %2, i64 0, i32 1 in  = notconstant<ptr null>
  Result = notconstant<ptr null>
LVI Getting block end value   %.fca.2.gep = getelementptr inbounds { ptr, ptr, i64, [1 x i64], [1 x i64] }, ptr %2, i64 0, i32 2 at ''
PUSH:   %.fca.2.gep = getelementptr inbounds { ptr, ptr, i64, [1 x i64], [1 x i64] }, ptr %2, i64 0, i32 2 in 
POP   %.fca.2.gep = getelementptr inbounds { ptr, ptr, i64, [1 x i64], [1 x i64] }, ptr %2, i64 0, i32 2 in  = notconstant<ptr null>
  Result = notconstant<ptr null>
LVI Getting block end value   %.fca.3.0.gep = getelementptr inbounds { ptr, ptr, i64, [1 x i64], [1 x i64] }, ptr %2, i64 0, i32 3, i64 0 at ''
PUSH:   %.fca.3.0.gep = getelementptr inbounds { ptr, ptr, i64, [1 x i64], [1 x i64] }, ptr %2, i64 0, i32 3, i64 0 in 
POP   %.fca.3.0.gep = getelementptr inbounds { ptr, ptr, i64, [1 x i64], [1 x i64] }, ptr %2, i64 0, i32 3, i64 0 in  = notconstant<ptr null>
  Result = notconstant<ptr null>
LVI Getting block end value   %.fca.4.0.gep = getelementptr inbounds { ptr, ptr, i64, [1 x i64], [1 x i64] }, ptr %2, i64 0, i32 4, i64 0 at ''
PUSH:   %.fca.4.0.gep = getelementptr inbounds { ptr, ptr, i64, [1 x i64], [1 x i64] }, ptr %2, i64 0, i32 4, i64 0 in 
POP   %.fca.4.0.gep = getelementptr inbounds { ptr, ptr, i64, [1 x i64], [1 x i64] }, ptr %2, i64 0, i32 4, i64 0 in  = notconstant<ptr null>
  Result = notconstant<ptr null>
LVI Getting block end value   %1 = call dereferenceable_or_null(56) ptr @malloc(i64 56) at ''
PUSH:   %1 = call dereferenceable_or_null(56) ptr @malloc(i64 56) in 
 compute BB '' - unknown inst def found.
POP   %1 = call dereferenceable_or_null(56) ptr @malloc(i64 56) in  = overdefined
  Result = overdefined
LVI Getting block end value   %4 = getelementptr i64, ptr %1, i64 1 at ''
PUSH:   %4 = getelementptr i64, ptr %1, i64 1 in 
 compute BB '' - unknown inst def found.
POP   %4 = getelementptr i64, ptr %1, i64 1 in  = overdefined
  Result = overdefined
LVI Getting block end value   %6 = getelementptr i64, ptr %1, i64 2 at ''
PUSH:   %6 = getelementptr i64, ptr %1, i64 2 in 
 compute BB '' - unknown inst def found.
POP   %6 = getelementptr i64, ptr %1, i64 2 in  = overdefined
  Result = overdefined
LVI Getting block end value   %8 = getelementptr i64, ptr %1, i64 3 at ''
PUSH:   %8 = getelementptr i64, ptr %1, i64 3 in 
 compute BB '' - unknown inst def found.
POP   %8 = getelementptr i64, ptr %1, i64 3 in  = overdefined
  Result = overdefined
LVI Getting block end value   %10 = getelementptr i64, ptr %1, i64 4 at ''
PUSH:   %10 = getelementptr i64, ptr %1, i64 4 in 
 compute BB '' - unknown inst def found.
POP   %10 = getelementptr i64, ptr %1, i64 4 in  = overdefined
  Result = overdefined
LVI Getting block end value   %12 = getelementptr i64, ptr %1, i64 5 at ''
PUSH:   %12 = getelementptr i64, ptr %1, i64 5 in 
 compute BB '' - unknown inst def found.
POP   %12 = getelementptr i64, ptr %1, i64 5 in  = overdefined
  Result = overdefined
LVI Getting block end value   %14 = getelementptr i64, ptr %1, i64 6 at ''
PUSH:   %14 = getelementptr i64, ptr %1, i64 6 in 
 compute BB '' - unknown inst def found.
POP   %14 = getelementptr i64, ptr %1, i64 6 in  = overdefined
  Result = overdefined
LVI Getting block end value   %16 = getelementptr i64, ptr %1, i64 7 at ''
PUSH:   %16 = getelementptr i64, ptr %1, i64 7 in 
 compute BB '' - unknown inst def found.
POP   %16 = getelementptr i64, ptr %1, i64 7 in  = overdefined
  Result = overdefined
LVI Getting block end value   %18 = getelementptr i64, ptr %1, i64 8 at ''
PUSH:   %18 = getelementptr i64, ptr %1, i64 8 in 
 compute BB '' - unknown inst def found.
POP   %18 = getelementptr i64, ptr %1, i64 8 in  = overdefined
  Result = overdefined
LVI Getting block end value   %3 = load i64, ptr %1, align 4 at ''
PUSH:   %3 = load i64, ptr %1, align 4 in 
 compute BB '' - unknown inst def found.
POP   %3 = load i64, ptr %1, align 4 in  = overdefined
  Result = overdefined
LVI Getting block end value i64 3 at ''
  Result = constantrange<3, 4>
LVI Getting edge value   %26 = add i64 %22, 1 from '' to ''
PUSH:   %26 = add i64 %22, 1 in 
PUSH:   %22 = phi i64 [ %26, %24 ], [ 0, %0 ] in 
PUSH:   %22 = phi i64 [ %26, %24 ], [ 0, %0 ] in 
 compute BB '' - overdefined because of pred (local).
POP   %22 = phi i64 [ %26, %24 ], [ 0, %0 ] in  = overdefined
POP   %22 = phi i64 [ %26, %24 ], [ 0, %0 ] in  = constantrange<-9223372036854775808, 9223372036854775807>
POP   %26 = add i64 %22, 1 in  = constantrange<-9223372036854775807, -9223372036854775808>
  Result = constantrange<-9223372036854775807, -9223372036854775808>
LVI Getting block end value   %22 = phi i64 [ %26, %24 ], [ 0, %0 ] at ''
  Result = overdefined
LVI Getting block end value   %22 = phi i64 [ %26, %24 ], [ 0, %0 ] at ''
  Result = overdefined
LVI Getting block end value   %3 = load i64, ptr %1, align 4 at ''
PUSH:   %3 = load i64, ptr %1, align 4 in 
PUSH:   %3 = load i64, ptr %1, align 4 in 
POP   %3 = load i64, ptr %1, align 4 in  = constantrange<-9223372036854775807, -9223372036854775808>
 compute BB '' - overdefined because of pred '' (non local).
POP   %3 = load i64, ptr %1, align 4 in  = overdefined
  Result = overdefined
LVI Getting block end value   %25 = getelementptr i64, ptr %20, i64 %22 at ''
PUSH:   %25 = getelementptr i64, ptr %20, i64 %22 in 
 compute BB '' - unknown inst def found.
POP   %25 = getelementptr i64, ptr %20, i64 %22 in  = overdefined
  Result = overdefined
LVI Getting block end value   %22 = phi i64 [ %26, %24 ], [ 0, %0 ] at ''
  Result = constantrange<-9223372036854775808, 9223372036854775807>
LVI Getting block end value i64 1 at ''
  Result = constantrange<1, 2>
LVI Getting block end value   %.repack9 = getelementptr inbounds { ptr, ptr, i64, [1 x i64], [1 x i64] }, ptr %28, i64 0, i32 1 at ''
PUSH:   %.repack9 = getelementptr inbounds { ptr, ptr, i64, [1 x i64], [1 x i64] }, ptr %28, i64 0, i32 1 in 
POP   %.repack9 = getelementptr inbounds { ptr, ptr, i64, [1 x i64], [1 x i64] }, ptr %28, i64 0, i32 1 in  = notconstant<ptr null>
  Result = notconstant<ptr null>
LVI Getting block end value   %.repack11 = getelementptr inbounds { ptr, ptr, i64, [1 x i64], [1 x i64] }, ptr %28, i64 0, i32 2 at ''
PUSH:   %.repack11 = getelementptr inbounds { ptr, ptr, i64, [1 x i64], [1 x i64] }, ptr %28, i64 0, i32 2 in 
POP   %.repack11 = getelementptr inbounds { ptr, ptr, i64, [1 x i64], [1 x i64] }, ptr %28, i64 0, i32 2 in  = notconstant<ptr null>
  Result = notconstant<ptr null>
LVI Getting block end value   %.repack13 = getelementptr inbounds { ptr, ptr, i64, [1 x i64], [1 x i64] }, ptr %28, i64 0, i32 3 at ''
PUSH:   %.repack13 = getelementptr inbounds { ptr, ptr, i64, [1 x i64], [1 x i64] }, ptr %28, i64 0, i32 3 in 
POP   %.repack13 = getelementptr inbounds { ptr, ptr, i64, [1 x i64], [1 x i64] }, ptr %28, i64 0, i32 3 in  = notconstant<ptr null>
  Result = notconstant<ptr null>
LVI Getting block end value   %.repack15 = getelementptr inbounds { ptr, ptr, i64, [1 x i64], [1 x i64] }, ptr %28, i64 0, i32 4 at ''
PUSH:   %.repack15 = getelementptr inbounds { ptr, ptr, i64, [1 x i64], [1 x i64] }, ptr %28, i64 0, i32 4 in 
POP   %.repack15 = getelementptr inbounds { ptr, ptr, i64, [1 x i64], [1 x i64] }, ptr %28, i64 0, i32 4 in  = notconstant<ptr null>
  Result = notconstant<ptr null>
LVI Getting block end value   %5 = load i64, ptr %4, align 4 at ''
PUSH:   %5 = load i64, ptr %4, align 4 in 
PUSH:   %5 = load i64, ptr %4, align 4 in 
PUSH:   %5 = load i64, ptr %4, align 4 in 
 compute BB '' - overdefined because of pred '' (non local).
POP   %5 = load i64, ptr %4, align 4 in  = overdefined
 compute BB '' - overdefined because of pred '' (non local).
POP   %5 = load i64, ptr %4, align 4 in  = overdefined
 compute BB '' - overdefined because of pred '' (non local).
POP   %5 = load i64, ptr %4, align 4 in  = overdefined
  Result = overdefined
LVI Getting block end value i64 3 at ''
  Result = constantrange<3, 4>
LVI Getting edge value   %35 = add i64 %31, 1 from '' to ''
PUSH:   %35 = add i64 %31, 1 in 
PUSH:   %31 = phi i64 [ %35, %33 ], [ 0, %27 ] in 
PUSH:   %31 = phi i64 [ %35, %33 ], [ 0, %27 ] in 
 compute BB '' - overdefined because of pred (local).
POP   %31 = phi i64 [ %35, %33 ], [ 0, %27 ] in  = overdefined
POP   %31 = phi i64 [ %35, %33 ], [ 0, %27 ] in  = constantrange<-9223372036854775808, 9223372036854775807>
POP   %35 = add i64 %31, 1 in  = constantrange<-9223372036854775807, -9223372036854775808>
  Result = constantrange<-9223372036854775807, -9223372036854775808>
LVI Getting block end value   %31 = phi i64 [ %35, %33 ], [ 0, %27 ] at ''
  Result = overdefined
LVI Getting block end value   %31 = phi i64 [ %35, %33 ], [ 0, %27 ] at ''
  Result = overdefined
LVI Getting block end value   %5 = load i64, ptr %4, align 4 at ''
PUSH:   %5 = load i64, ptr %4, align 4 in 
PUSH:   %5 = load i64, ptr %4, align 4 in 
POP   %5 = load i64, ptr %4, align 4 in  = constantrange<-9223372036854775807, -9223372036854775808>
 compute BB '' - overdefined because of pred '' (non local).
POP   %5 = load i64, ptr %4, align 4 in  = overdefined
  Result = overdefined
LVI Getting block end value   %34 = getelementptr i64, ptr %29, i64 %31 at ''
PUSH:   %34 = getelementptr i64, ptr %29, i64 %31 in 
 compute BB '' - unknown inst def found.
POP   %34 = getelementptr i64, ptr %29, i64 %31 in  = overdefined
  Result = overdefined
LVI Getting block end value   %31 = phi i64 [ %35, %33 ], [ 0, %27 ] at ''
  Result = constantrange<-9223372036854775808, 9223372036854775807>
LVI Getting block end value i64 1 at ''
  Result = constantrange<1, 2>
LVI Getting block end value   %.repack18 = getelementptr inbounds { ptr, ptr, i64, [1 x i64], [1 x i64] }, ptr %37, i64 0, i32 1 at ''
PUSH:   %.repack18 = getelementptr inbounds { ptr, ptr, i64, [1 x i64], [1 x i64] }, ptr %37, i64 0, i32 1 in 
POP   %.repack18 = getelementptr inbounds { ptr, ptr, i64, [1 x i64], [1 x i64] }, ptr %37, i64 0, i32 1 in  = notconstant<ptr null>
  Result = notconstant<ptr null>
LVI Getting block end value   %.repack20 = getelementptr inbounds { ptr, ptr, i64, [1 x i64], [1 x i64] }, ptr %37, i64 0, i32 2 at ''
PUSH:   %.repack20 = getelementptr inbounds { ptr, ptr, i64, [1 x i64], [1 x i64] }, ptr %37, i64 0, i32 2 in 
POP   %.repack20 = getelementptr inbounds { ptr, ptr, i64, [1 x i64], [1 x i64] }, ptr %37, i64 0, i32 2 in  = notconstant<ptr null>
  Result = notconstant<ptr null>
LVI Getting block end value   %.repack22 = getelementptr inbounds { ptr, ptr, i64, [1 x i64], [1 x i64] }, ptr %37, i64 0, i32 3 at ''
PUSH:   %.repack22 = getelementptr inbounds { ptr, ptr, i64, [1 x i64], [1 x i64] }, ptr %37, i64 0, i32 3 in 
POP   %.repack22 = getelementptr inbounds { ptr, ptr, i64, [1 x i64], [1 x i64] }, ptr %37, i64 0, i32 3 in  = notconstant<ptr null>
  Result = notconstant<ptr null>
LVI Getting block end value   %.repack24 = getelementptr inbounds { ptr, ptr, i64, [1 x i64], [1 x i64] }, ptr %37, i64 0, i32 4 at ''
PUSH:   %.repack24 = getelementptr inbounds { ptr, ptr, i64, [1 x i64], [1 x i64] }, ptr %37, i64 0, i32 4 in 
POP   %.repack24 = getelementptr inbounds { ptr, ptr, i64, [1 x i64], [1 x i64] }, ptr %37, i64 0, i32 4 in  = notconstant<ptr null>
  Result = notconstant<ptr null>
LVI Getting block end value   %7 = load i64, ptr %6, align 4 at ''
PUSH:   %7 = load i64, ptr %6, align 4 in 
PUSH:   %7 = load i64, ptr %6, align 4 in 
PUSH:   %7 = load i64, ptr %6, align 4 in 
 compute BB '' - overdefined because of pred '' (non local).
POP   %7 = load i64, ptr %6, align 4 in  = overdefined
 compute BB '' - overdefined because of pred '' (non local).
POP   %7 = load i64, ptr %6, align 4 in  = overdefined
 compute BB '' - overdefined because of pred '' (non local).
POP   %7 = load i64, ptr %6, align 4 in  = overdefined
  Result = overdefined
LVI Getting block end value i64 3 at ''
  Result = constantrange<3, 4>
LVI Getting edge value   %44 = add i64 %40, 1 from '' to ''
PUSH:   %44 = add i64 %40, 1 in 
PUSH:   %40 = phi i64 [ %44, %42 ], [ 0, %36 ] in 
PUSH:   %40 = phi i64 [ %44, %42 ], [ 0, %36 ] in 
 compute BB '' - overdefined because of pred (local).
POP   %40 = phi i64 [ %44, %42 ], [ 0, %36 ] in  = overdefined
POP   %40 = phi i64 [ %44, %42 ], [ 0, %36 ] in  = constantrange<-9223372036854775808, 9223372036854775807>
POP   %44 = add i64 %40, 1 in  = constantrange<-9223372036854775807, -9223372036854775808>
  Result = constantrange<-9223372036854775807, -9223372036854775808>
LVI Getting block end value   %40 = phi i64 [ %44, %42 ], [ 0, %36 ] at ''
  Result = overdefined
LVI Getting block end value   %40 = phi i64 [ %44, %42 ], [ 0, %36 ] at ''
  Result = overdefined
LVI Getting block end value   %7 = load i64, ptr %6, align 4 at ''
PUSH:   %7 = load i64, ptr %6, align 4 in 
PUSH:   %7 = load i64, ptr %6, align 4 in 
POP   %7 = load i64, ptr %6, align 4 in  = constantrange<-9223372036854775807, -9223372036854775808>
 compute BB '' - overdefined because of pred '' (non local).
POP   %7 = load i64, ptr %6, align 4 in  = overdefined
  Result = overdefined
LVI Getting block end value   %43 = getelementptr i64, ptr %38, i64 %40 at ''
PUSH:   %43 = getelementptr i64, ptr %38, i64 %40 in 
 compute BB '' - unknown inst def found.
POP   %43 = getelementptr i64, ptr %38, i64 %40 in  = overdefined
  Result = overdefined
LVI Getting block end value   %40 = phi i64 [ %44, %42 ], [ 0, %36 ] at ''
  Result = constantrange<-9223372036854775808, 9223372036854775807>
LVI Getting block end value i64 1 at ''
  Result = constantrange<1, 2>
LVI Getting block end value   %.repack27 = getelementptr inbounds { ptr, ptr, i64, [1 x i64], [1 x i64] }, ptr %46, i64 0, i32 1 at ''
PUSH:   %.repack27 = getelementptr inbounds { ptr, ptr, i64, [1 x i64], [1 x i64] }, ptr %46, i64 0, i32 1 in 
POP   %.repack27 = getelementptr inbounds { ptr, ptr, i64, [1 x i64], [1 x i64] }, ptr %46, i64 0, i32 1 in  = notconstant<ptr null>
  Result = notconstant<ptr null>
LVI Getting block end value   %.repack29 = getelementptr inbounds { ptr, ptr, i64, [1 x i64], [1 x i64] }, ptr %46, i64 0, i32 2 at ''
PUSH:   %.repack29 = getelementptr inbounds { ptr, ptr, i64, [1 x i64], [1 x i64] }, ptr %46, i64 0, i32 2 in 
POP   %.repack29 = getelementptr inbounds { ptr, ptr, i64, [1 x i64], [1 x i64] }, ptr %46, i64 0, i32 2 in  = notconstant<ptr null>
  Result = notconstant<ptr null>
LVI Getting block end value   %.repack31 = getelementptr inbounds { ptr, ptr, i64, [1 x i64], [1 x i64] }, ptr %46, i64 0, i32 3 at ''
PUSH:   %.repack31 = getelementptr inbounds { ptr, ptr, i64, [1 x i64], [1 x i64] }, ptr %46, i64 0, i32 3 in 
POP   %.repack31 = getelementptr inbounds { ptr, ptr, i64, [1 x i64], [1 x i64] }, ptr %46, i64 0, i32 3 in  = notconstant<ptr null>
  Result = notconstant<ptr null>
LVI Getting block end value   %.repack33 = getelementptr inbounds { ptr, ptr, i64, [1 x i64], [1 x i64] }, ptr %46, i64 0, i32 4 at ''
PUSH:   %.repack33 = getelementptr inbounds { ptr, ptr, i64, [1 x i64], [1 x i64] }, ptr %46, i64 0, i32 4 in 
POP   %.repack33 = getelementptr inbounds { ptr, ptr, i64, [1 x i64], [1 x i64] }, ptr %46, i64 0, i32 4 in  = notconstant<ptr null>
  Result = notconstant<ptr null>
LVI Getting block end value   %9 = load i64, ptr %8, align 4 at ''
PUSH:   %9 = load i64, ptr %8, align 4 in 
PUSH:   %9 = load i64, ptr %8, align 4 in 
PUSH:   %9 = load i64, ptr %8, align 4 in 
 compute BB '' - overdefined because of pred '' (non local).
POP   %9 = load i64, ptr %8, align 4 in  = overdefined
 compute BB '' - overdefined because of pred '' (non local).
POP   %9 = load i64, ptr %8, align 4 in  = overdefined
 compute BB '' - overdefined because of pred '' (non local).
POP   %9 = load i64, ptr %8, align 4 in  = overdefined
  Result = overdefined
LVI Getting block end value i64 3 at ''
  Result = constantrange<3, 4>
LVI Getting edge value   %53 = add i64 %49, 1 from '' to ''
PUSH:   %53 = add i64 %49, 1 in 
PUSH:   %49 = phi i64 [ %53, %51 ], [ 0, %45 ] in 
PUSH:   %49 = phi i64 [ %53, %51 ], [ 0, %45 ] in 
 compute BB '' - overdefined because of pred (local).
POP   %49 = phi i64 [ %53, %51 ], [ 0, %45 ] in  = overdefined
POP   %49 = phi i64 [ %53, %51 ], [ 0, %45 ] in  = constantrange<-9223372036854775808, 9223372036854775807>
POP   %53 = add i64 %49, 1 in  = constantrange<-9223372036854775807, -9223372036854775808>
  Result = constantrange<-9223372036854775807, -9223372036854775808>
LVI Getting block end value   %49 = phi i64 [ %53, %51 ], [ 0, %45 ] at ''
  Result = overdefined
LVI Getting block end value   %49 = phi i64 [ %53, %51 ], [ 0, %45 ] at ''
  Result = overdefined
LVI Getting block end value   %9 = load i64, ptr %8, align 4 at ''
PUSH:   %9 = load i64, ptr %8, align 4 in 
PUSH:   %9 = load i64, ptr %8, align 4 in 
POP   %9 = load i64, ptr %8, align 4 in  = constantrange<-9223372036854775807, -9223372036854775808>
 compute BB '' - overdefined because of pred '' (non local).
POP   %9 = load i64, ptr %8, align 4 in  = overdefined
  Result = overdefined
LVI Getting block end value   %52 = getelementptr i64, ptr %47, i64 %49 at ''
PUSH:   %52 = getelementptr i64, ptr %47, i64 %49 in 
 compute BB '' - unknown inst def found.
POP   %52 = getelementptr i64, ptr %47, i64 %49 in  = overdefined
  Result = overdefined
LVI Getting block end value   %49 = phi i64 [ %53, %51 ], [ 0, %45 ] at ''
  Result = constantrange<-9223372036854775808, 9223372036854775807>
LVI Getting block end value i64 1 at ''
  Result = constantrange<1, 2>
LVI Getting block end value   %.repack36 = getelementptr inbounds { ptr, ptr, i64, [1 x i64], [1 x i64] }, ptr %55, i64 0, i32 1 at ''
PUSH:   %.repack36 = getelementptr inbounds { ptr, ptr, i64, [1 x i64], [1 x i64] }, ptr %55, i64 0, i32 1 in 
POP   %.repack36 = getelementptr inbounds { ptr, ptr, i64, [1 x i64], [1 x i64] }, ptr %55, i64 0, i32 1 in  = notconstant<ptr null>
  Result = notconstant<ptr null>
LVI Getting block end value   %.repack38 = getelementptr inbounds { ptr, ptr, i64, [1 x i64], [1 x i64] }, ptr %55, i64 0, i32 2 at ''
PUSH:   %.repack38 = getelementptr inbounds { ptr, ptr, i64, [1 x i64], [1 x i64] }, ptr %55, i64 0, i32 2 in 
POP   %.repack38 = getelementptr inbounds { ptr, ptr, i64, [1 x i64], [1 x i64] }, ptr %55, i64 0, i32 2 in  = notconstant<ptr null>
  Result = notconstant<ptr null>
LVI Getting block end value   %.repack40 = getelementptr inbounds { ptr, ptr, i64, [1 x i64], [1 x i64] }, ptr %55, i64 0, i32 3 at ''
PUSH:   %.repack40 = getelementptr inbounds { ptr, ptr, i64, [1 x i64], [1 x i64] }, ptr %55, i64 0, i32 3 in 
POP   %.repack40 = getelementptr inbounds { ptr, ptr, i64, [1 x i64], [1 x i64] }, ptr %55, i64 0, i32 3 in  = notconstant<ptr null>
  Result = notconstant<ptr null>
LVI Getting block end value   %.repack42 = getelementptr inbounds { ptr, ptr, i64, [1 x i64], [1 x i64] }, ptr %55, i64 0, i32 4 at ''
PUSH:   %.repack42 = getelementptr inbounds { ptr, ptr, i64, [1 x i64], [1 x i64] }, ptr %55, i64 0, i32 4 in 
POP   %.repack42 = getelementptr inbounds { ptr, ptr, i64, [1 x i64], [1 x i64] }, ptr %55, i64 0, i32 4 in  = notconstant<ptr null>
  Result = notconstant<ptr null>
LVI Getting block end value   %11 = load i64, ptr %10, align 4 at ''
PUSH:   %11 = load i64, ptr %10, align 4 in 
PUSH:   %11 = load i64, ptr %10, align 4 in 
PUSH:   %11 = load i64, ptr %10, align 4 in 
 compute BB '' - overdefined because of pred '' (non local).
POP   %11 = load i64, ptr %10, align 4 in  = overdefined
 compute BB '' - overdefined because of pred '' (non local).
POP   %11 = load i64, ptr %10, align 4 in  = overdefined
 compute BB '' - overdefined because of pred '' (non local).
POP   %11 = load i64, ptr %10, align 4 in  = overdefined
  Result = overdefined
LVI Getting block end value i64 3 at ''
  Result = constantrange<3, 4>
LVI Getting edge value   %62 = add i64 %58, 1 from '' to ''
PUSH:   %62 = add i64 %58, 1 in 
PUSH:   %58 = phi i64 [ %62, %60 ], [ 0, %54 ] in 
PUSH:   %58 = phi i64 [ %62, %60 ], [ 0, %54 ] in 
 compute BB '' - overdefined because of pred (local).
POP   %58 = phi i64 [ %62, %60 ], [ 0, %54 ] in  = overdefined
POP   %58 = phi i64 [ %62, %60 ], [ 0, %54 ] in  = constantrange<-9223372036854775808, 9223372036854775807>
POP   %62 = add i64 %58, 1 in  = constantrange<-9223372036854775807, -9223372036854775808>
  Result = constantrange<-9223372036854775807, -9223372036854775808>
LVI Getting block end value   %58 = phi i64 [ %62, %60 ], [ 0, %54 ] at ''
  Result = overdefined
LVI Getting block end value   %58 = phi i64 [ %62, %60 ], [ 0, %54 ] at ''
  Result = overdefined
LVI Getting block end value   %11 = load i64, ptr %10, align 4 at ''
PUSH:   %11 = load i64, ptr %10, align 4 in 
PUSH:   %11 = load i64, ptr %10, align 4 in 
POP   %11 = load i64, ptr %10, align 4 in  = constantrange<-9223372036854775807, -9223372036854775808>
 compute BB '' - overdefined because of pred '' (non local).
POP   %11 = load i64, ptr %10, align 4 in  = overdefined
  Result = overdefined
LVI Getting block end value   %61 = getelementptr i64, ptr %56, i64 %58 at ''
PUSH:   %61 = getelementptr i64, ptr %56, i64 %58 in 
 compute BB '' - unknown inst def found.
POP   %61 = getelementptr i64, ptr %56, i64 %58 in  = overdefined
  Result = overdefined
LVI Getting block end value   %58 = phi i64 [ %62, %60 ], [ 0, %54 ] at ''
  Result = constantrange<-9223372036854775808, 9223372036854775807>
LVI Getting block end value i64 1 at ''
  Result = constantrange<1, 2>
LVI Getting block end value   %.repack45 = getelementptr inbounds { ptr, ptr, i64, [1 x i64], [1 x i64] }, ptr %64, i64 0, i32 1 at ''
PUSH:   %.repack45 = getelementptr inbounds { ptr, ptr, i64, [1 x i64], [1 x i64] }, ptr %64, i64 0, i32 1 in 
POP   %.repack45 = getelementptr inbounds { ptr, ptr, i64, [1 x i64], [1 x i64] }, ptr %64, i64 0, i32 1 in  = notconstant<ptr null>
  Result = notconstant<ptr null>
LVI Getting block end value   %.repack47 = getelementptr inbounds { ptr, ptr, i64, [1 x i64], [1 x i64] }, ptr %64, i64 0, i32 2 at ''
PUSH:   %.repack47 = getelementptr inbounds { ptr, ptr, i64, [1 x i64], [1 x i64] }, ptr %64, i64 0, i32 2 in 
POP   %.repack47 = getelementptr inbounds { ptr, ptr, i64, [1 x i64], [1 x i64] }, ptr %64, i64 0, i32 2 in  = notconstant<ptr null>
  Result = notconstant<ptr null>
LVI Getting block end value   %.repack49 = getelementptr inbounds { ptr, ptr, i64, [1 x i64], [1 x i64] }, ptr %64, i64 0, i32 3 at ''
PUSH:   %.repack49 = getelementptr inbounds { ptr, ptr, i64, [1 x i64], [1 x i64] }, ptr %64, i64 0, i32 3 in 
POP   %.repack49 = getelementptr inbounds { ptr, ptr, i64, [1 x i64], [1 x i64] }, ptr %64, i64 0, i32 3 in  = notconstant<ptr null>
  Result = notconstant<ptr null>
LVI Getting block end value   %.repack51 = getelementptr inbounds { ptr, ptr, i64, [1 x i64], [1 x i64] }, ptr %64, i64 0, i32 4 at ''
PUSH:   %.repack51 = getelementptr inbounds { ptr, ptr, i64, [1 x i64], [1 x i64] }, ptr %64, i64 0, i32 4 in 
POP   %.repack51 = getelementptr inbounds { ptr, ptr, i64, [1 x i64], [1 x i64] }, ptr %64, i64 0, i32 4 in  = notconstant<ptr null>
  Result = notconstant<ptr null>
LVI Getting block end value   %13 = load i64, ptr %12, align 4 at ''
PUSH:   %13 = load i64, ptr %12, align 4 in 
PUSH:   %13 = load i64, ptr %12, align 4 in 
PUSH:   %13 = load i64, ptr %12, align 4 in 
 compute BB '' - overdefined because of pred '' (non local).
POP   %13 = load i64, ptr %12, align 4 in  = overdefined
 compute BB '' - overdefined because of pred '' (non local).
POP   %13 = load i64, ptr %12, align 4 in  = overdefined
 compute BB '' - overdefined because of pred '' (non local).
POP   %13 = load i64, ptr %12, align 4 in  = overdefined
  Result = overdefined
LVI Getting block end value i64 3 at ''
  Result = constantrange<3, 4>
LVI Getting edge value   %71 = add i64 %67, 1 from '' to ''
PUSH:   %71 = add i64 %67, 1 in 
PUSH:   %67 = phi i64 [ %71, %69 ], [ 0, %63 ] in 
PUSH:   %67 = phi i64 [ %71, %69 ], [ 0, %63 ] in 
 compute BB '' - overdefined because of pred (local).
POP   %67 = phi i64 [ %71, %69 ], [ 0, %63 ] in  = overdefined
POP   %67 = phi i64 [ %71, %69 ], [ 0, %63 ] in  = constantrange<-9223372036854775808, 9223372036854775807>
POP   %71 = add i64 %67, 1 in  = constantrange<-9223372036854775807, -9223372036854775808>
  Result = constantrange<-9223372036854775807, -9223372036854775808>
LVI Getting block end value   %67 = phi i64 [ %71, %69 ], [ 0, %63 ] at ''
  Result = overdefined
LVI Getting block end value   %67 = phi i64 [ %71, %69 ], [ 0, %63 ] at ''
  Result = overdefined
LVI Getting block end value   %13 = load i64, ptr %12, align 4 at ''
PUSH:   %13 = load i64, ptr %12, align 4 in 
PUSH:   %13 = load i64, ptr %12, align 4 in 
POP   %13 = load i64, ptr %12, align 4 in  = constantrange<-9223372036854775807, -9223372036854775808>
 compute BB '' - overdefined because of pred '' (non local).
POP   %13 = load i64, ptr %12, align 4 in  = overdefined
  Result = overdefined
LVI Getting block end value   %70 = getelementptr i64, ptr %65, i64 %67 at ''
PUSH:   %70 = getelementptr i64, ptr %65, i64 %67 in 
 compute BB '' - unknown inst def found.
POP   %70 = getelementptr i64, ptr %65, i64 %67 in  = overdefined
  Result = overdefined
LVI Getting block end value   %67 = phi i64 [ %71, %69 ], [ 0, %63 ] at ''
  Result = constantrange<-9223372036854775808, 9223372036854775807>
LVI Getting block end value i64 1 at ''
  Result = constantrange<1, 2>
LVI Getting block end value   %.repack54 = getelementptr inbounds { ptr, ptr, i64, [1 x i64], [1 x i64] }, ptr %73, i64 0, i32 1 at ''
PUSH:   %.repack54 = getelementptr inbounds { ptr, ptr, i64, [1 x i64], [1 x i64] }, ptr %73, i64 0, i32 1 in 
POP   %.repack54 = getelementptr inbounds { ptr, ptr, i64, [1 x i64], [1 x i64] }, ptr %73, i64 0, i32 1 in  = notconstant<ptr null>
  Result = notconstant<ptr null>
LVI Getting block end value   %.repack56 = getelementptr inbounds { ptr, ptr, i64, [1 x i64], [1 x i64] }, ptr %73, i64 0, i32 2 at ''
PUSH:   %.repack56 = getelementptr inbounds { ptr, ptr, i64, [1 x i64], [1 x i64] }, ptr %73, i64 0, i32 2 in 
POP   %.repack56 = getelementptr inbounds { ptr, ptr, i64, [1 x i64], [1 x i64] }, ptr %73, i64 0, i32 2 in  = notconstant<ptr null>
  Result = notconstant<ptr null>
LVI Getting block end value   %.repack58 = getelementptr inbounds { ptr, ptr, i64, [1 x i64], [1 x i64] }, ptr %73, i64 0, i32 3 at ''
PUSH:   %.repack58 = getelementptr inbounds { ptr, ptr, i64, [1 x i64], [1 x i64] }, ptr %73, i64 0, i32 3 in 
POP   %.repack58 = getelementptr inbounds { ptr, ptr, i64, [1 x i64], [1 x i64] }, ptr %73, i64 0, i32 3 in  = notconstant<ptr null>
  Result = notconstant<ptr null>
LVI Getting block end value   %.repack60 = getelementptr inbounds { ptr, ptr, i64, [1 x i64], [1 x i64] }, ptr %73, i64 0, i32 4 at ''
PUSH:   %.repack60 = getelementptr inbounds { ptr, ptr, i64, [1 x i64], [1 x i64] }, ptr %73, i64 0, i32 4 in 
POP   %.repack60 = getelementptr inbounds { ptr, ptr, i64, [1 x i64], [1 x i64] }, ptr %73, i64 0, i32 4 in  = notconstant<ptr null>
  Result = notconstant<ptr null>
LVI Getting block end value   %15 = load i64, ptr %14, align 4 at ''
PUSH:   %15 = load i64, ptr %14, align 4 in 
PUSH:   %15 = load i64, ptr %14, align 4 in 
PUSH:   %15 = load i64, ptr %14, align 4 in 
 compute BB '' - overdefined because of pred '' (non local).
POP   %15 = load i64, ptr %14, align 4 in  = overdefined
 compute BB '' - overdefined because of pred '' (non local).
POP   %15 = load i64, ptr %14, align 4 in  = overdefined
 compute BB '' - overdefined because of pred '' (non local).
POP   %15 = load i64, ptr %14, align 4 in  = overdefined
  Result = overdefined
LVI Getting block end value i64 3 at ''
  Result = constantrange<3, 4>
LVI Getting edge value   %80 = add i64 %76, 1 from '' to ''
PUSH:   %80 = add i64 %76, 1 in 
PUSH:   %76 = phi i64 [ %80, %78 ], [ 0, %72 ] in 
PUSH:   %76 = phi i64 [ %80, %78 ], [ 0, %72 ] in 
 compute BB '' - overdefined because of pred (local).
POP   %76 = phi i64 [ %80, %78 ], [ 0, %72 ] in  = overdefined
POP   %76 = phi i64 [ %80, %78 ], [ 0, %72 ] in  = constantrange<-9223372036854775808, 9223372036854775807>
POP   %80 = add i64 %76, 1 in  = constantrange<-9223372036854775807, -9223372036854775808>
  Result = constantrange<-9223372036854775807, -9223372036854775808>
LVI Getting block end value   %76 = phi i64 [ %80, %78 ], [ 0, %72 ] at ''
  Result = overdefined
LVI Getting block end value   %76 = phi i64 [ %80, %78 ], [ 0, %72 ] at ''
  Result = overdefined
LVI Getting block end value   %15 = load i64, ptr %14, align 4 at ''
PUSH:   %15 = load i64, ptr %14, align 4 in 
PUSH:   %15 = load i64, ptr %14, align 4 in 
POP   %15 = load i64, ptr %14, align 4 in  = constantrange<-9223372036854775807, -9223372036854775808>
 compute BB '' - overdefined because of pred '' (non local).
POP   %15 = load i64, ptr %14, align 4 in  = overdefined
  Result = overdefined
LVI Getting block end value   %79 = getelementptr i64, ptr %74, i64 %76 at ''
PUSH:   %79 = getelementptr i64, ptr %74, i64 %76 in 
 compute BB '' - unknown inst def found.
POP   %79 = getelementptr i64, ptr %74, i64 %76 in  = overdefined
  Result = overdefined
LVI Getting block end value   %76 = phi i64 [ %80, %78 ], [ 0, %72 ] at ''
  Result = constantrange<-9223372036854775808, 9223372036854775807>
LVI Getting block end value i64 1 at ''
  Result = constantrange<1, 2>
LVI Getting block end value   %.repack63 = getelementptr inbounds { ptr, ptr, i64, [1 x i64], [1 x i64] }, ptr %82, i64 0, i32 1 at ''
PUSH:   %.repack63 = getelementptr inbounds { ptr, ptr, i64, [1 x i64], [1 x i64] }, ptr %82, i64 0, i32 1 in 
POP   %.repack63 = getelementptr inbounds { ptr, ptr, i64, [1 x i64], [1 x i64] }, ptr %82, i64 0, i32 1 in  = notconstant<ptr null>
  Result = notconstant<ptr null>
LVI Getting block end value   %.repack65 = getelementptr inbounds { ptr, ptr, i64, [1 x i64], [1 x i64] }, ptr %82, i64 0, i32 2 at ''
PUSH:   %.repack65 = getelementptr inbounds { ptr, ptr, i64, [1 x i64], [1 x i64] }, ptr %82, i64 0, i32 2 in 
POP   %.repack65 = getelementptr inbounds { ptr, ptr, i64, [1 x i64], [1 x i64] }, ptr %82, i64 0, i32 2 in  = notconstant<ptr null>
  Result = notconstant<ptr null>
LVI Getting block end value   %.repack67 = getelementptr inbounds { ptr, ptr, i64, [1 x i64], [1 x i64] }, ptr %82, i64 0, i32 3 at ''
PUSH:   %.repack67 = getelementptr inbounds { ptr, ptr, i64, [1 x i64], [1 x i64] }, ptr %82, i64 0, i32 3 in 
POP   %.repack67 = getelementptr inbounds { ptr, ptr, i64, [1 x i64], [1 x i64] }, ptr %82, i64 0, i32 3 in  = notconstant<ptr null>
  Result = notconstant<ptr null>
LVI Getting block end value   %.repack69 = getelementptr inbounds { ptr, ptr, i64, [1 x i64], [1 x i64] }, ptr %82, i64 0, i32 4 at ''
PUSH:   %.repack69 = getelementptr inbounds { ptr, ptr, i64, [1 x i64], [1 x i64] }, ptr %82, i64 0, i32 4 in 
POP   %.repack69 = getelementptr inbounds { ptr, ptr, i64, [1 x i64], [1 x i64] }, ptr %82, i64 0, i32 4 in  = notconstant<ptr null>
  Result = notconstant<ptr null>
LVI Getting block end value   %17 = load i64, ptr %16, align 4 at ''
PUSH:   %17 = load i64, ptr %16, align 4 in 
PUSH:   %17 = load i64, ptr %16, align 4 in 
PUSH:   %17 = load i64, ptr %16, align 4 in 
 compute BB '' - overdefined because of pred '' (non local).
POP   %17 = load i64, ptr %16, align 4 in  = overdefined
 compute BB '' - overdefined because of pred '' (non local).
POP   %17 = load i64, ptr %16, align 4 in  = overdefined
 compute BB '' - overdefined because of pred '' (non local).
POP   %17 = load i64, ptr %16, align 4 in  = overdefined
  Result = overdefined
LVI Getting block end value i64 3 at ''
  Result = constantrange<3, 4>
LVI Getting edge value   %89 = add i64 %85, 1 from '' to ''
PUSH:   %89 = add i64 %85, 1 in 
PUSH:   %85 = phi i64 [ %89, %87 ], [ 0, %81 ] in 
PUSH:   %85 = phi i64 [ %89, %87 ], [ 0, %81 ] in 
 compute BB '' - overdefined because of pred (local).
POP   %85 = phi i64 [ %89, %87 ], [ 0, %81 ] in  = overdefined
POP   %85 = phi i64 [ %89, %87 ], [ 0, %81 ] in  = constantrange<-9223372036854775808, 9223372036854775807>
POP   %89 = add i64 %85, 1 in  = constantrange<-9223372036854775807, -9223372036854775808>
  Result = constantrange<-9223372036854775807, -9223372036854775808>
LVI Getting block end value   %85 = phi i64 [ %89, %87 ], [ 0, %81 ] at ''
  Result = overdefined
LVI Getting block end value   %85 = phi i64 [ %89, %87 ], [ 0, %81 ] at ''
  Result = overdefined
LVI Getting block end value   %17 = load i64, ptr %16, align 4 at ''
PUSH:   %17 = load i64, ptr %16, align 4 in 
PUSH:   %17 = load i64, ptr %16, align 4 in 
POP   %17 = load i64, ptr %16, align 4 in  = constantrange<-9223372036854775807, -9223372036854775808>
 compute BB '' - overdefined because of pred '' (non local).
POP   %17 = load i64, ptr %16, align 4 in  = overdefined
  Result = overdefined
LVI Getting block end value   %88 = getelementptr i64, ptr %83, i64 %85 at ''
PUSH:   %88 = getelementptr i64, ptr %83, i64 %85 in 
 compute BB '' - unknown inst def found.
POP   %88 = getelementptr i64, ptr %83, i64 %85 in  = overdefined
  Result = overdefined
LVI Getting block end value   %85 = phi i64 [ %89, %87 ], [ 0, %81 ] at ''
  Result = constantrange<-9223372036854775808, 9223372036854775807>
LVI Getting block end value i64 1 at ''
  Result = constantrange<1, 2>
LVI Getting block end value   %.repack72 = getelementptr inbounds { ptr, ptr, i64, [1 x i64], [1 x i64] }, ptr %91, i64 0, i32 1 at ''
PUSH:   %.repack72 = getelementptr inbounds { ptr, ptr, i64, [1 x i64], [1 x i64] }, ptr %91, i64 0, i32 1 in 
POP   %.repack72 = getelementptr inbounds { ptr, ptr, i64, [1 x i64], [1 x i64] }, ptr %91, i64 0, i32 1 in  = notconstant<ptr null>
  Result = notconstant<ptr null>
LVI Getting block end value   %.repack74 = getelementptr inbounds { ptr, ptr, i64, [1 x i64], [1 x i64] }, ptr %91, i64 0, i32 2 at ''
PUSH:   %.repack74 = getelementptr inbounds { ptr, ptr, i64, [1 x i64], [1 x i64] }, ptr %91, i64 0, i32 2 in 
POP   %.repack74 = getelementptr inbounds { ptr, ptr, i64, [1 x i64], [1 x i64] }, ptr %91, i64 0, i32 2 in  = notconstant<ptr null>
  Result = notconstant<ptr null>
LVI Getting block end value   %.repack76 = getelementptr inbounds { ptr, ptr, i64, [1 x i64], [1 x i64] }, ptr %91, i64 0, i32 3 at ''
PUSH:   %.repack76 = getelementptr inbounds { ptr, ptr, i64, [1 x i64], [1 x i64] }, ptr %91, i64 0, i32 3 in 
POP   %.repack76 = getelementptr inbounds { ptr, ptr, i64, [1 x i64], [1 x i64] }, ptr %91, i64 0, i32 3 in  = notconstant<ptr null>
  Result = notconstant<ptr null>
LVI Getting block end value   %.repack78 = getelementptr inbounds { ptr, ptr, i64, [1 x i64], [1 x i64] }, ptr %91, i64 0, i32 4 at ''
PUSH:   %.repack78 = getelementptr inbounds { ptr, ptr, i64, [1 x i64], [1 x i64] }, ptr %91, i64 0, i32 4 in 
POP   %.repack78 = getelementptr inbounds { ptr, ptr, i64, [1 x i64], [1 x i64] }, ptr %91, i64 0, i32 4 in  = notconstant<ptr null>
  Result = notconstant<ptr null>
LVI Getting block end value   %19 = load i64, ptr %18, align 4 at ''
PUSH:   %19 = load i64, ptr %18, align 4 in 
PUSH:   %19 = load i64, ptr %18, align 4 in 
PUSH:   %19 = load i64, ptr %18, align 4 in 
 compute BB '' - overdefined because of pred '' (non local).
POP   %19 = load i64, ptr %18, align 4 in  = overdefined
 compute BB '' - overdefined because of pred '' (non local).
POP   %19 = load i64, ptr %18, align 4 in  = overdefined
 compute BB '' - overdefined because of pred '' (non local).
POP   %19 = load i64, ptr %18, align 4 in  = overdefined
  Result = overdefined
LVI Getting block end value i64 3 at ''
  Result = constantrange<3, 4>
LVI Getting edge value   %98 = add i64 %94, 1 from '' to ''
PUSH:   %98 = add i64 %94, 1 in 
PUSH:   %94 = phi i64 [ %98, %96 ], [ 0, %90 ] in 
PUSH:   %94 = phi i64 [ %98, %96 ], [ 0, %90 ] in 
 compute BB '' - overdefined because of pred (local).
POP   %94 = phi i64 [ %98, %96 ], [ 0, %90 ] in  = overdefined
POP   %94 = phi i64 [ %98, %96 ], [ 0, %90 ] in  = constantrange<-9223372036854775808, 9223372036854775807>
POP   %98 = add i64 %94, 1 in  = constantrange<-9223372036854775807, -9223372036854775808>
  Result = constantrange<-9223372036854775807, -9223372036854775808>
LVI Getting block end value   %94 = phi i64 [ %98, %96 ], [ 0, %90 ] at ''
  Result = overdefined
LVI Getting block end value   %94 = phi i64 [ %98, %96 ], [ 0, %90 ] at ''
  Result = overdefined
LVI Getting block end value   %19 = load i64, ptr %18, align 4 at ''
PUSH:   %19 = load i64, ptr %18, align 4 in 
PUSH:   %19 = load i64, ptr %18, align 4 in 
POP   %19 = load i64, ptr %18, align 4 in  = constantrange<-9223372036854775807, -9223372036854775808>
 compute BB '' - overdefined because of pred '' (non local).
POP   %19 = load i64, ptr %18, align 4 in  = overdefined
  Result = overdefined
LVI Getting block end value   %97 = getelementptr double, ptr %92, i64 %94 at ''
PUSH:   %97 = getelementptr double, ptr %92, i64 %94 in 
 compute BB '' - unknown inst def found.
POP   %97 = getelementptr double, ptr %92, i64 %94 in  = overdefined
  Result = overdefined
LVI Getting block end value   %94 = phi i64 [ %98, %96 ], [ 0, %90 ] at ''
  Result = constantrange<-9223372036854775808, 9223372036854775807>
LVI Getting block end value i64 1 at ''
  Result = constantrange<1, 2>
LVI Getting block end value   %.repack81 = getelementptr inbounds { ptr, ptr, i64, [1 x i64], [1 x i64] }, ptr %100, i64 0, i32 1 at ''
PUSH:   %.repack81 = getelementptr inbounds { ptr, ptr, i64, [1 x i64], [1 x i64] }, ptr %100, i64 0, i32 1 in 
POP   %.repack81 = getelementptr inbounds { ptr, ptr, i64, [1 x i64], [1 x i64] }, ptr %100, i64 0, i32 1 in  = notconstant<ptr null>
  Result = notconstant<ptr null>
LVI Getting block end value   %.repack83 = getelementptr inbounds { ptr, ptr, i64, [1 x i64], [1 x i64] }, ptr %100, i64 0, i32 2 at ''
PUSH:   %.repack83 = getelementptr inbounds { ptr, ptr, i64, [1 x i64], [1 x i64] }, ptr %100, i64 0, i32 2 in 
POP   %.repack83 = getelementptr inbounds { ptr, ptr, i64, [1 x i64], [1 x i64] }, ptr %100, i64 0, i32 2 in  = notconstant<ptr null>
  Result = notconstant<ptr null>
LVI Getting block end value   %.repack85 = getelementptr inbounds { ptr, ptr, i64, [1 x i64], [1 x i64] }, ptr %100, i64 0, i32 3 at ''
PUSH:   %.repack85 = getelementptr inbounds { ptr, ptr, i64, [1 x i64], [1 x i64] }, ptr %100, i64 0, i32 3 in 
POP   %.repack85 = getelementptr inbounds { ptr, ptr, i64, [1 x i64], [1 x i64] }, ptr %100, i64 0, i32 3 in  = notconstant<ptr null>
  Result = notconstant<ptr null>
LVI Getting block end value   %.repack87 = getelementptr inbounds { ptr, ptr, i64, [1 x i64], [1 x i64] }, ptr %100, i64 0, i32 4 at ''
PUSH:   %.repack87 = getelementptr inbounds { ptr, ptr, i64, [1 x i64], [1 x i64] }, ptr %100, i64 0, i32 4 in 
POP   %.repack87 = getelementptr inbounds { ptr, ptr, i64, [1 x i64], [1 x i64] }, ptr %100, i64 0, i32 4 in  = notconstant<ptr null>
  Result = notconstant<ptr null>


INSTCOMBINE ITERATION #1 on main
ADD:   br label %21
ADD:   %26 = add nsw i64 %22, 1
ADD:   store i64 0, ptr %25, align 4
ADD:   %25 = getelementptr i64, ptr %20, i64 %22
ADD:   br label %30
ADD:   %35 = add nsw i64 %31, 1
ADD:   store i64 0, ptr %34, align 4
ADD:   %34 = getelementptr i64, ptr %29, i64 %31
ADD:   br label %39
ADD:   %44 = add nsw i64 %40, 1
ADD:   store i64 0, ptr %43, align 4
ADD:   %43 = getelementptr i64, ptr %38, i64 %40
ADD:   br label %48
ADD:   %53 = add nsw i64 %49, 1
ADD:   store i64 0, ptr %52, align 4
ADD:   %52 = getelementptr i64, ptr %47, i64 %49
ADD:   br label %57
ADD:   %62 = add nsw i64 %58, 1
ADD:   store i64 0, ptr %61, align 4
ADD:   %61 = getelementptr i64, ptr %56, i64 %58
ADD:   br label %66
ADD:   %71 = add nsw i64 %67, 1
ADD:   store i64 0, ptr %70, align 4
ADD:   %70 = getelementptr i64, ptr %65, i64 %67
ADD:   br label %75
ADD:   %80 = add nsw i64 %76, 1
ADD:   store i64 0, ptr %79, align 4
ADD:   %79 = getelementptr i64, ptr %74, i64 %76
ADD:   br label %84
ADD:   %89 = add nsw i64 %85, 1
ADD:   store i64 0, ptr %88, align 4
ADD:   %88 = getelementptr i64, ptr %83, i64 %85
ADD:   br label %93
ADD:   %98 = add nsw i64 %94, 1
ADD:   store double 0.000000e+00, ptr %97, align 8
ADD:   %97 = getelementptr double, ptr %92, i64 %94
ADD:   ret void
ADD:   call void @comet_print_memref_f64(i64 1, ptr nonnull %100)
ADD:   call void @comet_print_memref_i64(i64 1, ptr nonnull %91)
ADD:   call void @comet_print_memref_i64(i64 1, ptr nonnull %82)
ADD:   call void @comet_print_memref_i64(i64 1, ptr nonnull %73)
ADD:   call void @comet_print_memref_i64(i64 1, ptr nonnull %64)
ADD:   call void @comet_print_memref_i64(i64 1, ptr nonnull %55)
ADD:   call void @comet_print_memref_i64(i64 1, ptr nonnull %46)
ADD:   call void @comet_print_memref_i64(i64 1, ptr nonnull %37)
ADD:   call void @comet_print_memref_i64(i64 1, ptr nonnull %28)
ADD:   call void @read_input_2D_f64(i32 1, i64 0, i64 3, i64 0, i64 -1, i64 1, ptr nonnull %28, i64 1, ptr nonnull %37, i64 1, ptr nonnull %46, i64 1, ptr nonnull %55, i64 1, ptr nonnull %64, i64 1, ptr nonnull %73, i64 1, ptr nonnull %82, i64 1, ptr nonnull %91, i64 1, ptr nonnull %100, i32 1)
ADD:   store i64 1, ptr %.repack87, align 8
ADD:   %.repack87 = getelementptr inbounds { ptr, ptr, i64, [1 x i64], [1 x i64] }, ptr %100, i64 0, i32 4
ADD:   store i64 %19, ptr %.repack85, align 8
ADD:   %.repack85 = getelementptr inbounds { ptr, ptr, i64, [1 x i64], [1 x i64] }, ptr %100, i64 0, i32 3
ADD:   store i64 0, ptr %.repack83, align 8
ADD:   %.repack83 = getelementptr inbounds { ptr, ptr, i64, [1 x i64], [1 x i64] }, ptr %100, i64 0, i32 2
ADD:   store ptr %92, ptr %.repack81, align 8
ADD:   %.repack81 = getelementptr inbounds { ptr, ptr, i64, [1 x i64], [1 x i64] }, ptr %100, i64 0, i32 1
ADD:   store ptr %92, ptr %100, align 8
ADD:   %100 = alloca { ptr, ptr, i64, [1 x i64], [1 x i64] }, align 8
ADD:   br i1 %95, label %96, label %99
ADD:   %95 = icmp slt i64 %94, %19
ADD:   %94 = phi i64 [ %98, %96 ], [ 0, %90 ]
ADD:   br label %93
ADD:   %92 = call ptr @malloc(i64 %.idx80)
ADD:   %.idx80 = shl i64 %19, 3
ADD:   store i64 1, ptr %.repack78, align 8
ADD:   %.repack78 = getelementptr inbounds { ptr, ptr, i64, [1 x i64], [1 x i64] }, ptr %91, i64 0, i32 4
ADD:   store i64 %17, ptr %.repack76, align 8
ADD:   %.repack76 = getelementptr inbounds { ptr, ptr, i64, [1 x i64], [1 x i64] }, ptr %91, i64 0, i32 3
ADD:   store i64 0, ptr %.repack74, align 8
ADD:   %.repack74 = getelementptr inbounds { ptr, ptr, i64, [1 x i64], [1 x i64] }, ptr %91, i64 0, i32 2
ADD:   store ptr %83, ptr %.repack72, align 8
ADD:   %.repack72 = getelementptr inbounds { ptr, ptr, i64, [1 x i64], [1 x i64] }, ptr %91, i64 0, i32 1
ADD:   store ptr %83, ptr %91, align 8
ADD:   %91 = alloca { ptr, ptr, i64, [1 x i64], [1 x i64] }, align 8
ADD:   br i1 %86, label %87, label %90
ADD:   %86 = icmp slt i64 %85, %17
ADD:   %85 = phi i64 [ %89, %87 ], [ 0, %81 ]
ADD:   br label %84
ADD:   %83 = call ptr @malloc(i64 %.idx71)
ADD:   %.idx71 = shl i64 %17, 3
ADD:   store i64 1, ptr %.repack69, align 8
ADD:   %.repack69 = getelementptr inbounds { ptr, ptr, i64, [1 x i64], [1 x i64] }, ptr %82, i64 0, i32 4
ADD:   store i64 %15, ptr %.repack67, align 8
ADD:   %.repack67 = getelementptr inbounds { ptr, ptr, i64, [1 x i64], [1 x i64] }, ptr %82, i64 0, i32 3
ADD:   store i64 0, ptr %.repack65, align 8
ADD:   %.repack65 = getelementptr inbounds { ptr, ptr, i64, [1 x i64], [1 x i64] }, ptr %82, i64 0, i32 2
ADD:   store ptr %74, ptr %.repack63, align 8
ADD:   %.repack63 = getelementptr inbounds { ptr, ptr, i64, [1 x i64], [1 x i64] }, ptr %82, i64 0, i32 1
ADD:   store ptr %74, ptr %82, align 8
ADD:   %82 = alloca { ptr, ptr, i64, [1 x i64], [1 x i64] }, align 8
ADD:   br i1 %77, label %78, label %81
ADD:   %77 = icmp slt i64 %76, %15
ADD:   %76 = phi i64 [ %80, %78 ], [ 0, %72 ]
ADD:   br label %75
ADD:   %74 = call ptr @malloc(i64 %.idx62)
ADD:   %.idx62 = shl i64 %15, 3
ADD:   store i64 1, ptr %.repack60, align 8
ADD:   %.repack60 = getelementptr inbounds { ptr, ptr, i64, [1 x i64], [1 x i64] }, ptr %73, i64 0, i32 4
ADD:   store i64 %13, ptr %.repack58, align 8
ADD:   %.repack58 = getelementptr inbounds { ptr, ptr, i64, [1 x i64], [1 x i64] }, ptr %73, i64 0, i32 3
ADD:   store i64 0, ptr %.repack56, align 8
ADD:   %.repack56 = getelementptr inbounds { ptr, ptr, i64, [1 x i64], [1 x i64] }, ptr %73, i64 0, i32 2
ADD:   store ptr %65, ptr %.repack54, align 8
ADD:   %.repack54 = getelementptr inbounds { ptr, ptr, i64, [1 x i64], [1 x i64] }, ptr %73, i64 0, i32 1
ADD:   store ptr %65, ptr %73, align 8
ADD:   %73 = alloca { ptr, ptr, i64, [1 x i64], [1 x i64] }, align 8
ADD:   br i1 %68, label %69, label %72
ADD:   %68 = icmp slt i64 %67, %13
ADD:   %67 = phi i64 [ %71, %69 ], [ 0, %63 ]
ADD:   br label %66
ADD:   %65 = call ptr @malloc(i64 %.idx53)
ADD:   %.idx53 = shl i64 %13, 3
ADD:   store i64 1, ptr %.repack51, align 8
ADD:   %.repack51 = getelementptr inbounds { ptr, ptr, i64, [1 x i64], [1 x i64] }, ptr %64, i64 0, i32 4
ADD:   store i64 %11, ptr %.repack49, align 8
ADD:   %.repack49 = getelementptr inbounds { ptr, ptr, i64, [1 x i64], [1 x i64] }, ptr %64, i64 0, i32 3
ADD:   store i64 0, ptr %.repack47, align 8
ADD:   %.repack47 = getelementptr inbounds { ptr, ptr, i64, [1 x i64], [1 x i64] }, ptr %64, i64 0, i32 2
ADD:   store ptr %56, ptr %.repack45, align 8
ADD:   %.repack45 = getelementptr inbounds { ptr, ptr, i64, [1 x i64], [1 x i64] }, ptr %64, i64 0, i32 1
ADD:   store ptr %56, ptr %64, align 8
ADD:   %64 = alloca { ptr, ptr, i64, [1 x i64], [1 x i64] }, align 8
ADD:   br i1 %59, label %60, label %63
ADD:   %59 = icmp slt i64 %58, %11
ADD:   %58 = phi i64 [ %62, %60 ], [ 0, %54 ]
ADD:   br label %57
ADD:   %56 = call ptr @malloc(i64 %.idx44)
ADD:   %.idx44 = shl i64 %11, 3
ADD:   store i64 1, ptr %.repack42, align 8
ADD:   %.repack42 = getelementptr inbounds { ptr, ptr, i64, [1 x i64], [1 x i64] }, ptr %55, i64 0, i32 4
ADD:   store i64 %9, ptr %.repack40, align 8
ADD:   %.repack40 = getelementptr inbounds { ptr, ptr, i64, [1 x i64], [1 x i64] }, ptr %55, i64 0, i32 3
ADD:   store i64 0, ptr %.repack38, align 8
ADD:   %.repack38 = getelementptr inbounds { ptr, ptr, i64, [1 x i64], [1 x i64] }, ptr %55, i64 0, i32 2
ADD:   store ptr %47, ptr %.repack36, align 8
ADD:   %.repack36 = getelementptr inbounds { ptr, ptr, i64, [1 x i64], [1 x i64] }, ptr %55, i64 0, i32 1
ADD:   store ptr %47, ptr %55, align 8
ADD:   %55 = alloca { ptr, ptr, i64, [1 x i64], [1 x i64] }, align 8
ADD:   br i1 %50, label %51, label %54
ADD:   %50 = icmp slt i64 %49, %9
ADD:   %49 = phi i64 [ %53, %51 ], [ 0, %45 ]
ADD:   br label %48
ADD:   %47 = call ptr @malloc(i64 %.idx35)
ADD:   %.idx35 = shl i64 %9, 3
ADD:   store i64 1, ptr %.repack33, align 8
ADD:   %.repack33 = getelementptr inbounds { ptr, ptr, i64, [1 x i64], [1 x i64] }, ptr %46, i64 0, i32 4
ADD:   store i64 %7, ptr %.repack31, align 8
ADD:   %.repack31 = getelementptr inbounds { ptr, ptr, i64, [1 x i64], [1 x i64] }, ptr %46, i64 0, i32 3
ADD:   store i64 0, ptr %.repack29, align 8
ADD:   %.repack29 = getelementptr inbounds { ptr, ptr, i64, [1 x i64], [1 x i64] }, ptr %46, i64 0, i32 2
ADD:   store ptr %38, ptr %.repack27, align 8
ADD:   %.repack27 = getelementptr inbounds { ptr, ptr, i64, [1 x i64], [1 x i64] }, ptr %46, i64 0, i32 1
ADD:   store ptr %38, ptr %46, align 8
ADD:   %46 = alloca { ptr, ptr, i64, [1 x i64], [1 x i64] }, align 8
ADD:   br i1 %41, label %42, label %45
ADD:   %41 = icmp slt i64 %40, %7
ADD:   %40 = phi i64 [ %44, %42 ], [ 0, %36 ]
ADD:   br label %39
ADD:   %38 = call ptr @malloc(i64 %.idx26)
ADD:   %.idx26 = shl i64 %7, 3
ADD:   store i64 1, ptr %.repack24, align 8
ADD:   %.repack24 = getelementptr inbounds { ptr, ptr, i64, [1 x i64], [1 x i64] }, ptr %37, i64 0, i32 4
ADD:   store i64 %5, ptr %.repack22, align 8
ADD:   %.repack22 = getelementptr inbounds { ptr, ptr, i64, [1 x i64], [1 x i64] }, ptr %37, i64 0, i32 3
ADD:   store i64 0, ptr %.repack20, align 8
ADD:   %.repack20 = getelementptr inbounds { ptr, ptr, i64, [1 x i64], [1 x i64] }, ptr %37, i64 0, i32 2
ADD:   store ptr %29, ptr %.repack18, align 8
ADD:   %.repack18 = getelementptr inbounds { ptr, ptr, i64, [1 x i64], [1 x i64] }, ptr %37, i64 0, i32 1
ADD:   store ptr %29, ptr %37, align 8
ADD:   %37 = alloca { ptr, ptr, i64, [1 x i64], [1 x i64] }, align 8
ADD:   br i1 %32, label %33, label %36
ADD:   %32 = icmp slt i64 %31, %5
ADD:   %31 = phi i64 [ %35, %33 ], [ 0, %27 ]
ADD:   br label %30
ADD:   %29 = call ptr @malloc(i64 %.idx17)
ADD:   %.idx17 = shl i64 %5, 3
ADD:   store i64 1, ptr %.repack15, align 8
ADD:   %.repack15 = getelementptr inbounds { ptr, ptr, i64, [1 x i64], [1 x i64] }, ptr %28, i64 0, i32 4
ADD:   store i64 %3, ptr %.repack13, align 8
ADD:   %.repack13 = getelementptr inbounds { ptr, ptr, i64, [1 x i64], [1 x i64] }, ptr %28, i64 0, i32 3
ADD:   store i64 0, ptr %.repack11, align 8
ADD:   %.repack11 = getelementptr inbounds { ptr, ptr, i64, [1 x i64], [1 x i64] }, ptr %28, i64 0, i32 2
ADD:   store ptr %20, ptr %.repack9, align 8
ADD:   %.repack9 = getelementptr inbounds { ptr, ptr, i64, [1 x i64], [1 x i64] }, ptr %28, i64 0, i32 1
ADD:   store ptr %20, ptr %28, align 8
ADD:   %28 = alloca { ptr, ptr, i64, [1 x i64], [1 x i64] }, align 8
ADD:   br i1 %23, label %24, label %27
ADD:   %23 = icmp slt i64 %22, %3
ADD:   %22 = phi i64 [ %26, %24 ], [ 0, %0 ]
ADD:   br label %21
ADD:   %20 = call ptr @malloc(i64 %.idx)
ADD:   %.idx = shl i64 %3, 3
ADD:   %19 = load i64, ptr %18, align 4
ADD:   %18 = getelementptr i64, ptr %1, i64 8
ADD:   %17 = load i64, ptr %16, align 4
ADD:   %16 = getelementptr i64, ptr %1, i64 7
ADD:   %15 = load i64, ptr %14, align 4
ADD:   %14 = getelementptr i64, ptr %1, i64 6
ADD:   %13 = load i64, ptr %12, align 4
ADD:   %12 = getelementptr i64, ptr %1, i64 5
ADD:   %11 = load i64, ptr %10, align 4
ADD:   %10 = getelementptr i64, ptr %1, i64 4
ADD:   %9 = load i64, ptr %8, align 4
